
RdtBLE.elf:     file format elf32-littlearm

Sections:
Idx Name          Size      VMA       LMA       File off  Algn
  0 .text         0000a0bc  00002000  00002000  00002000  2**3
                  CONTENTS, ALLOC, LOAD, READONLY, CODE
  1 .data         000002b0  20000000  0000c0bc  00010000  2**2
                  CONTENTS, ALLOC, LOAD, DATA
  2 .bss          00000e18  200002b0  0000c36c  000102b0  2**2
                  ALLOC
  3 .ARM.attributes 00000028  00000000  00000000  000102b0  2**0
                  CONTENTS, READONLY
  4 .comment      00000059  00000000  00000000  000102d8  2**0
                  CONTENTS, READONLY
  5 .debug_info   000bfab9  00000000  00000000  00010331  2**0
                  CONTENTS, READONLY, DEBUGGING
  6 .debug_abbrev 0000edf3  00000000  00000000  000cfdea  2**0
                  CONTENTS, READONLY, DEBUGGING
  7 .debug_loc    00014cdc  00000000  00000000  000debdd  2**0
                  CONTENTS, READONLY, DEBUGGING
  8 .debug_aranges 00001888  00000000  00000000  000f38b9  2**0
                  CONTENTS, READONLY, DEBUGGING
  9 .debug_ranges 00002b40  00000000  00000000  000f5141  2**0
                  CONTENTS, READONLY, DEBUGGING
 10 .debug_macro  000245ab  00000000  00000000  000f7c81  2**0
                  CONTENTS, READONLY, DEBUGGING
 11 .debug_line   0001da6d  00000000  00000000  0011c22c  2**0
                  CONTENTS, READONLY, DEBUGGING
 12 .debug_str    0008926c  00000000  00000000  00139c99  2**0
                  CONTENTS, READONLY, DEBUGGING
 13 .debug_frame  00004c40  00000000  00000000  001c2f08  2**2
                  CONTENTS, READONLY, DEBUGGING

Disassembly of section .text:

00002000 <exception_table>:
    2000:	00 80 00 20 2d 53 00 00 15 53 00 00 15 53 00 00     ... -S...S...S..
	...
    202c:	15 53 00 00 00 00 00 00 00 00 00 00 15 53 00 00     .S...........S..
    203c:	81 53 00 00 15 53 00 00 15 53 00 00 15 53 00 00     .S...S...S...S..
    204c:	15 53 00 00 15 53 00 00 15 53 00 00 15 53 00 00     .S...S...S...S..
    205c:	19 53 00 00 15 53 00 00 15 53 00 00 15 53 00 00     .S...S...S...S..
    206c:	15 53 00 00 15 53 00 00 fd 6b 00 00 ed 6b 00 00     .S...S...k...k..
    207c:	15 53 00 00 15 53 00 00 15 53 00 00 15 53 00 00     .S...S...S...S..
    208c:	15 53 00 00 d1 51 00 00 15 53 00 00 15 53 00 00     .S...Q...S...S..
    209c:	15 53 00 00 15 53 00 00 15 53 00 00 15 53 00 00     .S...S...S...S..
    20ac:	15 53 00 00 00 00 00 00                             .S......

000020b4 <__do_global_dtors_aux>:
    20b4:	b510      	push	{r4, lr}
    20b6:	4c06      	ldr	r4, [pc, #24]	; (20d0 <__do_global_dtors_aux+0x1c>)
    20b8:	7823      	ldrb	r3, [r4, #0]
    20ba:	2b00      	cmp	r3, #0
    20bc:	d107      	bne.n	20ce <__do_global_dtors_aux+0x1a>
    20be:	4b05      	ldr	r3, [pc, #20]	; (20d4 <__do_global_dtors_aux+0x20>)
    20c0:	2b00      	cmp	r3, #0
    20c2:	d002      	beq.n	20ca <__do_global_dtors_aux+0x16>
    20c4:	4804      	ldr	r0, [pc, #16]	; (20d8 <__do_global_dtors_aux+0x24>)
    20c6:	e000      	b.n	20ca <__do_global_dtors_aux+0x16>
    20c8:	bf00      	nop
    20ca:	2301      	movs	r3, #1
    20cc:	7023      	strb	r3, [r4, #0]
    20ce:	bd10      	pop	{r4, pc}
    20d0:	200002b0 	.word	0x200002b0
    20d4:	00000000 	.word	0x00000000
    20d8:	0000c0b8 	.word	0x0000c0b8

000020dc <frame_dummy>:
    20dc:	4b08      	ldr	r3, [pc, #32]	; (2100 <frame_dummy+0x24>)
    20de:	b510      	push	{r4, lr}
    20e0:	2b00      	cmp	r3, #0
    20e2:	d003      	beq.n	20ec <frame_dummy+0x10>
    20e4:	4907      	ldr	r1, [pc, #28]	; (2104 <frame_dummy+0x28>)
    20e6:	4808      	ldr	r0, [pc, #32]	; (2108 <frame_dummy+0x2c>)
    20e8:	e000      	b.n	20ec <frame_dummy+0x10>
    20ea:	bf00      	nop
    20ec:	4807      	ldr	r0, [pc, #28]	; (210c <frame_dummy+0x30>)
    20ee:	6803      	ldr	r3, [r0, #0]
    20f0:	2b00      	cmp	r3, #0
    20f2:	d100      	bne.n	20f6 <frame_dummy+0x1a>
    20f4:	bd10      	pop	{r4, pc}
    20f6:	4b06      	ldr	r3, [pc, #24]	; (2110 <frame_dummy+0x34>)
    20f8:	2b00      	cmp	r3, #0
    20fa:	d0fb      	beq.n	20f4 <frame_dummy+0x18>
    20fc:	4798      	blx	r3
    20fe:	e7f9      	b.n	20f4 <frame_dummy+0x18>
    2100:	00000000 	.word	0x00000000
    2104:	200002b4 	.word	0x200002b4
    2108:	0000c0b8 	.word	0x0000c0b8
    210c:	200002a0 	.word	0x200002a0
    2110:	00000000 	.word	0x00000000

00002114 <_ZN12BLEAttributeD1Ev>:
{
}

BLEAttribute::~BLEAttribute()
{
}
    2114:	4770      	bx	lr

00002116 <_ZNK12BLEAttribute4typeEv>:
}

enum BLEAttributeType BLEAttribute::type() const
{
  return BLETypeUnknown;
}
    2116:	2000      	movs	r0, #0
    2118:	4770      	bx	lr

0000211a <_ZN12BLEAttributeD0Ev>:
BLEAttribute::~BLEAttribute()
    211a:	b510      	push	{r4, lr}
    211c:	0004      	movs	r4, r0
}
    211e:	f003 f9bd 	bl	549c <_ZdlPv>
    2122:	0020      	movs	r0, r4
    2124:	bd10      	pop	{r4, pc}
	...

00002128 <_ZN12BLEAttributeC1EPKc>:
  _refCount(0)
    2128:	4b05      	ldr	r3, [pc, #20]	; (2140 <_ZN12BLEAttributeC1EPKc+0x18>)
BLEAttribute::BLEAttribute(const char* uuid) :
    212a:	b510      	push	{r4, lr}
  _refCount(0)
    212c:	3308      	adds	r3, #8
BLEAttribute::BLEAttribute(const char* uuid) :
    212e:	0004      	movs	r4, r0
  _refCount(0)
    2130:	c008      	stmia	r0!, {r3}
    2132:	f000 fa4b 	bl	25cc <_ZN7BLEUuidC1EPKc>
    2136:	2300      	movs	r3, #0
}
    2138:	0020      	movs	r0, r4
  _refCount(0)
    213a:	61e3      	str	r3, [r4, #28]
}
    213c:	bd10      	pop	{r4, pc}
    213e:	46c0      	nop			; (mov r8, r8)
    2140:	0000b6d8 	.word	0x0000b6d8

00002144 <_ZNK12BLEAttribute4uuidEv>:
{
    2144:	b510      	push	{r4, lr}
  return _uuid.str();
    2146:	3004      	adds	r0, #4
    2148:	f000 fa7a 	bl	2640 <_ZNK7BLEUuid3strEv>
}
    214c:	bd10      	pop	{r4, pc}

0000214e <_ZNK12BLEAttribute8uuidDataEv>:
{
    214e:	b510      	push	{r4, lr}
  return _uuid.data();
    2150:	3004      	adds	r0, #4
    2152:	f000 fa77 	bl	2644 <_ZNK7BLEUuid4dataEv>
}
    2156:	bd10      	pop	{r4, pc}

00002158 <_ZNK12BLEAttribute10uuidLengthEv>:
{
    2158:	b510      	push	{r4, lr}
  return _uuid.length();
    215a:	3004      	adds	r0, #4
    215c:	f000 fa74 	bl	2648 <_ZNK7BLEUuid6lengthEv>
}
    2160:	bd10      	pop	{r4, pc}

00002162 <_ZN12BLEAttribute6retainEv>:

int BLEAttribute::retain()
{
  _refCount++;
    2162:	69c3      	ldr	r3, [r0, #28]
    2164:	3301      	adds	r3, #1
    2166:	61c3      	str	r3, [r0, #28]

  return _refCount;
}
    2168:	0018      	movs	r0, r3
    216a:	4770      	bx	lr

0000216c <_ZN12BLEAttribute7releaseEv>:

int BLEAttribute::release()
{
  _refCount--;
    216c:	69c3      	ldr	r3, [r0, #28]
    216e:	3b01      	subs	r3, #1
    2170:	61c3      	str	r3, [r0, #28]

  return _refCount;
}
    2172:	0018      	movs	r0, r3
    2174:	4770      	bx	lr
	...

00002178 <_ZN17BLECharacteristicD1Ev>:
BLECharacteristic::BLECharacteristic(const char* uuid, uint8_t properties, const char* value) :
  BLECharacteristic(new BLELocalCharacteristic(uuid, properties, value))
{
}

BLECharacteristic::~BLECharacteristic()
    2178:	4b09      	ldr	r3, [pc, #36]	; (21a0 <_ZN17BLECharacteristicD1Ev+0x28>)
    217a:	b510      	push	{r4, lr}
    217c:	3308      	adds	r3, #8
    217e:	0004      	movs	r4, r0
    2180:	6003      	str	r3, [r0, #0]
{
  if (_local && _local->release() <= 0) {
    2182:	6840      	ldr	r0, [r0, #4]
    2184:	2800      	cmp	r0, #0
    2186:	d009      	beq.n	219c <_ZN17BLECharacteristicD1Ev+0x24>
    2188:	f7ff fff0 	bl	216c <_ZN12BLEAttribute7releaseEv>
    218c:	2800      	cmp	r0, #0
    218e:	dc05      	bgt.n	219c <_ZN17BLECharacteristicD1Ev+0x24>
    delete _local;
    2190:	6860      	ldr	r0, [r4, #4]
    2192:	2800      	cmp	r0, #0
    2194:	d002      	beq.n	219c <_ZN17BLECharacteristicD1Ev+0x24>
    2196:	6803      	ldr	r3, [r0, #0]
    2198:	685b      	ldr	r3, [r3, #4]
    219a:	4798      	blx	r3
  }
}
    219c:	0020      	movs	r0, r4
    219e:	bd10      	pop	{r4, pc}
    21a0:	0000b6ec 	.word	0x0000b6ec

000021a4 <_ZN17BLECharacteristicD0Ev>:
BLECharacteristic::~BLECharacteristic()
    21a4:	b510      	push	{r4, lr}
    21a6:	0004      	movs	r4, r0
}
    21a8:	f7ff ffe6 	bl	2178 <_ZN17BLECharacteristicD1Ev>
    21ac:	0020      	movs	r0, r4
    21ae:	f003 f975 	bl	549c <_ZdlPv>
    21b2:	0020      	movs	r0, r4
    21b4:	bd10      	pop	{r4, pc}
	...

000021b8 <_ZN17BLECharacteristicC1EP22BLELocalCharacteristic>:
  _local(local)
    21b8:	4b06      	ldr	r3, [pc, #24]	; (21d4 <_ZN17BLECharacteristicC1EP22BLELocalCharacteristic+0x1c>)
BLECharacteristic::BLECharacteristic(BLELocalCharacteristic* local) :
    21ba:	b510      	push	{r4, lr}
  _local(local)
    21bc:	3308      	adds	r3, #8
BLECharacteristic::BLECharacteristic(BLELocalCharacteristic* local) :
    21be:	0004      	movs	r4, r0
  _local(local)
    21c0:	6003      	str	r3, [r0, #0]
    21c2:	6041      	str	r1, [r0, #4]
  if (_local) {
    21c4:	2900      	cmp	r1, #0
    21c6:	d002      	beq.n	21ce <_ZN17BLECharacteristicC1EP22BLELocalCharacteristic+0x16>
    _local->retain();
    21c8:	0008      	movs	r0, r1
    21ca:	f7ff ffca 	bl	2162 <_ZN12BLEAttribute6retainEv>
}
    21ce:	0020      	movs	r0, r4
    21d0:	bd10      	pop	{r4, pc}
    21d2:	46c0      	nop			; (mov r8, r8)
    21d4:	0000b6ec 	.word	0x0000b6ec

000021d8 <_ZN17BLECharacteristicC1EPKchib>:
BLECharacteristic::BLECharacteristic(const char* uuid, uint8_t properties, int valueSize, bool fixedLength) :
    21d8:	b5f0      	push	{r4, r5, r6, r7, lr}
    21da:	b085      	sub	sp, #20
    21dc:	0004      	movs	r4, r0
    21de:	001e      	movs	r6, r3
  BLECharacteristic(new BLELocalCharacteristic(uuid, properties, valueSize, fixedLength))
    21e0:	2054      	movs	r0, #84	; 0x54
BLECharacteristic::BLECharacteristic(const char* uuid, uint8_t properties, int valueSize, bool fixedLength) :
    21e2:	ab0a      	add	r3, sp, #40	; 0x28
    21e4:	781f      	ldrb	r7, [r3, #0]
    21e6:	9102      	str	r1, [sp, #8]
    21e8:	9203      	str	r2, [sp, #12]
  BLECharacteristic(new BLELocalCharacteristic(uuid, properties, valueSize, fixedLength))
    21ea:	f003 f953 	bl	5494 <_Znwj>
    21ee:	0005      	movs	r5, r0
    21f0:	0033      	movs	r3, r6
    21f2:	9a03      	ldr	r2, [sp, #12]
    21f4:	9902      	ldr	r1, [sp, #8]
    21f6:	9700      	str	r7, [sp, #0]
    21f8:	f000 faca 	bl	2790 <_ZN22BLELocalCharacteristicC1EPKchib>
    21fc:	0029      	movs	r1, r5
    21fe:	0020      	movs	r0, r4
    2200:	f7ff ffda 	bl	21b8 <_ZN17BLECharacteristicC1EP22BLELocalCharacteristic>
}
    2204:	0020      	movs	r0, r4
    2206:	b005      	add	sp, #20
    2208:	bdf0      	pop	{r4, r5, r6, r7, pc}

0000220a <_ZN17BLECharacteristic10writeValueEPKhi>:
  return 0;
}

int BLECharacteristic::writeValue(const uint8_t value[], int length)
{
  if (_local) {
    220a:	6843      	ldr	r3, [r0, #4]
{
    220c:	b510      	push	{r4, lr}
    return _local->writeValue(value, length);
  }

  return 0;
    220e:	1e18      	subs	r0, r3, #0
  if (_local) {
    2210:	d001      	beq.n	2216 <_ZN17BLECharacteristic10writeValueEPKhi+0xc>
    return _local->writeValue(value, length);
    2212:	f000 fa29 	bl	2668 <_ZN22BLELocalCharacteristic10writeValueEPKhi>
}
    2216:	bd10      	pop	{r4, pc}

00002218 <_ZN17BLECharacteristic10writeValueEPKc>:

int BLECharacteristic::writeValue(const char* value)
{
  if (_local) {
    2218:	6843      	ldr	r3, [r0, #4]
{
    221a:	b510      	push	{r4, lr}
    return _local->writeValue(value);
  }

  return 0;
    221c:	1e18      	subs	r0, r3, #0
  if (_local) {
    221e:	d001      	beq.n	2224 <_ZN17BLECharacteristic10writeValueEPKc+0xc>
    return _local->writeValue(value);
    2220:	f000 fa7c 	bl	271c <_ZN22BLELocalCharacteristic10writeValueEPKc>
}
    2224:	bd10      	pop	{r4, pc}

00002226 <_ZN17BLECharacteristic5localEv>:
  return (_local != NULL);
}

BLELocalCharacteristic* BLECharacteristic::local()
{
  return _local;
    2226:	6840      	ldr	r0, [r0, #4]
}
    2228:	4770      	bx	lr

0000222a <_ZN9BLEDeviceD1Ev>:
  memcpy(_address, address, sizeof(_address));
}

BLEDevice::~BLEDevice()
{
}
    222a:	4770      	bx	lr

0000222c <_ZN9BLEDeviceD0Ev>:
BLEDevice::~BLEDevice()
    222c:	b510      	push	{r4, lr}
    222e:	0004      	movs	r4, r0
}
    2230:	f003 f934 	bl	549c <_ZdlPv>
    2234:	0020      	movs	r0, r4
    2236:	bd10      	pop	{r4, pc}

00002238 <_ZN9BLEDevice4pollEv>:

void BLEDevice::poll()
{
    2238:	b510      	push	{r4, lr}
  HCI.poll();
    223a:	4802      	ldr	r0, [pc, #8]	; (2244 <_ZN9BLEDevice4pollEv+0xc>)
    223c:	f002 f9ba 	bl	45b4 <_ZN8HCIClass4pollEv>
}
    2240:	bd10      	pop	{r4, pc}
    2242:	46c0      	nop			; (mov r8, r8)
    2244:	20000490 	.word	0x20000490

00002248 <_ZN9BLEDevice4pollEm>:

void BLEDevice::poll(unsigned long timeout)
{
    2248:	b510      	push	{r4, lr}
  HCI.poll(timeout);
    224a:	4802      	ldr	r0, [pc, #8]	; (2254 <_ZN9BLEDevice4pollEm+0xc>)
    224c:	f002 f94a 	bl	44e4 <_ZN8HCIClass4pollEm>
}
    2250:	bd10      	pop	{r4, pc}
    2252:	46c0      	nop			; (mov r8, r8)
    2254:	20000490 	.word	0x20000490

00002258 <_ZN9BLEDevice10disconnectEv>:

  return ATT.connected(_handle, _address);
}

bool BLEDevice::disconnect()
{
    2258:	b510      	push	{r4, lr}
  if (_handle != 0xffff) {
    225a:	4b06      	ldr	r3, [pc, #24]	; (2274 <_ZN9BLEDevice10disconnectEv+0x1c>)
    225c:	8881      	ldrh	r1, [r0, #4]
    return HCI.disconnect(_handle);
  }

  return false;
    225e:	2000      	movs	r0, #0
  if (_handle != 0xffff) {
    2260:	4299      	cmp	r1, r3
    2262:	d005      	beq.n	2270 <_ZN9BLEDevice10disconnectEv+0x18>
    return HCI.disconnect(_handle);
    2264:	4804      	ldr	r0, [pc, #16]	; (2278 <_ZN9BLEDevice10disconnectEv+0x20>)
    2266:	f002 fb8b 	bl	4980 <_ZN8HCIClass10disconnectEt>
    226a:	1e43      	subs	r3, r0, #1
    226c:	4198      	sbcs	r0, r3
    226e:	b2c0      	uxtb	r0, r0
}
    2270:	bd10      	pop	{r4, pc}
    2272:	46c0      	nop			; (mov r8, r8)
    2274:	0000ffff 	.word	0x0000ffff
    2278:	20000490 	.word	0x20000490

0000227c <_ZNK9BLEDevice7addressEv>:

String BLEDevice::address() const
{
    227c:	b510      	push	{r4, lr}
    227e:	0004      	movs	r4, r0
  char result[18];
  sprintf(result, "%02x:%02x:%02x:%02x:%02x:%02x", _address[5], _address[4], _address[3], _address[2], _address[1], _address[0]);
    2280:	7988      	ldrb	r0, [r1, #6]
{
    2282:	b08a      	sub	sp, #40	; 0x28
  sprintf(result, "%02x:%02x:%02x:%02x:%02x:%02x", _address[5], _address[4], _address[3], _address[2], _address[1], _address[0]);
    2284:	7a8b      	ldrb	r3, [r1, #10]
    2286:	7aca      	ldrb	r2, [r1, #11]
    2288:	9003      	str	r0, [sp, #12]
    228a:	79c8      	ldrb	r0, [r1, #7]
    228c:	9002      	str	r0, [sp, #8]
    228e:	7a08      	ldrb	r0, [r1, #8]
    2290:	9001      	str	r0, [sp, #4]
    2292:	7a49      	ldrb	r1, [r1, #9]
    2294:	a805      	add	r0, sp, #20
    2296:	9100      	str	r1, [sp, #0]
    2298:	4904      	ldr	r1, [pc, #16]	; (22ac <_ZNK9BLEDevice7addressEv+0x30>)
    229a:	f007 fddf 	bl	9e5c <siprintf>

  return result;
    229e:	a905      	add	r1, sp, #20
    22a0:	0020      	movs	r0, r4
    22a2:	f004 fc7d 	bl	6ba0 <_ZN6StringC1EPKc>
}
    22a6:	0020      	movs	r0, r4
    22a8:	b00a      	add	sp, #40	; 0x28
    22aa:	bd10      	pop	{r4, pc}
    22ac:	0000b6fc 	.word	0x0000b6fc

000022b0 <_ZN9BLEDevice4rssiEv>:

int BLEDevice::rssi()
{
    22b0:	b510      	push	{r4, lr}
  if (_handle != 0xffff) {
    22b2:	4b04      	ldr	r3, [pc, #16]	; (22c4 <_ZN9BLEDevice4rssiEv+0x14>)
    22b4:	8881      	ldrh	r1, [r0, #4]
    return HCI.readRssi(_handle);
  }

  return 127;
    22b6:	207f      	movs	r0, #127	; 0x7f
  if (_handle != 0xffff) {
    22b8:	4299      	cmp	r1, r3
    22ba:	d002      	beq.n	22c2 <_ZN9BLEDevice4rssiEv+0x12>
    return HCI.readRssi(_handle);
    22bc:	4802      	ldr	r0, [pc, #8]	; (22c8 <_ZN9BLEDevice4rssiEv+0x18>)
    22be:	f002 fa11 	bl	46e4 <_ZN8HCIClass8readRssiEt>
}
    22c2:	bd10      	pop	{r4, pc}
    22c4:	0000ffff 	.word	0x0000ffff
    22c8:	20000490 	.word	0x20000490

000022cc <_ZNK9BLEDevicecvbEv>:

BLEDevice::operator bool() const
{
    22cc:	b513      	push	{r0, r1, r4, lr}
    22ce:	0004      	movs	r4, r0
  uint8_t zeros[6] = { 0x00, 0x00, 0x00, 0x00, 0x00, 0x00,};
    22d0:	2206      	movs	r2, #6
    22d2:	2100      	movs	r1, #0
    22d4:	4668      	mov	r0, sp
    22d6:	f007 f885 	bl	93e4 <memset>

  return ((_handle != 0xffff) && memcmp(_address, zeros, sizeof(zeros)) != 0);
    22da:	88a2      	ldrh	r2, [r4, #4]
    22dc:	4b06      	ldr	r3, [pc, #24]	; (22f8 <_ZNK9BLEDevicecvbEv+0x2c>)
    22de:	2000      	movs	r0, #0
    22e0:	429a      	cmp	r2, r3
    22e2:	d007      	beq.n	22f4 <_ZNK9BLEDevicecvbEv+0x28>
    22e4:	1da0      	adds	r0, r4, #6
    22e6:	2206      	movs	r2, #6
    22e8:	4669      	mov	r1, sp
    22ea:	f007 f851 	bl	9390 <memcmp>
    22ee:	1e43      	subs	r3, r0, #1
    22f0:	4198      	sbcs	r0, r3
    22f2:	b2c0      	uxtb	r0, r0
}
    22f4:	bd16      	pop	{r1, r2, r4, pc}
    22f6:	46c0      	nop			; (mov r8, r8)
    22f8:	0000ffff 	.word	0x0000ffff

000022fc <_ZNK9BLEDeviceeqERKS_>:

bool BLEDevice::operator==(const BLEDevice& rhs) const
{
    22fc:	b510      	push	{r4, lr}
  return ((_handle == rhs._handle) && memcmp(_address, rhs._address, sizeof(_address)) == 0);
    22fe:	8884      	ldrh	r4, [r0, #4]
    2300:	888a      	ldrh	r2, [r1, #4]
    2302:	2300      	movs	r3, #0
    2304:	4294      	cmp	r4, r2
    2306:	d107      	bne.n	2318 <_ZNK9BLEDeviceeqERKS_+0x1c>
    2308:	3106      	adds	r1, #6
    230a:	3006      	adds	r0, #6
    230c:	2206      	movs	r2, #6
    230e:	f007 f83f 	bl	9390 <memcmp>
    2312:	4243      	negs	r3, r0
    2314:	4143      	adcs	r3, r0
    2316:	b2db      	uxtb	r3, r3
}
    2318:	0018      	movs	r0, r3
    231a:	bd10      	pop	{r4, pc}

0000231c <_ZNK9BLEDevice9connectedEv>:
{
    231c:	b510      	push	{r4, lr}
    231e:	0004      	movs	r4, r0
  HCI.poll();
    2320:	4807      	ldr	r0, [pc, #28]	; (2340 <_ZNK9BLEDevice9connectedEv+0x24>)
    2322:	f002 f947 	bl	45b4 <_ZN8HCIClass4pollEv>
  if (!(*this)) {
    2326:	6823      	ldr	r3, [r4, #0]
    2328:	0020      	movs	r0, r4
    232a:	6a1b      	ldr	r3, [r3, #32]
    232c:	4798      	blx	r3
    232e:	2800      	cmp	r0, #0
    2330:	d004      	beq.n	233c <_ZNK9BLEDevice9connectedEv+0x20>
  return ATT.connected(_handle, _address);
    2332:	1da2      	adds	r2, r4, #6
    2334:	88a1      	ldrh	r1, [r4, #4]
    2336:	4803      	ldr	r0, [pc, #12]	; (2344 <_ZNK9BLEDevice9connectedEv+0x28>)
    2338:	f000 fe26 	bl	2f88 <_ZNK8ATTClass9connectedEtPKh>
}
    233c:	bd10      	pop	{r4, pc}
    233e:	46c0      	nop			; (mov r8, r8)
    2340:	20000490 	.word	0x20000490
    2344:	200002d8 	.word	0x200002d8

00002348 <_ZNK9BLEDeviceneERKS_>:

bool BLEDevice::operator!=(const BLEDevice& rhs) const
{
    2348:	b510      	push	{r4, lr}
  return ((_handle != rhs._handle) || memcmp(_address, rhs._address, sizeof(_address)) != 0);
    234a:	8884      	ldrh	r4, [r0, #4]
    234c:	888a      	ldrh	r2, [r1, #4]
    234e:	2301      	movs	r3, #1
    2350:	4294      	cmp	r4, r2
    2352:	d107      	bne.n	2364 <_ZNK9BLEDeviceneERKS_+0x1c>
    2354:	3106      	adds	r1, #6
    2356:	3006      	adds	r0, #6
    2358:	2206      	movs	r2, #6
    235a:	f007 f819 	bl	9390 <memcmp>
    235e:	1e43      	subs	r3, r0, #1
    2360:	4198      	sbcs	r0, r3
    2362:	b2c3      	uxtb	r3, r0
}
    2364:	0018      	movs	r0, r3
    2366:	bd10      	pop	{r4, pc}

00002368 <_ZN9BLEDeviceC1Ev>:
  _handle(0xffff)
    2368:	4b07      	ldr	r3, [pc, #28]	; (2388 <_ZN9BLEDeviceC1Ev+0x20>)
BLEDevice::BLEDevice() :
    236a:	b510      	push	{r4, lr}
  _handle(0xffff)
    236c:	3308      	adds	r3, #8
    236e:	6003      	str	r3, [r0, #0]
    2370:	2301      	movs	r3, #1
BLEDevice::BLEDevice() :
    2372:	0004      	movs	r4, r0
  _handle(0xffff)
    2374:	425b      	negs	r3, r3
    2376:	8083      	strh	r3, [r0, #4]
  memset(_address, 0x00, sizeof(_address));
    2378:	2206      	movs	r2, #6
    237a:	2100      	movs	r1, #0
    237c:	3006      	adds	r0, #6
    237e:	f007 f831 	bl	93e4 <memset>
}
    2382:	0020      	movs	r0, r4
    2384:	bd10      	pop	{r4, pc}
    2386:	46c0      	nop			; (mov r8, r8)
    2388:	0000b71c 	.word	0x0000b71c

0000238c <_ZN9BLEDeviceC1EtPh>:
BLEDevice::BLEDevice(uint16_t handle, uint8_t address[6]) :
    238c:	b510      	push	{r4, lr}
    238e:	0004      	movs	r4, r0
    2390:	0008      	movs	r0, r1
  _handle(handle)
    2392:	4b05      	ldr	r3, [pc, #20]	; (23a8 <_ZN9BLEDeviceC1EtPh+0x1c>)
BLEDevice::BLEDevice(uint16_t handle, uint8_t address[6]) :
    2394:	0011      	movs	r1, r2
  _handle(handle)
    2396:	3308      	adds	r3, #8
    2398:	80a0      	strh	r0, [r4, #4]
    239a:	6023      	str	r3, [r4, #0]
  memcpy(_address, address, sizeof(_address));
    239c:	1da0      	adds	r0, r4, #6
    239e:	2206      	movs	r2, #6
    23a0:	f007 f805 	bl	93ae <memcpy>
}
    23a4:	0020      	movs	r0, r4
    23a6:	bd10      	pop	{r4, pc}
    23a8:	0000b71c 	.word	0x0000b71c

000023ac <_ZN10BLEServiceD1Ev>:
BLEService::BLEService(const char* uuid) :
  BLEService(new BLELocalService(uuid))
{
}

BLEService::~BLEService()
    23ac:	4b09      	ldr	r3, [pc, #36]	; (23d4 <_ZN10BLEServiceD1Ev+0x28>)
    23ae:	b510      	push	{r4, lr}
    23b0:	3308      	adds	r3, #8
    23b2:	0004      	movs	r4, r0
    23b4:	6003      	str	r3, [r0, #0]
{
  if (_local && _local->release() <= 0) {
    23b6:	6840      	ldr	r0, [r0, #4]
    23b8:	2800      	cmp	r0, #0
    23ba:	d009      	beq.n	23d0 <_ZN10BLEServiceD1Ev+0x24>
    23bc:	f7ff fed6 	bl	216c <_ZN12BLEAttribute7releaseEv>
    23c0:	2800      	cmp	r0, #0
    23c2:	dc05      	bgt.n	23d0 <_ZN10BLEServiceD1Ev+0x24>
    delete _local;
    23c4:	6860      	ldr	r0, [r4, #4]
    23c6:	2800      	cmp	r0, #0
    23c8:	d002      	beq.n	23d0 <_ZN10BLEServiceD1Ev+0x24>
    23ca:	6803      	ldr	r3, [r0, #0]
    23cc:	685b      	ldr	r3, [r3, #4]
    23ce:	4798      	blx	r3
  }
}
    23d0:	0020      	movs	r0, r4
    23d2:	bd10      	pop	{r4, pc}
    23d4:	0000b750 	.word	0x0000b750

000023d8 <_ZN10BLEServiceD0Ev>:
BLEService::~BLEService()
    23d8:	b510      	push	{r4, lr}
    23da:	0004      	movs	r4, r0
}
    23dc:	f7ff ffe6 	bl	23ac <_ZN10BLEServiceD1Ev>
    23e0:	0020      	movs	r0, r4
    23e2:	f003 f85b 	bl	549c <_ZdlPv>
    23e6:	0020      	movs	r0, r4
    23e8:	bd10      	pop	{r4, pc}
	...

000023ec <_ZN10BLEServiceC1EP15BLELocalService>:
  _local(local)
    23ec:	4b06      	ldr	r3, [pc, #24]	; (2408 <_ZN10BLEServiceC1EP15BLELocalService+0x1c>)
BLEService::BLEService(BLELocalService* local) :
    23ee:	b510      	push	{r4, lr}
  _local(local)
    23f0:	3308      	adds	r3, #8
BLEService::BLEService(BLELocalService* local) :
    23f2:	0004      	movs	r4, r0
  _local(local)
    23f4:	6003      	str	r3, [r0, #0]
    23f6:	6041      	str	r1, [r0, #4]
  if (_local) {
    23f8:	2900      	cmp	r1, #0
    23fa:	d002      	beq.n	2402 <_ZN10BLEServiceC1EP15BLELocalService+0x16>
    _local->retain();
    23fc:	0008      	movs	r0, r1
    23fe:	f7ff feb0 	bl	2162 <_ZN12BLEAttribute6retainEv>
}
    2402:	0020      	movs	r0, r4
    2404:	bd10      	pop	{r4, pc}
    2406:	46c0      	nop			; (mov r8, r8)
    2408:	0000b750 	.word	0x0000b750

0000240c <_ZN10BLEServiceC1EPKc>:
BLEService::BLEService(const char* uuid) :
    240c:	b570      	push	{r4, r5, r6, lr}
    240e:	0004      	movs	r4, r0
  BLEService(new BLELocalService(uuid))
    2410:	2030      	movs	r0, #48	; 0x30
BLEService::BLEService(const char* uuid) :
    2412:	000e      	movs	r6, r1
  BLEService(new BLELocalService(uuid))
    2414:	f003 f83e 	bl	5494 <_Znwj>
    2418:	0005      	movs	r5, r0
    241a:	0031      	movs	r1, r6
    241c:	f000 fc3c 	bl	2c98 <_ZN15BLELocalServiceC1EPKc>
    2420:	0029      	movs	r1, r5
    2422:	0020      	movs	r0, r4
    2424:	f7ff ffe2 	bl	23ec <_ZN10BLEServiceC1EP15BLELocalService>
}
    2428:	0020      	movs	r0, r4
    242a:	bd70      	pop	{r4, r5, r6, pc}

0000242c <_ZNK10BLEService4uuidEv>:

const char* BLEService::uuid() const
{
  if (_local) {
    242c:	6843      	ldr	r3, [r0, #4]
{
    242e:	b510      	push	{r4, lr}
    return _local->uuid();
  }

  return "";
    2430:	4803      	ldr	r0, [pc, #12]	; (2440 <_ZNK10BLEService4uuidEv+0x14>)
  if (_local) {
    2432:	2b00      	cmp	r3, #0
    2434:	d002      	beq.n	243c <_ZNK10BLEService4uuidEv+0x10>
    return _local->uuid();
    2436:	0018      	movs	r0, r3
    2438:	f7ff fe84 	bl	2144 <_ZNK12BLEAttribute4uuidEv>
}
    243c:	bd10      	pop	{r4, pc}
    243e:	46c0      	nop			; (mov r8, r8)
    2440:	0000b9cd 	.word	0x0000b9cd

00002444 <_ZN10BLEService17addCharacteristicER17BLECharacteristic>:

void BLEService::addCharacteristic(BLECharacteristic& characteristic)
{
  if (_local) {
    2444:	6840      	ldr	r0, [r0, #4]
{
    2446:	b510      	push	{r4, lr}
  if (_local) {
    2448:	2800      	cmp	r0, #0
    244a:	d001      	beq.n	2450 <_ZN10BLEService17addCharacteristicER17BLECharacteristic+0xc>
    _local->addCharacteristic(characteristic);
    244c:	f000 fc65 	bl	2d1a <_ZN15BLELocalService17addCharacteristicER17BLECharacteristic>
  }
}
    2450:	bd10      	pop	{r4, pc}

00002452 <_ZN10BLEService5localEv>:

BLELocalService* BLEService::local()
{
  return _local;
    2452:	6840      	ldr	r0, [r0, #4]
}
    2454:	4770      	bx	lr
	...

00002458 <_ZN23BLEStringCharacteristicD1Ev>:

#include <Arduino.h>

#include "BLECharacteristic.h"

class BLEStringCharacteristic : public BLECharacteristic
    2458:	b510      	push	{r4, lr}
    245a:	0004      	movs	r4, r0
    245c:	4b02      	ldr	r3, [pc, #8]	; (2468 <_ZN23BLEStringCharacteristicD1Ev+0x10>)
    245e:	6003      	str	r3, [r0, #0]
    2460:	f7ff fe8a 	bl	2178 <_ZN17BLECharacteristicD1Ev>
    2464:	0020      	movs	r0, r4
    2466:	bd10      	pop	{r4, pc}
    2468:	0000b768 	.word	0x0000b768

0000246c <_ZN23BLEStringCharacteristicD0Ev>:
    246c:	b510      	push	{r4, lr}
    246e:	0004      	movs	r4, r0
    2470:	f7ff fff2 	bl	2458 <_ZN23BLEStringCharacteristicD1Ev>
    2474:	0020      	movs	r0, r4
    2476:	f003 f811 	bl	549c <_ZdlPv>
    247a:	0020      	movs	r0, r4
    247c:	bd10      	pop	{r4, pc}
	...

00002480 <_ZN23BLEStringCharacteristicC1EPKchi>:
  Foundation, Inc., 51 Franklin Street, Fifth Floor, Boston, MA  02110-1301  USA
*/

#include "BLEStringCharacteristic.h"

BLEStringCharacteristic::BLEStringCharacteristic(const char* uuid, unsigned char properties, int valueSize) :
    2480:	b513      	push	{r0, r1, r4, lr}
    2482:	0004      	movs	r4, r0
  BLECharacteristic(uuid, properties, valueSize)
    2484:	2000      	movs	r0, #0
    2486:	9000      	str	r0, [sp, #0]
    2488:	0020      	movs	r0, r4
    248a:	f7ff fea5 	bl	21d8 <_ZN17BLECharacteristicC1EPKchib>
    248e:	4b02      	ldr	r3, [pc, #8]	; (2498 <_ZN23BLEStringCharacteristicC1EPKchi+0x18>)
{
}
    2490:	0020      	movs	r0, r4
  BLECharacteristic(uuid, properties, valueSize)
    2492:	6023      	str	r3, [r4, #0]
}
    2494:	bd16      	pop	{r1, r2, r4, pc}
    2496:	46c0      	nop			; (mov r8, r8)
    2498:	0000b768 	.word	0x0000b768

0000249c <_ZN23BLEStringCharacteristic10writeValueERK6String>:

int BLEStringCharacteristic::writeValue(const String& value)
{
    249c:	b510      	push	{r4, lr}
  return BLECharacteristic::writeValue(value.c_str());
    249e:	6809      	ldr	r1, [r1, #0]
    24a0:	f7ff feba 	bl	2218 <_ZN17BLECharacteristic10writeValueEPKc>
}
    24a4:	bd10      	pop	{r4, pc}
	...

000024a8 <_ZN22BLETypedCharacteristicIhED1Ev>:
#ifndef _BLE_TYPED_CHARACTERISTIC_H_
#define _BLE_TYPED_CHARACTERISTIC_H_

#include "BLECharacteristic.h"

template<typename T> class BLETypedCharacteristic : public BLECharacteristic
    24a8:	b510      	push	{r4, lr}
    24aa:	0004      	movs	r4, r0
    24ac:	4b02      	ldr	r3, [pc, #8]	; (24b8 <_ZN22BLETypedCharacteristicIhED1Ev+0x10>)
    24ae:	6003      	str	r3, [r0, #0]
    24b0:	f7ff fe62 	bl	2178 <_ZN17BLECharacteristicD1Ev>
    24b4:	0020      	movs	r0, r4
    24b6:	bd10      	pop	{r4, pc}
    24b8:	0000b778 	.word	0x0000b778

000024bc <_ZN22BLETypedCharacteristicIhED0Ev>:
    24bc:	b510      	push	{r4, lr}
    24be:	0004      	movs	r4, r0
    24c0:	f7ff fff2 	bl	24a8 <_ZN22BLETypedCharacteristicIhED1Ev>
    24c4:	0020      	movs	r0, r4
    24c6:	f002 ffe9 	bl	549c <_ZdlPv>
    24ca:	0020      	movs	r0, r4
    24cc:	bd10      	pop	{r4, pc}
	...

000024d0 <_ZN21BLEByteCharacteristicD1Ev>:
class BLEUnsignedCharCharacteristic : public BLETypedCharacteristic<unsigned char> {
public:
  BLEUnsignedCharCharacteristic(const char* uuid, unsigned char properties);
};

class BLEByteCharacteristic : public BLETypedCharacteristic<byte> {
    24d0:	b510      	push	{r4, lr}
    24d2:	0004      	movs	r4, r0
    24d4:	4b02      	ldr	r3, [pc, #8]	; (24e0 <_ZN21BLEByteCharacteristicD1Ev+0x10>)
    24d6:	6003      	str	r3, [r0, #0]
    24d8:	f7ff ffe6 	bl	24a8 <_ZN22BLETypedCharacteristicIhED1Ev>
    24dc:	0020      	movs	r0, r4
    24de:	bd10      	pop	{r4, pc}
    24e0:	0000b788 	.word	0x0000b788

000024e4 <_ZN21BLEByteCharacteristicD0Ev>:
    24e4:	b510      	push	{r4, lr}
    24e6:	0004      	movs	r4, r0
    24e8:	f7ff fff2 	bl	24d0 <_ZN21BLEByteCharacteristicD1Ev>
    24ec:	0020      	movs	r0, r4
    24ee:	f002 ffd5 	bl	549c <_ZdlPv>
    24f2:	0020      	movs	r0, r4
    24f4:	bd10      	pop	{r4, pc}
	...

000024f8 <_ZN22BLETypedCharacteristicItED1Ev>:
    24f8:	b510      	push	{r4, lr}
    24fa:	0004      	movs	r4, r0
    24fc:	4b02      	ldr	r3, [pc, #8]	; (2508 <_ZN22BLETypedCharacteristicItED1Ev+0x10>)
    24fe:	6003      	str	r3, [r0, #0]
    2500:	f7ff fe3a 	bl	2178 <_ZN17BLECharacteristicD1Ev>
    2504:	0020      	movs	r0, r4
    2506:	bd10      	pop	{r4, pc}
    2508:	0000b798 	.word	0x0000b798

0000250c <_ZN22BLETypedCharacteristicItED0Ev>:
    250c:	b510      	push	{r4, lr}
    250e:	0004      	movs	r4, r0
    2510:	f7ff fff2 	bl	24f8 <_ZN22BLETypedCharacteristicItED1Ev>
    2514:	0020      	movs	r0, r4
    2516:	f002 ffc1 	bl	549c <_ZdlPv>
    251a:	0020      	movs	r0, r4
    251c:	bd10      	pop	{r4, pc}
	...

00002520 <_ZN21BLEWordCharacteristicD1Ev>:
class BLEUnsignedShortCharacteristic : public BLETypedCharacteristic<unsigned short> {
public:
  BLEUnsignedShortCharacteristic(const char* uuid, unsigned char properties);
};

class BLEWordCharacteristic : public BLETypedCharacteristic<word> {
    2520:	b510      	push	{r4, lr}
    2522:	0004      	movs	r4, r0
    2524:	4b02      	ldr	r3, [pc, #8]	; (2530 <_ZN21BLEWordCharacteristicD1Ev+0x10>)
    2526:	6003      	str	r3, [r0, #0]
    2528:	f7ff ffe6 	bl	24f8 <_ZN22BLETypedCharacteristicItED1Ev>
    252c:	0020      	movs	r0, r4
    252e:	bd10      	pop	{r4, pc}
    2530:	0000b7a8 	.word	0x0000b7a8

00002534 <_ZN21BLEWordCharacteristicD0Ev>:
    2534:	b510      	push	{r4, lr}
    2536:	0004      	movs	r4, r0
    2538:	f7ff fff2 	bl	2520 <_ZN21BLEWordCharacteristicD1Ev>
    253c:	0020      	movs	r0, r4
    253e:	f002 ffad 	bl	549c <_ZdlPv>
    2542:	0020      	movs	r0, r4
    2544:	bd10      	pop	{r4, pc}
	...

00002548 <_ZN22BLETypedCharacteristicIhEC1EPKch>:

private:
  T byteSwap(T value);
};

template<typename T> BLETypedCharacteristic<T>::BLETypedCharacteristic(const char* uuid, unsigned char properties) :
    2548:	b530      	push	{r4, r5, lr}
  BLECharacteristic(uuid, properties, sizeof(T), true)
    254a:	2501      	movs	r5, #1
template<typename T> BLETypedCharacteristic<T>::BLETypedCharacteristic(const char* uuid, unsigned char properties) :
    254c:	0004      	movs	r4, r0
    254e:	b085      	sub	sp, #20
  BLECharacteristic(uuid, properties, sizeof(T), true)
    2550:	002b      	movs	r3, r5
    2552:	9500      	str	r5, [sp, #0]
    2554:	f7ff fe40 	bl	21d8 <_ZN17BLECharacteristicC1EPKchib>
    2558:	4b06      	ldr	r3, [pc, #24]	; (2574 <_ZN22BLETypedCharacteristicIhEC1EPKch+0x2c>)
    255a:	210f      	movs	r1, #15
    255c:	6023      	str	r3, [r4, #0]
    255e:	2300      	movs	r3, #0
    2560:	4469      	add	r1, sp
  writeValue(value);
}

template<typename T> int BLETypedCharacteristic<T>::writeValue(T value)
{
  return BLECharacteristic::writeValue((uint8_t*)&value, sizeof(T));
    2562:	002a      	movs	r2, r5
    2564:	0020      	movs	r0, r4
    2566:	700b      	strb	r3, [r1, #0]
    2568:	f7ff fe4f 	bl	220a <_ZN17BLECharacteristic10writeValueEPKhi>
}
    256c:	0020      	movs	r0, r4
    256e:	b005      	add	sp, #20
    2570:	bd30      	pop	{r4, r5, pc}
    2572:	46c0      	nop			; (mov r8, r8)
    2574:	0000b778 	.word	0x0000b778

00002578 <_ZN21BLEByteCharacteristicC1EPKch>:
BLEUnsignedCharCharacteristic::BLEUnsignedCharCharacteristic(const char* uuid, unsigned char properties) :
  BLETypedCharacteristic<unsigned char>(uuid, properties)
{
}

BLEByteCharacteristic::BLEByteCharacteristic(const char* uuid, unsigned char properties) :
    2578:	b510      	push	{r4, lr}
    257a:	0004      	movs	r4, r0
  BLETypedCharacteristic<byte>(uuid, properties)
    257c:	f7ff ffe4 	bl	2548 <_ZN22BLETypedCharacteristicIhEC1EPKch>
    2580:	4b01      	ldr	r3, [pc, #4]	; (2588 <_ZN21BLEByteCharacteristicC1EPKch+0x10>)
{
}
    2582:	0020      	movs	r0, r4
  BLETypedCharacteristic<byte>(uuid, properties)
    2584:	6023      	str	r3, [r4, #0]
}
    2586:	bd10      	pop	{r4, pc}
    2588:	0000b788 	.word	0x0000b788

0000258c <_ZN22BLETypedCharacteristicItEC1EPKch>:
template<typename T> BLETypedCharacteristic<T>::BLETypedCharacteristic(const char* uuid, unsigned char properties) :
    258c:	b51f      	push	{r0, r1, r2, r3, r4, lr}
  BLECharacteristic(uuid, properties, sizeof(T), true)
    258e:	2301      	movs	r3, #1
template<typename T> BLETypedCharacteristic<T>::BLETypedCharacteristic(const char* uuid, unsigned char properties) :
    2590:	0004      	movs	r4, r0
  BLECharacteristic(uuid, properties, sizeof(T), true)
    2592:	9300      	str	r3, [sp, #0]
    2594:	18db      	adds	r3, r3, r3
    2596:	f7ff fe1f 	bl	21d8 <_ZN17BLECharacteristicC1EPKchib>
    259a:	4b06      	ldr	r3, [pc, #24]	; (25b4 <_ZN22BLETypedCharacteristicItEC1EPKch+0x28>)
    259c:	210e      	movs	r1, #14
    259e:	6023      	str	r3, [r4, #0]
    25a0:	2300      	movs	r3, #0
    25a2:	4469      	add	r1, sp
  return BLECharacteristic::writeValue((uint8_t*)&value, sizeof(T));
    25a4:	2202      	movs	r2, #2
    25a6:	0020      	movs	r0, r4
    25a8:	800b      	strh	r3, [r1, #0]
    25aa:	f7ff fe2e 	bl	220a <_ZN17BLECharacteristic10writeValueEPKhi>
}
    25ae:	0020      	movs	r0, r4
    25b0:	b004      	add	sp, #16
    25b2:	bd10      	pop	{r4, pc}
    25b4:	0000b798 	.word	0x0000b798

000025b8 <_ZN21BLEWordCharacteristicC1EPKch>:
BLEUnsignedShortCharacteristic::BLEUnsignedShortCharacteristic(const char* uuid, unsigned char properties) :
  BLETypedCharacteristic<unsigned short>(uuid, properties)
{
}

BLEWordCharacteristic::BLEWordCharacteristic(const char* uuid, unsigned char properties) :
    25b8:	b510      	push	{r4, lr}
    25ba:	0004      	movs	r4, r0
  BLETypedCharacteristic<word>(uuid, properties)
    25bc:	f7ff ffe6 	bl	258c <_ZN22BLETypedCharacteristicItEC1EPKch>
    25c0:	4b01      	ldr	r3, [pc, #4]	; (25c8 <_ZN21BLEWordCharacteristicC1EPKch+0x10>)
{
}
    25c2:	0020      	movs	r0, r4
  BLETypedCharacteristic<word>(uuid, properties)
    25c4:	6023      	str	r3, [r4, #0]
}
    25c6:	bd10      	pop	{r4, pc}
    25c8:	0000b7a8 	.word	0x0000b7a8

000025cc <_ZN7BLEUuidC1EPKc>:
#include <stdlib.h>
#include <string.h>

#include "BLEUuid.h"

BLEUuid::BLEUuid(const char * str) :
    25cc:	b5f0      	push	{r4, r5, r6, r7, lr}
  _str(str)
{
  char temp[] = {0, 0, 0};
    25ce:	2500      	movs	r5, #0
BLEUuid::BLEUuid(const char * str) :
    25d0:	0004      	movs	r4, r0
    25d2:	000f      	movs	r7, r1
    25d4:	b085      	sub	sp, #20
  char temp[] = {0, 0, 0};
    25d6:	ae03      	add	r6, sp, #12
  _str(str)
    25d8:	c002      	stmia	r0!, {r1}

  memset(_data, 0x00, sizeof(_data));
    25da:	2210      	movs	r2, #16
    25dc:	0029      	movs	r1, r5
  char temp[] = {0, 0, 0};
    25de:	7035      	strb	r5, [r6, #0]
    25e0:	7075      	strb	r5, [r6, #1]
    25e2:	70b5      	strb	r5, [r6, #2]
  memset(_data, 0x00, sizeof(_data));
    25e4:	f006 fefe 	bl	93e4 <memset>

  _length = 0;
    25e8:	7525      	strb	r5, [r4, #20]
  for (int i = strlen(str) - 1; i >= 0 && _length < BLE_UUID_MAX_LENGTH; i -= 2) {
    25ea:	0038      	movs	r0, r7
    25ec:	f007 fc60 	bl	9eb0 <strlen>
    25f0:	1e45      	subs	r5, r0, #1
    25f2:	7d23      	ldrb	r3, [r4, #20]
    25f4:	9301      	str	r3, [sp, #4]
    25f6:	2d00      	cmp	r5, #0
    25f8:	db18      	blt.n	262c <_ZN7BLEUuidC1EPKc+0x60>
    25fa:	2b0f      	cmp	r3, #15
    25fc:	dc16      	bgt.n	262c <_ZN7BLEUuidC1EPKc+0x60>
    if (str[i] == '-') {
    25fe:	5d7a      	ldrb	r2, [r7, r5]
    2600:	2a2d      	cmp	r2, #45	; 0x2d
    2602:	d102      	bne.n	260a <_ZN7BLEUuidC1EPKc+0x3e>
      i++;
    2604:	3501      	adds	r5, #1
  for (int i = strlen(str) - 1; i >= 0 && _length < BLE_UUID_MAX_LENGTH; i -= 2) {
    2606:	3d02      	subs	r5, #2
    2608:	e7f3      	b.n	25f2 <_ZN7BLEUuidC1EPKc+0x26>
      continue;
    }

    temp[0] = str[i - 1];
    260a:	197b      	adds	r3, r7, r5
    260c:	3b01      	subs	r3, #1
    260e:	781b      	ldrb	r3, [r3, #0]
    temp[1] = str[i];
    2610:	7072      	strb	r2, [r6, #1]

    _data[_length] = strtoul(temp, NULL, 16);
    2612:	2100      	movs	r1, #0
    2614:	2210      	movs	r2, #16
    2616:	0030      	movs	r0, r6
    temp[0] = str[i - 1];
    2618:	7033      	strb	r3, [r6, #0]
    _data[_length] = strtoul(temp, NULL, 16);
    261a:	f007 fcd7 	bl	9fcc <strtoul>
    261e:	9b01      	ldr	r3, [sp, #4]
    2620:	18e3      	adds	r3, r4, r3
    2622:	7118      	strb	r0, [r3, #4]

    _length++;
    2624:	7d23      	ldrb	r3, [r4, #20]
    2626:	3301      	adds	r3, #1
    2628:	7523      	strb	r3, [r4, #20]
    262a:	e7ec      	b.n	2606 <_ZN7BLEUuidC1EPKc+0x3a>
  }

  if (_length <= 2) {
    262c:	9b01      	ldr	r3, [sp, #4]
    262e:	2b02      	cmp	r3, #2
    2630:	dc04      	bgt.n	263c <_ZN7BLEUuidC1EPKc+0x70>
    _length = 2;
    2632:	2302      	movs	r3, #2
  } else {
    _length = 16;
  }
}
    2634:	0020      	movs	r0, r4
    _length = 16;
    2636:	7523      	strb	r3, [r4, #20]
}
    2638:	b005      	add	sp, #20
    263a:	bdf0      	pop	{r4, r5, r6, r7, pc}
    _length = 16;
    263c:	2310      	movs	r3, #16
    263e:	e7f9      	b.n	2634 <_ZN7BLEUuidC1EPKc+0x68>

00002640 <_ZNK7BLEUuid3strEv>:

const char* BLEUuid::str() const
{
  return _str;
    2640:	6800      	ldr	r0, [r0, #0]
}
    2642:	4770      	bx	lr

00002644 <_ZNK7BLEUuid4dataEv>:

const uint8_t* BLEUuid::data() const
{
  return _data;
    2644:	3004      	adds	r0, #4
}
    2646:	4770      	bx	lr

00002648 <_ZNK7BLEUuid6lengthEv>:

uint8_t BLEUuid::length() const
{
  return _length;
    2648:	7d00      	ldrb	r0, [r0, #20]
}
    264a:	4770      	bx	lr

0000264c <_ZNK22BLELocalCharacteristic4typeEv>:
}

enum BLEAttributeType BLELocalCharacteristic::type() const
{
  return BLETypeCharacteristic;
}
    264c:	4800      	ldr	r0, [pc, #0]	; (2650 <_ZNK22BLELocalCharacteristic4typeEv+0x4>)
    264e:	4770      	bx	lr
    2650:	00002803 	.word	0x00002803

00002654 <_ZNK22BLELocalCharacteristic10propertiesEv>:

uint8_t BLELocalCharacteristic::properties() const
{
  return _properties;
    2654:	3001      	adds	r0, #1
    2656:	7fc0      	ldrb	r0, [r0, #31]
}
    2658:	4770      	bx	lr

0000265a <_ZNK22BLELocalCharacteristic9valueSizeEv>:

int BLELocalCharacteristic::valueSize() const
{
  return _valueSize;
    265a:	6a40      	ldr	r0, [r0, #36]	; 0x24
}
    265c:	4770      	bx	lr

0000265e <_ZNK22BLELocalCharacteristic5valueEv>:

const uint8_t* BLELocalCharacteristic::value() const
{
  return _value;
    265e:	6a80      	ldr	r0, [r0, #40]	; 0x28
}
    2660:	4770      	bx	lr

00002662 <_ZNK22BLELocalCharacteristic11valueLengthEv>:

int BLELocalCharacteristic::valueLength() const
{
  return _valueLength;
    2662:	8d80      	ldrh	r0, [r0, #44]	; 0x2c
}
    2664:	4770      	bx	lr
	...

00002668 <_ZN22BLELocalCharacteristic10writeValueEPKhi>:
  return _value[offset];
}

int BLELocalCharacteristic::writeValue(const uint8_t value[], int length)
{
  _valueLength = min(length, _valueSize);
    2668:	6a43      	ldr	r3, [r0, #36]	; 0x24
{
    266a:	b570      	push	{r4, r5, r6, lr}
    266c:	0015      	movs	r5, r2
    266e:	0004      	movs	r4, r0
    2670:	000e      	movs	r6, r1
  _valueLength = min(length, _valueSize);
    2672:	b292      	uxth	r2, r2
    2674:	42ab      	cmp	r3, r5
    2676:	dc00      	bgt.n	267a <_ZN22BLELocalCharacteristic10writeValueEPKhi+0x12>
    2678:	b29a      	uxth	r2, r3
    267a:	85a2      	strh	r2, [r4, #44]	; 0x2c
  memcpy(_value, value, _valueLength);
    267c:	0031      	movs	r1, r6
    267e:	6aa0      	ldr	r0, [r4, #40]	; 0x28
    2680:	f006 fe95 	bl	93ae <memcpy>

  if (_fixedLength) {
    2684:	0023      	movs	r3, r4
    2686:	332e      	adds	r3, #46	; 0x2e
    2688:	781b      	ldrb	r3, [r3, #0]
    268a:	2b00      	cmp	r3, #0
    268c:	d001      	beq.n	2692 <_ZN22BLELocalCharacteristic10writeValueEPKhi+0x2a>
    _valueLength = _valueSize;
    268e:	8ca3      	ldrh	r3, [r4, #36]	; 0x24
    2690:	85a3      	strh	r3, [r4, #44]	; 0x2c
  }

  if ((_properties & BLEIndicate) && (_cccdValue & 0x0002)) {
    2692:	1c63      	adds	r3, r4, #1
    2694:	7fdb      	ldrb	r3, [r3, #31]
    2696:	069a      	lsls	r2, r3, #26
    2698:	d50b      	bpl.n	26b2 <_ZN22BLELocalCharacteristic10writeValueEPKhi+0x4a>
    269a:	8ea2      	ldrh	r2, [r4, #52]	; 0x34
    269c:	0792      	lsls	r2, r2, #30
    269e:	d508      	bpl.n	26b2 <_ZN22BLELocalCharacteristic10writeValueEPKhi+0x4a>
  return _handle;
}

uint16_t BLELocalCharacteristic::valueHandle() const
{
  return (_handle + 1);
    26a0:	8e21      	ldrh	r1, [r4, #48]	; 0x30
    return ATT.handleInd(valueHandle(), _value, _valueLength);
    26a2:	8da3      	ldrh	r3, [r4, #44]	; 0x2c
  return (_handle + 1);
    26a4:	3101      	adds	r1, #1
    return ATT.handleInd(valueHandle(), _value, _valueLength);
    26a6:	b289      	uxth	r1, r1
    26a8:	6aa2      	ldr	r2, [r4, #40]	; 0x28
    26aa:	4819      	ldr	r0, [pc, #100]	; (2710 <_ZN22BLELocalCharacteristic10writeValueEPKhi+0xa8>)
    26ac:	f000 fce6 	bl	307c <_ZN8ATTClass9handleIndEtPKhi>
}
    26b0:	bd70      	pop	{r4, r5, r6, pc}
  } else if ((_properties & BLENotify) && (_cccdValue & 0x0001)) {
    26b2:	06db      	lsls	r3, r3, #27
    26b4:	d50b      	bpl.n	26ce <_ZN22BLELocalCharacteristic10writeValueEPKhi+0x66>
    26b6:	8ea3      	ldrh	r3, [r4, #52]	; 0x34
    26b8:	07db      	lsls	r3, r3, #31
    26ba:	d508      	bpl.n	26ce <_ZN22BLELocalCharacteristic10writeValueEPKhi+0x66>
  return (_handle + 1);
    26bc:	8e21      	ldrh	r1, [r4, #48]	; 0x30
    return ATT.handleNotify(valueHandle(), _value, _valueLength);
    26be:	8da3      	ldrh	r3, [r4, #44]	; 0x2c
  return (_handle + 1);
    26c0:	3101      	adds	r1, #1
    return ATT.handleNotify(valueHandle(), _value, _valueLength);
    26c2:	b289      	uxth	r1, r1
    26c4:	6aa2      	ldr	r2, [r4, #40]	; 0x28
    26c6:	4812      	ldr	r0, [pc, #72]	; (2710 <_ZN22BLELocalCharacteristic10writeValueEPKhi+0xa8>)
    26c8:	f000 fc9c 	bl	3004 <_ZN8ATTClass12handleNotifyEtPKhi>
    26cc:	e7f0      	b.n	26b0 <_ZN22BLELocalCharacteristic10writeValueEPKhi+0x48>
  if (_broadcast) {
    26ce:	0023      	movs	r3, r4
    26d0:	3332      	adds	r3, #50	; 0x32
    26d2:	781b      	ldrb	r3, [r3, #0]
    26d4:	2b00      	cmp	r3, #0
    26d6:	d101      	bne.n	26dc <_ZN22BLELocalCharacteristic10writeValueEPKhi+0x74>
  return 1;
    26d8:	2001      	movs	r0, #1
    26da:	e7e9      	b.n	26b0 <_ZN22BLELocalCharacteristic10writeValueEPKhi+0x48>
    uint16_t serviceUuid = GATT.serviceUuidForCharacteristic(this);
    26dc:	0021      	movs	r1, r4
    26de:	480d      	ldr	r0, [pc, #52]	; (2714 <_ZN22BLELocalCharacteristic10writeValueEPKhi+0xac>)
    26e0:	f001 fd08 	bl	40f4 <_ZNK9GATTClass28serviceUuidForCharacteristicEP22BLELocalCharacteristic>
    GAP.setAdvertisedServiceData(serviceUuid, value, length);
    26e4:	4c0c      	ldr	r4, [pc, #48]	; (2718 <_ZN22BLELocalCharacteristic10writeValueEPKhi+0xb0>)
    uint16_t serviceUuid = GATT.serviceUuidForCharacteristic(this);
    26e6:	0001      	movs	r1, r0
    GAP.setAdvertisedServiceData(serviceUuid, value, length);
    26e8:	002b      	movs	r3, r5
    26ea:	0020      	movs	r0, r4
    26ec:	0032      	movs	r2, r6
    26ee:	f001 fc5f 	bl	3fb0 <_ZN8GAPClass24setAdvertisedServiceDataEtPKhi>
    if (!ATT.connected() && GAP.advertising()) {
    26f2:	4807      	ldr	r0, [pc, #28]	; (2710 <_ZN22BLELocalCharacteristic10writeValueEPKhi+0xa8>)
    26f4:	f000 fc3e 	bl	2f74 <_ZNK8ATTClass9connectedEv>
    26f8:	2800      	cmp	r0, #0
    26fa:	d1ed      	bne.n	26d8 <_ZN22BLELocalCharacteristic10writeValueEPKhi+0x70>
    26fc:	0020      	movs	r0, r4
    26fe:	f001 fba5 	bl	3e4c <_ZN8GAPClass11advertisingEv>
    2702:	2800      	cmp	r0, #0
    2704:	d0e8      	beq.n	26d8 <_ZN22BLELocalCharacteristic10writeValueEPKhi+0x70>
      GAP.advertise();
    2706:	0020      	movs	r0, r4
    2708:	f001 fba2 	bl	3e50 <_ZN8GAPClass9advertiseEv>
    270c:	e7e4      	b.n	26d8 <_ZN22BLELocalCharacteristic10writeValueEPKhi+0x70>
    270e:	46c0      	nop			; (mov r8, r8)
    2710:	200002d8 	.word	0x200002d8
    2714:	20000324 	.word	0x20000324
    2718:	200002fc 	.word	0x200002fc

0000271c <_ZN22BLELocalCharacteristic10writeValueEPKc>:
{
    271c:	b570      	push	{r4, r5, r6, lr}
    271e:	0005      	movs	r5, r0
  return writeValue((uint8_t*)value, strlen(value));
    2720:	0008      	movs	r0, r1
{
    2722:	000c      	movs	r4, r1
  return writeValue((uint8_t*)value, strlen(value));
    2724:	f007 fbc4 	bl	9eb0 <strlen>
    2728:	0021      	movs	r1, r4
    272a:	0002      	movs	r2, r0
    272c:	0028      	movs	r0, r5
    272e:	f7ff ff9b 	bl	2668 <_ZN22BLELocalCharacteristic10writeValueEPKhi>
}
    2732:	bd70      	pop	{r4, r5, r6, pc}

00002734 <_ZN22BLELocalCharacteristic9setHandleEt>:
  _handle = handle;
    2734:	8601      	strh	r1, [r0, #48]	; 0x30
}
    2736:	4770      	bx	lr

00002738 <_ZNK22BLELocalCharacteristic6handleEv>:
  return _handle;
    2738:	8e00      	ldrh	r0, [r0, #48]	; 0x30
}
    273a:	4770      	bx	lr

0000273c <_ZNK22BLELocalCharacteristic11valueHandleEv>:
  return (_handle + 1);
    273c:	8e00      	ldrh	r0, [r0, #48]	; 0x30
    273e:	3001      	adds	r0, #1
    2740:	b280      	uxth	r0, r0
}
    2742:	4770      	bx	lr

00002744 <_ZNK22BLELocalCharacteristic15descriptorCountEv>:

unsigned int BLELocalCharacteristic::descriptorCount() const
{
  return _descriptors.size();
    2744:	6b80      	ldr	r0, [r0, #56]	; 0x38
}
    2746:	4770      	bx	lr

00002748 <_ZNK22BLELocalCharacteristic10descriptorEj>:
  _size++;
}

template <typename T> T BLELinkedList<T>::get(unsigned int index) const
{
  if (index >= _size) {
    2748:	6b82      	ldr	r2, [r0, #56]	; 0x38
    return T();
    274a:	2300      	movs	r3, #0
  if (index >= _size) {
    274c:	4291      	cmp	r1, r2
    274e:	d207      	bcs.n	2760 <_ZNK22BLELocalCharacteristic10descriptorEj+0x18>
  }

  BLELinkedListNode<T>* itemNode = _root;

  for (unsigned int i = 0; i < index; i++) {
    2750:	2200      	movs	r2, #0
  BLELinkedListNode<T>* itemNode = _root;
    2752:	6bc3      	ldr	r3, [r0, #60]	; 0x3c
  for (unsigned int i = 0; i < index; i++) {
    2754:	4291      	cmp	r1, r2
    2756:	d002      	beq.n	275e <_ZNK22BLELocalCharacteristic10descriptorEj+0x16>
    itemNode = itemNode->next;
    2758:	685b      	ldr	r3, [r3, #4]
  for (unsigned int i = 0; i < index; i++) {
    275a:	3201      	adds	r2, #1
    275c:	e7fa      	b.n	2754 <_ZNK22BLELocalCharacteristic10descriptorEj+0xc>
  }

  return itemNode->data;
    275e:	681b      	ldr	r3, [r3, #0]

BLELocalDescriptor* BLELocalCharacteristic::descriptor(unsigned int index) const
{
  return _descriptors.get(index);
}
    2760:	0018      	movs	r0, r3
    2762:	4770      	bx	lr

00002764 <_ZN13BLELinkedListIP18BLELocalDescriptorE3addES1_>:
template <typename T> void BLELinkedList<T>::add(T item)
    2764:	b570      	push	{r4, r5, r6, lr}
    2766:	0004      	movs	r4, r0
  BLELinkedListNode<T>* itemNode = new BLELinkedListNode<T>();
    2768:	2008      	movs	r0, #8
template <typename T> void BLELinkedList<T>::add(T item)
    276a:	000d      	movs	r5, r1
  BLELinkedListNode<T>* itemNode = new BLELinkedListNode<T>();
    276c:	f002 fe92 	bl	5494 <_Znwj>
    2770:	2300      	movs	r3, #0
    2772:	6043      	str	r3, [r0, #4]
  if (_root == NULL) {
    2774:	6863      	ldr	r3, [r4, #4]
  itemNode->data = item;
    2776:	6005      	str	r5, [r0, #0]
  if (_root == NULL) {
    2778:	2b00      	cmp	r3, #0
    277a:	d105      	bne.n	2788 <_ZN13BLELinkedListIP18BLELocalDescriptorE3addES1_+0x24>
    _root = itemNode;
    277c:	6060      	str	r0, [r4, #4]
  _size++;
    277e:	6823      	ldr	r3, [r4, #0]
  _last = itemNode;
    2780:	60a0      	str	r0, [r4, #8]
  _size++;
    2782:	3301      	adds	r3, #1
    2784:	6023      	str	r3, [r4, #0]
}
    2786:	bd70      	pop	{r4, r5, r6, pc}
    _last->next = itemNode;
    2788:	68a3      	ldr	r3, [r4, #8]
    278a:	6058      	str	r0, [r3, #4]
    278c:	e7f7      	b.n	277e <_ZN13BLELinkedListIP18BLELocalDescriptorE3addES1_+0x1a>
	...

00002790 <_ZN22BLELocalCharacteristicC1EPKchib>:
BLELocalCharacteristic::BLELocalCharacteristic(const char* uuid, uint8_t properties, int valueSize, bool fixedLength) :
    2790:	b5f8      	push	{r3, r4, r5, r6, r7, lr}
    2792:	0004      	movs	r4, r0
    2794:	001d      	movs	r5, r3
    2796:	ab06      	add	r3, sp, #24
    2798:	0016      	movs	r6, r2
    279a:	781f      	ldrb	r7, [r3, #0]
  _cccdValue(0x0000)
    279c:	f7ff fcc4 	bl	2128 <_ZN12BLEAttributeC1EPKc>
  _valueSize(min(valueSize, 512)),
    27a0:	2280      	movs	r2, #128	; 0x80
  _cccdValue(0x0000)
    27a2:	4b1a      	ldr	r3, [pc, #104]	; (280c <_ZN22BLELocalCharacteristicC1EPKchib+0x7c>)
  _valueSize(min(valueSize, 512)),
    27a4:	0092      	lsls	r2, r2, #2
  _cccdValue(0x0000)
    27a6:	3308      	adds	r3, #8
    27a8:	6023      	str	r3, [r4, #0]
    27aa:	1c63      	adds	r3, r4, #1
    27ac:	77de      	strb	r6, [r3, #31]
  _valueSize(min(valueSize, 512)),
    27ae:	002b      	movs	r3, r5
    27b0:	4295      	cmp	r5, r2
    27b2:	dd00      	ble.n	27b6 <_ZN22BLELocalCharacteristicC1EPKchib+0x26>
    27b4:	0013      	movs	r3, r2
  _cccdValue(0x0000)
    27b6:	6263      	str	r3, [r4, #36]	; 0x24
    27b8:	0023      	movs	r3, r4
    27ba:	2100      	movs	r1, #0
  memset(_eventHandlers, 0x00, sizeof(_eventHandlers));
    27bc:	0020      	movs	r0, r4
  _cccdValue(0x0000)
    27be:	332e      	adds	r3, #46	; 0x2e
    27c0:	85a1      	strh	r1, [r4, #44]	; 0x2c
  memset(_eventHandlers, 0x00, sizeof(_eventHandlers));
    27c2:	2210      	movs	r2, #16
  _cccdValue(0x0000)
    27c4:	701f      	strb	r7, [r3, #0]
  memset(_eventHandlers, 0x00, sizeof(_eventHandlers));
    27c6:	3044      	adds	r0, #68	; 0x44
  _cccdValue(0x0000)
    27c8:	8621      	strh	r1, [r4, #48]	; 0x30
    27ca:	7119      	strb	r1, [r3, #4]
    27cc:	7159      	strb	r1, [r3, #5]
    27ce:	86a1      	strh	r1, [r4, #52]	; 0x34
  _last(NULL)
    27d0:	63a1      	str	r1, [r4, #56]	; 0x38
    27d2:	63e1      	str	r1, [r4, #60]	; 0x3c
    27d4:	6421      	str	r1, [r4, #64]	; 0x40
  memset(_eventHandlers, 0x00, sizeof(_eventHandlers));
    27d6:	f006 fe05 	bl	93e4 <memset>
  if (properties & (BLENotify | BLEIndicate)) {
    27da:	2330      	movs	r3, #48	; 0x30
    27dc:	421e      	tst	r6, r3
    27de:	d00e      	beq.n	27fe <_ZN22BLELocalCharacteristicC1EPKchib+0x6e>
    BLELocalDescriptor* cccd = new BLELocalDescriptor("2902", (uint8_t*)&_cccdValue, sizeof(_cccdValue));
    27e0:	202c      	movs	r0, #44	; 0x2c
    27e2:	f002 fe57 	bl	5494 <_Znwj>
    27e6:	0022      	movs	r2, r4
    27e8:	4909      	ldr	r1, [pc, #36]	; (2810 <_ZN22BLELocalCharacteristicC1EPKchib+0x80>)
    27ea:	2302      	movs	r3, #2
    27ec:	3234      	adds	r2, #52	; 0x34
    27ee:	0006      	movs	r6, r0
    27f0:	f000 f8fe 	bl	29f0 <_ZN18BLELocalDescriptorC1EPKcPKhi>
    _descriptors.add(cccd);
    27f4:	0020      	movs	r0, r4
    27f6:	0031      	movs	r1, r6
    27f8:	3038      	adds	r0, #56	; 0x38
    27fa:	f7ff ffb3 	bl	2764 <_ZN13BLELinkedListIP18BLELocalDescriptorE3addES1_>
  _value = (uint8_t*)malloc(valueSize);
    27fe:	0028      	movs	r0, r5
    2800:	f006 fda0 	bl	9344 <malloc>
    2804:	62a0      	str	r0, [r4, #40]	; 0x28
}
    2806:	0020      	movs	r0, r4
    2808:	bdf8      	pop	{r3, r4, r5, r6, r7, pc}
    280a:	46c0      	nop			; (mov r8, r8)
    280c:	0000b7b8 	.word	0x0000b7b8
    2810:	0000b7b0 	.word	0x0000b7b0

00002814 <_ZN13BLELinkedListIP18BLELocalDescriptorE5clearEv>:
}

template <typename T> void BLELinkedList<T>::clear()
    2814:	b570      	push	{r4, r5, r6, lr}
{
  BLELinkedListNode<T>* itemNode = _root;

  for (unsigned int i = 0; i < _size; i++) {
    2816:	2500      	movs	r5, #0
template <typename T> void BLELinkedList<T>::clear()
    2818:	0004      	movs	r4, r0
  BLELinkedListNode<T>* itemNode = _root;
    281a:	6840      	ldr	r0, [r0, #4]
  for (unsigned int i = 0; i < _size; i++) {
    281c:	6823      	ldr	r3, [r4, #0]
    281e:	429d      	cmp	r5, r3
    2820:	d205      	bcs.n	282e <_ZN13BLELinkedListIP18BLELocalDescriptorE5clearEv+0x1a>
    BLELinkedListNode<T>* n = itemNode;

    itemNode = itemNode->next;
    2822:	6846      	ldr	r6, [r0, #4]
  for (unsigned int i = 0; i < _size; i++) {
    2824:	3501      	adds	r5, #1

    delete n;
    2826:	f002 fe39 	bl	549c <_ZdlPv>
    itemNode = itemNode->next;
    282a:	0030      	movs	r0, r6
  for (unsigned int i = 0; i < _size; i++) {
    282c:	e7f6      	b.n	281c <_ZN13BLELinkedListIP18BLELocalDescriptorE5clearEv+0x8>
  }

  _size = 0;
    282e:	2300      	movs	r3, #0
    2830:	6023      	str	r3, [r4, #0]
  _root = NULL;
    2832:	6063      	str	r3, [r4, #4]
  _last = NULL;
    2834:	60a3      	str	r3, [r4, #8]
}
    2836:	bd70      	pop	{r4, r5, r6, pc}

00002838 <_ZN22BLELocalCharacteristicD1Ev>:
BLELocalCharacteristic::~BLELocalCharacteristic()
    2838:	b570      	push	{r4, r5, r6, lr}
    283a:	0004      	movs	r4, r0
  for (unsigned int i = 0; i < descriptorCount(); i++) {
    283c:	2500      	movs	r5, #0
BLELocalCharacteristic::~BLELocalCharacteristic()
    283e:	4b16      	ldr	r3, [pc, #88]	; (2898 <_ZN22BLELocalCharacteristicD1Ev+0x60>)
    2840:	3308      	adds	r3, #8
    2842:	6003      	str	r3, [r0, #0]
  for (unsigned int i = 0; i < descriptorCount(); i++) {
    2844:	6ba3      	ldr	r3, [r4, #56]	; 0x38
    2846:	429d      	cmp	r5, r3
    2848:	d214      	bcs.n	2874 <_ZN22BLELocalCharacteristicD1Ev+0x3c>
  for (unsigned int i = 0; i < index; i++) {
    284a:	2200      	movs	r2, #0
  BLELinkedListNode<T>* itemNode = _root;
    284c:	6be3      	ldr	r3, [r4, #60]	; 0x3c
  for (unsigned int i = 0; i < index; i++) {
    284e:	4295      	cmp	r5, r2
    2850:	d002      	beq.n	2858 <_ZN22BLELocalCharacteristicD1Ev+0x20>
    itemNode = itemNode->next;
    2852:	685b      	ldr	r3, [r3, #4]
  for (unsigned int i = 0; i < index; i++) {
    2854:	3201      	adds	r2, #1
    2856:	e7fa      	b.n	284e <_ZN22BLELocalCharacteristicD1Ev+0x16>
  return itemNode->data;
    2858:	681e      	ldr	r6, [r3, #0]
    if (d->release() <= 0) {
    285a:	0030      	movs	r0, r6
    285c:	f7ff fc86 	bl	216c <_ZN12BLEAttribute7releaseEv>
    2860:	2800      	cmp	r0, #0
    2862:	dc05      	bgt.n	2870 <_ZN22BLELocalCharacteristicD1Ev+0x38>
      delete d;
    2864:	2e00      	cmp	r6, #0
    2866:	d003      	beq.n	2870 <_ZN22BLELocalCharacteristicD1Ev+0x38>
    2868:	6833      	ldr	r3, [r6, #0]
    286a:	0030      	movs	r0, r6
    286c:	685b      	ldr	r3, [r3, #4]
    286e:	4798      	blx	r3
  for (unsigned int i = 0; i < descriptorCount(); i++) {
    2870:	3501      	adds	r5, #1
    2872:	e7e7      	b.n	2844 <_ZN22BLELocalCharacteristicD1Ev+0xc>
  _descriptors.clear();
    2874:	0025      	movs	r5, r4
    2876:	3538      	adds	r5, #56	; 0x38
    2878:	0028      	movs	r0, r5
    287a:	f7ff ffcb 	bl	2814 <_ZN13BLELinkedListIP18BLELocalDescriptorE5clearEv>
  if (_value) {
    287e:	6aa0      	ldr	r0, [r4, #40]	; 0x28
    2880:	2800      	cmp	r0, #0
    2882:	d001      	beq.n	2888 <_ZN22BLELocalCharacteristicD1Ev+0x50>
    free(_value);
    2884:	f006 fd68 	bl	9358 <free>
  clear();
    2888:	0028      	movs	r0, r5
    288a:	f7ff ffc3 	bl	2814 <_ZN13BLELinkedListIP18BLELocalDescriptorE5clearEv>
BLELocalCharacteristic::~BLELocalCharacteristic()
    288e:	0020      	movs	r0, r4
    2890:	f7ff fc40 	bl	2114 <_ZN12BLEAttributeD1Ev>
}
    2894:	0020      	movs	r0, r4
    2896:	bd70      	pop	{r4, r5, r6, pc}
    2898:	0000b7b8 	.word	0x0000b7b8

0000289c <_ZN22BLELocalCharacteristicD0Ev>:
BLELocalCharacteristic::~BLELocalCharacteristic()
    289c:	b510      	push	{r4, lr}
    289e:	0004      	movs	r4, r0
}
    28a0:	f7ff ffca 	bl	2838 <_ZN22BLELocalCharacteristicD1Ev>
    28a4:	0020      	movs	r0, r4
    28a6:	f002 fdf9 	bl	549c <_ZdlPv>
    28aa:	0020      	movs	r0, r4
    28ac:	bd10      	pop	{r4, pc}
	...

000028b0 <_ZN22BLELocalCharacteristic9readValueE9BLEDevicetPhi>:

void BLELocalCharacteristic::readValue(BLEDevice device, uint16_t offset, uint8_t value[], int length)
{
    28b0:	b5f0      	push	{r4, r5, r6, r7, lr}
  if (_eventHandlers[BLERead]) {
    28b2:	6cc6      	ldr	r6, [r0, #76]	; 0x4c
{
    28b4:	b089      	sub	sp, #36	; 0x24
    28b6:	0004      	movs	r4, r0
    28b8:	0017      	movs	r7, r2
    28ba:	9301      	str	r3, [sp, #4]
  if (_eventHandlers[BLERead]) {
    28bc:	2e00      	cmp	r6, #0
    28be:	d018      	beq.n	28f2 <_ZN22BLELocalCharacteristic9readValueE9BLEDevicetPhi+0x42>

class BLEDevice;

typedef void (*BLEDeviceEventHandler)(BLEDevice device);

class BLEDevice {
    28c0:	2012      	movs	r0, #18
    28c2:	4b10      	ldr	r3, [pc, #64]	; (2904 <_ZN22BLELocalCharacteristic9readValueE9BLEDevicetPhi+0x54>)
    28c4:	ad05      	add	r5, sp, #20
    28c6:	9305      	str	r3, [sp, #20]
    28c8:	888b      	ldrh	r3, [r1, #4]
    28ca:	2206      	movs	r2, #6
    28cc:	80ab      	strh	r3, [r5, #4]
    28ce:	ab02      	add	r3, sp, #8
    28d0:	18c0      	adds	r0, r0, r3
    28d2:	3106      	adds	r1, #6
    28d4:	f006 fd6b 	bl	93ae <memcpy>
    _eventHandlers[BLERead](device, BLECharacteristic(this));
    28d8:	0021      	movs	r1, r4
    28da:	a803      	add	r0, sp, #12
    28dc:	f7ff fc6c 	bl	21b8 <_ZN17BLECharacteristicC1EP22BLELocalCharacteristic>
    28e0:	a903      	add	r1, sp, #12
    28e2:	0028      	movs	r0, r5
    28e4:	47b0      	blx	r6
    28e6:	a803      	add	r0, sp, #12
    28e8:	f7ff fc46 	bl	2178 <_ZN17BLECharacteristicD1Ev>
    28ec:	0028      	movs	r0, r5
    28ee:	f7ff fc9c 	bl	222a <_ZN9BLEDeviceD1Ev>
  }

  memcpy(value, _value + offset, length);
    28f2:	6aa1      	ldr	r1, [r4, #40]	; 0x28
    28f4:	9a0e      	ldr	r2, [sp, #56]	; 0x38
    28f6:	19c9      	adds	r1, r1, r7
    28f8:	9801      	ldr	r0, [sp, #4]
    28fa:	f006 fd58 	bl	93ae <memcpy>
}
    28fe:	b009      	add	sp, #36	; 0x24
    2900:	bdf0      	pop	{r4, r5, r6, r7, pc}
    2902:	46c0      	nop			; (mov r8, r8)
    2904:	0000b724 	.word	0x0000b724

00002908 <_ZN22BLELocalCharacteristic10writeValueE9BLEDevicePKhi>:

void BLELocalCharacteristic::writeValue(BLEDevice device, const uint8_t value[], int length)
{
    2908:	b5f0      	push	{r4, r5, r6, r7, lr}
    290a:	000d      	movs	r5, r1
    290c:	0011      	movs	r1, r2
  _written = true;
    290e:	0002      	movs	r2, r0
{
    2910:	0004      	movs	r4, r0
  _written = true;
    2912:	2001      	movs	r0, #1
    2914:	3233      	adds	r2, #51	; 0x33
    2916:	7010      	strb	r0, [r2, #0]
{
    2918:	b087      	sub	sp, #28

  writeValue(value, length);
    291a:	001a      	movs	r2, r3
    291c:	0020      	movs	r0, r4
    291e:	f7ff fea3 	bl	2668 <_ZN22BLELocalCharacteristic10writeValueEPKhi>

  if (_eventHandlers[BLEWritten]) {
    2922:	6d27      	ldr	r7, [r4, #80]	; 0x50
    2924:	2f00      	cmp	r7, #0
    2926:	d017      	beq.n	2958 <_ZN22BLELocalCharacteristic10writeValueE9BLEDevicePKhi+0x50>
    2928:	2012      	movs	r0, #18
    292a:	4b0c      	ldr	r3, [pc, #48]	; (295c <_ZN22BLELocalCharacteristic10writeValueE9BLEDevicePKhi+0x54>)
    292c:	2206      	movs	r2, #6
    292e:	9303      	str	r3, [sp, #12]
    2930:	88ab      	ldrh	r3, [r5, #4]
    2932:	ae03      	add	r6, sp, #12
    2934:	1da9      	adds	r1, r5, #6
    2936:	4468      	add	r0, sp
    2938:	80b3      	strh	r3, [r6, #4]
    293a:	f006 fd38 	bl	93ae <memcpy>
    _eventHandlers[BLEWritten](device, BLECharacteristic(this));
    293e:	0021      	movs	r1, r4
    2940:	a801      	add	r0, sp, #4
    2942:	f7ff fc39 	bl	21b8 <_ZN17BLECharacteristicC1EP22BLELocalCharacteristic>
    2946:	a901      	add	r1, sp, #4
    2948:	0030      	movs	r0, r6
    294a:	47b8      	blx	r7
    294c:	a801      	add	r0, sp, #4
    294e:	f7ff fc13 	bl	2178 <_ZN17BLECharacteristicD1Ev>
    2952:	0030      	movs	r0, r6
    2954:	f7ff fc69 	bl	222a <_ZN9BLEDeviceD1Ev>
  }
}
    2958:	b007      	add	sp, #28
    295a:	bdf0      	pop	{r4, r5, r6, r7, pc}
    295c:	0000b724 	.word	0x0000b724

00002960 <_ZN22BLELocalCharacteristic14writeCccdValueE9BLEDevicet>:

void BLELocalCharacteristic::writeCccdValue(BLEDevice device, uint16_t value)
{
  value &= 0x0003;
    2960:	2303      	movs	r3, #3
{
    2962:	b570      	push	{r4, r5, r6, lr}
  value &= 0x0003;
    2964:	401a      	ands	r2, r3

  if (_cccdValue != value) {
    2966:	8e83      	ldrh	r3, [r0, #52]	; 0x34
{
    2968:	b086      	sub	sp, #24
    296a:	0004      	movs	r4, r0
  if (_cccdValue != value) {
    296c:	4293      	cmp	r3, r2
    296e:	d020      	beq.n	29b2 <_ZN22BLELocalCharacteristic14writeCccdValueE9BLEDevicet+0x52>
    _cccdValue = value;
    2970:	8682      	strh	r2, [r0, #52]	; 0x34

    BLECharacteristicEvent event = (_cccdValue) ? BLESubscribed : BLEUnsubscribed;
    2972:	4253      	negs	r3, r2
    2974:	415a      	adcs	r2, r3

    if (_eventHandlers[event]) {
    2976:	3210      	adds	r2, #16
    2978:	0092      	lsls	r2, r2, #2
    297a:	1882      	adds	r2, r0, r2
    297c:	6856      	ldr	r6, [r2, #4]
    297e:	2e00      	cmp	r6, #0
    2980:	d017      	beq.n	29b2 <_ZN22BLELocalCharacteristic14writeCccdValueE9BLEDevicet+0x52>
    2982:	2012      	movs	r0, #18
    2984:	4b0c      	ldr	r3, [pc, #48]	; (29b8 <_ZN22BLELocalCharacteristic14writeCccdValueE9BLEDevicet+0x58>)
    2986:	2206      	movs	r2, #6
    2988:	9303      	str	r3, [sp, #12]
    298a:	888b      	ldrh	r3, [r1, #4]
    298c:	ad03      	add	r5, sp, #12
    298e:	3106      	adds	r1, #6
    2990:	4468      	add	r0, sp
    2992:	80ab      	strh	r3, [r5, #4]
    2994:	f006 fd0b 	bl	93ae <memcpy>
      _eventHandlers[event](device, BLECharacteristic(this));
    2998:	0021      	movs	r1, r4
    299a:	a801      	add	r0, sp, #4
    299c:	f7ff fc0c 	bl	21b8 <_ZN17BLECharacteristicC1EP22BLELocalCharacteristic>
    29a0:	a901      	add	r1, sp, #4
    29a2:	0028      	movs	r0, r5
    29a4:	47b0      	blx	r6
    29a6:	a801      	add	r0, sp, #4
    29a8:	f7ff fbe6 	bl	2178 <_ZN17BLECharacteristicD1Ev>
    29ac:	0028      	movs	r0, r5
    29ae:	f7ff fc3c 	bl	222a <_ZN9BLEDeviceD1Ev>
    }
  }
}
    29b2:	b006      	add	sp, #24
    29b4:	bd70      	pop	{r4, r5, r6, pc}
    29b6:	46c0      	nop			; (mov r8, r8)
    29b8:	0000b724 	.word	0x0000b724

000029bc <_ZNK18BLELocalDescriptor4typeEv>:
}

enum BLEAttributeType BLELocalDescriptor::type() const
{
  return BLETypeDescriptor;
}
    29bc:	20a4      	movs	r0, #164	; 0xa4
    29be:	0180      	lsls	r0, r0, #6
    29c0:	4770      	bx	lr
	...

000029c4 <_ZN18BLELocalDescriptorD1Ev>:
BLELocalDescriptor::~BLELocalDescriptor()
    29c4:	b510      	push	{r4, lr}
    29c6:	0004      	movs	r4, r0
    29c8:	4b03      	ldr	r3, [pc, #12]	; (29d8 <_ZN18BLELocalDescriptorD1Ev+0x14>)
    29ca:	3308      	adds	r3, #8
    29cc:	6003      	str	r3, [r0, #0]
    29ce:	f7ff fba1 	bl	2114 <_ZN12BLEAttributeD1Ev>
}
    29d2:	0020      	movs	r0, r4
    29d4:	bd10      	pop	{r4, pc}
    29d6:	46c0      	nop			; (mov r8, r8)
    29d8:	0000b7cc 	.word	0x0000b7cc

000029dc <_ZN18BLELocalDescriptorD0Ev>:
BLELocalDescriptor::~BLELocalDescriptor()
    29dc:	b510      	push	{r4, lr}
    29de:	0004      	movs	r4, r0
}
    29e0:	f7ff fff0 	bl	29c4 <_ZN18BLELocalDescriptorD1Ev>
    29e4:	0020      	movs	r0, r4
    29e6:	f002 fd59 	bl	549c <_ZdlPv>
    29ea:	0020      	movs	r0, r4
    29ec:	bd10      	pop	{r4, pc}
	...

000029f0 <_ZN18BLELocalDescriptorC1EPKcPKhi>:
BLELocalDescriptor::BLELocalDescriptor(const char* uuid, const uint8_t value[], int valueSize) :
    29f0:	b570      	push	{r4, r5, r6, lr}
    29f2:	0004      	movs	r4, r0
    29f4:	0016      	movs	r6, r2
    29f6:	001d      	movs	r5, r3
  _handle(0x0000)
    29f8:	f7ff fb96 	bl	2128 <_ZN12BLEAttributeC1EPKc>
  _valueSize(min(valueSize, 512)),
    29fc:	2280      	movs	r2, #128	; 0x80
  _handle(0x0000)
    29fe:	4b06      	ldr	r3, [pc, #24]	; (2a18 <_ZN18BLELocalDescriptorC1EPKcPKhi+0x28>)
    2a00:	6226      	str	r6, [r4, #32]
    2a02:	3308      	adds	r3, #8
    2a04:	6023      	str	r3, [r4, #0]
  _valueSize(min(valueSize, 512)),
    2a06:	0092      	lsls	r2, r2, #2
    2a08:	4295      	cmp	r5, r2
    2a0a:	dd00      	ble.n	2a0e <_ZN18BLELocalDescriptorC1EPKcPKhi+0x1e>
    2a0c:	0015      	movs	r5, r2
  _handle(0x0000)
    2a0e:	2300      	movs	r3, #0
    2a10:	6265      	str	r5, [r4, #36]	; 0x24
}
    2a12:	0020      	movs	r0, r4
  _handle(0x0000)
    2a14:	8523      	strh	r3, [r4, #40]	; 0x28
}
    2a16:	bd70      	pop	{r4, r5, r6, pc}
    2a18:	0000b7cc 	.word	0x0000b7cc

00002a1c <_ZNK18BLELocalDescriptor9valueSizeEv>:

int BLELocalDescriptor::valueSize() const
{
  return _valueSize;
    2a1c:	6a40      	ldr	r0, [r0, #36]	; 0x24
}
    2a1e:	4770      	bx	lr

00002a20 <_ZNK18BLELocalDescriptor5valueEv>:

const uint8_t* BLELocalDescriptor::value() const
{
  return _value;
    2a20:	6a00      	ldr	r0, [r0, #32]
}
    2a22:	4770      	bx	lr

00002a24 <_ZN18BLELocalDescriptor9setHandleEt>:
  return _value[offset];
}

void BLELocalDescriptor::setHandle(uint16_t handle)
{
  _handle = handle;
    2a24:	8501      	strh	r1, [r0, #40]	; 0x28
}
    2a26:	4770      	bx	lr

00002a28 <_ZNK14BLELocalDevicecvbEv>:
}

BLELocalDevice::operator bool() const
{
  return true;
}
    2a28:	2001      	movs	r0, #1
    2a2a:	4770      	bx	lr

00002a2c <_ZNK14BLELocalDeviceeqERK9BLEDevice>:

bool BLELocalDevice::operator==(const BLEDevice& rhs) const
{
  return (this == &rhs);
    2a2c:	1a40      	subs	r0, r0, r1
    2a2e:	4241      	negs	r1, r0
    2a30:	4148      	adcs	r0, r1
    2a32:	b2c0      	uxtb	r0, r0
}
    2a34:	4770      	bx	lr

00002a36 <_ZNK14BLELocalDeviceneERK9BLEDevice>:

bool BLELocalDevice::operator!=(const BLEDevice& rhs) const
{
  return (this != &rhs);
    2a36:	1a40      	subs	r0, r0, r1
    2a38:	1e41      	subs	r1, r0, #1
    2a3a:	4188      	sbcs	r0, r1
    2a3c:	b2c0      	uxtb	r0, r0
}
    2a3e:	4770      	bx	lr

00002a40 <_ZN14BLELocalDeviceD1Ev>:
BLELocalDevice::~BLELocalDevice()
    2a40:	b510      	push	{r4, lr}
    2a42:	0004      	movs	r4, r0
    2a44:	4b03      	ldr	r3, [pc, #12]	; (2a54 <_ZN14BLELocalDeviceD1Ev+0x14>)
    2a46:	3308      	adds	r3, #8
    2a48:	6003      	str	r3, [r0, #0]
    2a4a:	f7ff fbee 	bl	222a <_ZN9BLEDeviceD1Ev>
}
    2a4e:	0020      	movs	r0, r4
    2a50:	bd10      	pop	{r4, pc}
    2a52:	46c0      	nop			; (mov r8, r8)
    2a54:	0000b7e0 	.word	0x0000b7e0

00002a58 <_ZN14BLELocalDeviceD0Ev>:
BLELocalDevice::~BLELocalDevice()
    2a58:	b510      	push	{r4, lr}
    2a5a:	0004      	movs	r4, r0
}
    2a5c:	f7ff fff0 	bl	2a40 <_ZN14BLELocalDeviceD1Ev>
    2a60:	0020      	movs	r0, r4
    2a62:	f002 fd1b 	bl	549c <_ZdlPv>
    2a66:	0020      	movs	r0, r4
    2a68:	bd10      	pop	{r4, pc}
	...

00002a6c <_ZNK14BLELocalDevice9connectedEv>:
{
    2a6c:	b510      	push	{r4, lr}
  HCI.poll();
    2a6e:	4803      	ldr	r0, [pc, #12]	; (2a7c <_ZNK14BLELocalDevice9connectedEv+0x10>)
    2a70:	f001 fda0 	bl	45b4 <_ZN8HCIClass4pollEv>
  return ATT.connected();
    2a74:	4802      	ldr	r0, [pc, #8]	; (2a80 <_ZNK14BLELocalDevice9connectedEv+0x14>)
    2a76:	f000 fa7d 	bl	2f74 <_ZNK8ATTClass9connectedEv>
}
    2a7a:	bd10      	pop	{r4, pc}
    2a7c:	20000490 	.word	0x20000490
    2a80:	200002d8 	.word	0x200002d8

00002a84 <_ZN14BLELocalDevice10disconnectEv>:
{
    2a84:	b510      	push	{r4, lr}
  return ATT.disconnect();
    2a86:	4802      	ldr	r0, [pc, #8]	; (2a90 <_ZN14BLELocalDevice10disconnectEv+0xc>)
    2a88:	f000 fa8e 	bl	2fa8 <_ZN8ATTClass10disconnectEv>
}
    2a8c:	bd10      	pop	{r4, pc}
    2a8e:	46c0      	nop			; (mov r8, r8)
    2a90:	200002d8 	.word	0x200002d8

00002a94 <_ZNK14BLELocalDevice7addressEv>:
{
    2a94:	b530      	push	{r4, r5, lr}
    2a96:	0005      	movs	r5, r0
    2a98:	b08d      	sub	sp, #52	; 0x34
  uint8_t addr[6] = { 0x00, 0x00, 0x00, 0x00, 0x00, 0x00 };
    2a9a:	ac05      	add	r4, sp, #20
    2a9c:	2206      	movs	r2, #6
    2a9e:	2100      	movs	r1, #0
    2aa0:	0020      	movs	r0, r4
    2aa2:	f006 fc9f 	bl	93e4 <memset>
  HCI.readBdAddr(addr);
    2aa6:	0021      	movs	r1, r4
    2aa8:	480b      	ldr	r0, [pc, #44]	; (2ad8 <_ZNK14BLELocalDevice7addressEv+0x44>)
    2aaa:	f001 fe07 	bl	46bc <_ZN8HCIClass10readBdAddrEPh>
  sprintf(result, "%02x:%02x:%02x:%02x:%02x:%02x", addr[5], addr[4], addr[3], addr[2], addr[1], addr[0]);
    2aae:	7821      	ldrb	r1, [r4, #0]
    2ab0:	7923      	ldrb	r3, [r4, #4]
    2ab2:	7962      	ldrb	r2, [r4, #5]
    2ab4:	9103      	str	r1, [sp, #12]
    2ab6:	7861      	ldrb	r1, [r4, #1]
    2ab8:	a807      	add	r0, sp, #28
    2aba:	9102      	str	r1, [sp, #8]
    2abc:	78a1      	ldrb	r1, [r4, #2]
    2abe:	9101      	str	r1, [sp, #4]
    2ac0:	78e1      	ldrb	r1, [r4, #3]
    2ac2:	9100      	str	r1, [sp, #0]
    2ac4:	4905      	ldr	r1, [pc, #20]	; (2adc <_ZNK14BLELocalDevice7addressEv+0x48>)
    2ac6:	f007 f9c9 	bl	9e5c <siprintf>
  return result;
    2aca:	a907      	add	r1, sp, #28
    2acc:	0028      	movs	r0, r5
    2ace:	f004 f867 	bl	6ba0 <_ZN6StringC1EPKc>
}
    2ad2:	0028      	movs	r0, r5
    2ad4:	b00d      	add	sp, #52	; 0x34
    2ad6:	bd30      	pop	{r4, r5, pc}
    2ad8:	20000490 	.word	0x20000490
    2adc:	0000b6fc 	.word	0x0000b6fc

00002ae0 <_ZN14BLELocalDeviceC1Ev>:
BLELocalDevice::BLELocalDevice()
    2ae0:	b510      	push	{r4, lr}
    2ae2:	0004      	movs	r4, r0
    2ae4:	f7ff fc40 	bl	2368 <_ZN9BLEDeviceC1Ev>
    2ae8:	4b02      	ldr	r3, [pc, #8]	; (2af4 <_ZN14BLELocalDeviceC1Ev+0x14>)
}
    2aea:	0020      	movs	r0, r4
BLELocalDevice::BLELocalDevice()
    2aec:	3308      	adds	r3, #8
    2aee:	6023      	str	r3, [r4, #0]
}
    2af0:	bd10      	pop	{r4, pc}
    2af2:	46c0      	nop			; (mov r8, r8)
    2af4:	0000b7e0 	.word	0x0000b7e0

00002af8 <_ZN14BLELocalDevice3endEv>:
{
    2af8:	b510      	push	{r4, lr}
  GATT.end();
    2afa:	4805      	ldr	r0, [pc, #20]	; (2b10 <_ZN14BLELocalDevice3endEv+0x18>)
    2afc:	f001 fae2 	bl	40c4 <_ZN9GATTClass3endEv>
  HCI.end();
    2b00:	4804      	ldr	r0, [pc, #16]	; (2b14 <_ZN14BLELocalDevice3endEv+0x1c>)
    2b02:	f001 fc15 	bl	4330 <_ZN8HCIClass3endEv>
  digitalWrite(NINA_RESETN, HIGH);
    2b06:	2101      	movs	r1, #1
    2b08:	201f      	movs	r0, #31
    2b0a:	f003 ff77 	bl	69fc <digitalWrite>
}
    2b0e:	bd10      	pop	{r4, pc}
    2b10:	20000324 	.word	0x20000324
    2b14:	20000490 	.word	0x20000490

00002b18 <_ZN14BLELocalDevice5beginEv>:
{
    2b18:	b530      	push	{r4, r5, lr}
  pinMode(SPIWIFI_SS, OUTPUT);
    2b1a:	2101      	movs	r1, #1
{
    2b1c:	b087      	sub	sp, #28
    2b1e:	0005      	movs	r5, r0
  pinMode(SPIWIFI_SS, OUTPUT);
    2b20:	201c      	movs	r0, #28
    2b22:	f003 ff1f 	bl	6964 <pinMode>
  pinMode(NINA_RESETN, OUTPUT);
    2b26:	2101      	movs	r1, #1
    2b28:	201f      	movs	r0, #31
    2b2a:	f003 ff1b 	bl	6964 <pinMode>
  digitalWrite(SPIWIFI_SS, LOW);
    2b2e:	2100      	movs	r1, #0
    2b30:	201c      	movs	r0, #28
    2b32:	f003 ff63 	bl	69fc <digitalWrite>
  digitalWrite(NINA_RESETN, HIGH);
    2b36:	2101      	movs	r1, #1
    2b38:	201f      	movs	r0, #31
    2b3a:	f003 ff5f 	bl	69fc <digitalWrite>
  delay(100);
    2b3e:	2064      	movs	r0, #100	; 0x64
    2b40:	f002 fc62 	bl	5408 <delay>
  digitalWrite(NINA_RESETN, LOW);
    2b44:	2100      	movs	r1, #0
    2b46:	201f      	movs	r0, #31
    2b48:	f003 ff58 	bl	69fc <digitalWrite>
  delay(750);
    2b4c:	481d      	ldr	r0, [pc, #116]	; (2bc4 <_ZN14BLELocalDevice5beginEv+0xac>)
    2b4e:	f002 fc5b 	bl	5408 <delay>
  if (!HCI.begin()) {
    2b52:	4c1d      	ldr	r4, [pc, #116]	; (2bc8 <_ZN14BLELocalDevice5beginEv+0xb0>)
    2b54:	0020      	movs	r0, r4
    2b56:	f001 fbdf 	bl	4318 <_ZN8HCIClass5beginEv>
    2b5a:	2800      	cmp	r0, #0
    2b5c:	d105      	bne.n	2b6a <_ZN14BLELocalDevice5beginEv+0x52>
    end();
    2b5e:	0028      	movs	r0, r5
    2b60:	f7ff ffca 	bl	2af8 <_ZN14BLELocalDevice3endEv>
    return 0;
    2b64:	2000      	movs	r0, #0
}
    2b66:	b007      	add	sp, #28
    2b68:	bd30      	pop	{r4, r5, pc}
  delay(100);
    2b6a:	2064      	movs	r0, #100	; 0x64
    2b6c:	f002 fc4c 	bl	5408 <delay>
  if (HCI.reset() != 0) {
    2b70:	0020      	movs	r0, r4
    2b72:	f001 fd73 	bl	465c <_ZN8HCIClass5resetEv>
    2b76:	2800      	cmp	r0, #0
    2b78:	d1f1      	bne.n	2b5e <_ZN14BLELocalDevice5beginEv+0x46>
  if (HCI.readLocalVersion(hciVer, hciRev, lmpVer, manufacturer, lmpSubVer) != 0) {
    2b7a:	ab05      	add	r3, sp, #20
    2b7c:	9301      	str	r3, [sp, #4]
    2b7e:	2312      	movs	r3, #18
    2b80:	446b      	add	r3, sp
    2b82:	9300      	str	r3, [sp, #0]
    2b84:	210d      	movs	r1, #13
    2b86:	230e      	movs	r3, #14
    2b88:	aa04      	add	r2, sp, #16
    2b8a:	446b      	add	r3, sp
    2b8c:	4469      	add	r1, sp
    2b8e:	0020      	movs	r0, r4
    2b90:	f001 fd6e 	bl	4670 <_ZN8HCIClass16readLocalVersionERhRtS0_S1_S1_>
    2b94:	2800      	cmp	r0, #0
    2b96:	d1e2      	bne.n	2b5e <_ZN14BLELocalDevice5beginEv+0x46>
  if (HCI.setEventMask(0x3FFFFFFFFFFFFFFF) != 0) {
    2b98:	2201      	movs	r2, #1
    2b9a:	4b0c      	ldr	r3, [pc, #48]	; (2bcc <_ZN14BLELocalDevice5beginEv+0xb4>)
    2b9c:	4252      	negs	r2, r2
    2b9e:	0020      	movs	r0, r4
    2ba0:	f001 fdbc 	bl	471c <_ZN8HCIClass12setEventMaskEy>
    2ba4:	2800      	cmp	r0, #0
    2ba6:	d1da      	bne.n	2b5e <_ZN14BLELocalDevice5beginEv+0x46>
  if (HCI.readLeBufferSize(pktLen, maxPkt) != 0) {
    2ba8:	220f      	movs	r2, #15
    2baa:	2116      	movs	r1, #22
    2bac:	446a      	add	r2, sp
    2bae:	4469      	add	r1, sp
    2bb0:	0020      	movs	r0, r4
    2bb2:	f001 fdbf 	bl	4734 <_ZN8HCIClass16readLeBufferSizeERtRh>
    2bb6:	2800      	cmp	r0, #0
    2bb8:	d1d1      	bne.n	2b5e <_ZN14BLELocalDevice5beginEv+0x46>
  GATT.begin();
    2bba:	4805      	ldr	r0, [pc, #20]	; (2bd0 <_ZN14BLELocalDevice5beginEv+0xb8>)
    2bbc:	f001 fb40 	bl	4240 <_ZN9GATTClass5beginEv>
  return 1;
    2bc0:	2001      	movs	r0, #1
    2bc2:	e7d0      	b.n	2b66 <_ZN14BLELocalDevice5beginEv+0x4e>
    2bc4:	000002ee 	.word	0x000002ee
    2bc8:	20000490 	.word	0x20000490
    2bcc:	3fffffff 	.word	0x3fffffff
    2bd0:	20000324 	.word	0x20000324

00002bd4 <_ZN14BLELocalDevice20setAdvertisedServiceERK10BLEService>:
{
    2bd4:	b510      	push	{r4, lr}
  setAdvertisedServiceUuid(service.uuid());
    2bd6:	0008      	movs	r0, r1
    2bd8:	f7ff fc28 	bl	242c <_ZNK10BLEService4uuidEv>
    2bdc:	0001      	movs	r1, r0
  GAP.setAdvertisedServiceUuid(advertisedServiceUuid);
    2bde:	4802      	ldr	r0, [pc, #8]	; (2be8 <_ZN14BLELocalDevice20setAdvertisedServiceERK10BLEService+0x14>)
    2be0:	f001 f930 	bl	3e44 <_ZN8GAPClass24setAdvertisedServiceUuidEPKc>
}
    2be4:	bd10      	pop	{r4, pc}
    2be6:	46c0      	nop			; (mov r8, r8)
    2be8:	200002fc 	.word	0x200002fc

00002bec <_ZN14BLELocalDevice12setLocalNameEPKc>:
{
    2bec:	b510      	push	{r4, lr}
  GAP.setLocalName(localName);
    2bee:	4802      	ldr	r0, [pc, #8]	; (2bf8 <_ZN14BLELocalDevice12setLocalNameEPKc+0xc>)
    2bf0:	f001 f92a 	bl	3e48 <_ZN8GAPClass12setLocalNameEPKc>
}
    2bf4:	bd10      	pop	{r4, pc}
    2bf6:	46c0      	nop			; (mov r8, r8)
    2bf8:	200002fc 	.word	0x200002fc

00002bfc <_ZN14BLELocalDevice10addServiceER10BLEService>:
{
    2bfc:	b510      	push	{r4, lr}
  GATT.addService(service);
    2bfe:	4802      	ldr	r0, [pc, #8]	; (2c08 <_ZN14BLELocalDevice10addServiceER10BLEService+0xc>)
    2c00:	f001 fb38 	bl	4274 <_ZN9GATTClass10addServiceER10BLEService>
}
    2c04:	bd10      	pop	{r4, pc}
    2c06:	46c0      	nop			; (mov r8, r8)
    2c08:	20000324 	.word	0x20000324

00002c0c <_ZN14BLELocalDevice9advertiseEv>:
{
    2c0c:	b510      	push	{r4, lr}
  return GAP.advertise();
    2c0e:	4802      	ldr	r0, [pc, #8]	; (2c18 <_ZN14BLELocalDevice9advertiseEv+0xc>)
    2c10:	f001 f91e 	bl	3e50 <_ZN8GAPClass9advertiseEv>
}
    2c14:	bd10      	pop	{r4, pc}
    2c16:	46c0      	nop			; (mov r8, r8)
    2c18:	200002fc 	.word	0x200002fc

00002c1c <_ZN14BLELocalDevice7centralEv>:
{
    2c1c:	b510      	push	{r4, lr}
    2c1e:	0004      	movs	r4, r0
  HCI.poll();
    2c20:	4804      	ldr	r0, [pc, #16]	; (2c34 <_ZN14BLELocalDevice7centralEv+0x18>)
    2c22:	f001 fcc7 	bl	45b4 <_ZN8HCIClass4pollEv>
  return ATT.central();
    2c26:	0020      	movs	r0, r4
    2c28:	4903      	ldr	r1, [pc, #12]	; (2c38 <_ZN14BLELocalDevice7centralEv+0x1c>)
    2c2a:	f000 f9d9 	bl	2fe0 <_ZN8ATTClass7centralEv>
}
    2c2e:	0020      	movs	r0, r4
    2c30:	bd10      	pop	{r4, pc}
    2c32:	46c0      	nop			; (mov r8, r8)
    2c34:	20000490 	.word	0x20000490
    2c38:	200002d8 	.word	0x200002d8

00002c3c <_GLOBAL__sub_I__ZN14BLELocalDeviceC2Ev>:
void BLELocalDevice::noDebug()
{
  HCI.noDebug();
}

BLELocalDevice BLE;
    2c3c:	b510      	push	{r4, lr}
    2c3e:	4c05      	ldr	r4, [pc, #20]	; (2c54 <_GLOBAL__sub_I__ZN14BLELocalDeviceC2Ev+0x18>)
    2c40:	0020      	movs	r0, r4
    2c42:	f7ff ff4d 	bl	2ae0 <_ZN14BLELocalDeviceC1Ev>
    2c46:	4a04      	ldr	r2, [pc, #16]	; (2c58 <_GLOBAL__sub_I__ZN14BLELocalDeviceC2Ev+0x1c>)
    2c48:	4904      	ldr	r1, [pc, #16]	; (2c5c <_GLOBAL__sub_I__ZN14BLELocalDeviceC2Ev+0x20>)
    2c4a:	0020      	movs	r0, r4
    2c4c:	f004 fbfa 	bl	7444 <__aeabi_atexit>
    2c50:	bd10      	pop	{r4, pc}
    2c52:	46c0      	nop			; (mov r8, r8)
    2c54:	200002cc 	.word	0x200002cc
    2c58:	20000000 	.word	0x20000000
    2c5c:	00002a41 	.word	0x00002a41

00002c60 <_ZN14BLELocalDevice4rssiEv>:
{
    2c60:	b51f      	push	{r0, r1, r2, r3, r4, lr}
  BLEDevice central = ATT.central();
    2c62:	490a      	ldr	r1, [pc, #40]	; (2c8c <_ZN14BLELocalDevice4rssiEv+0x2c>)
    2c64:	a801      	add	r0, sp, #4
    2c66:	f000 f9bb 	bl	2fe0 <_ZN8ATTClass7centralEv>
  if (central) {
    2c6a:	a801      	add	r0, sp, #4
    2c6c:	f7ff fb2e 	bl	22cc <_ZNK9BLEDevicecvbEv>
  return 127;
    2c70:	247f      	movs	r4, #127	; 0x7f
  if (central) {
    2c72:	2800      	cmp	r0, #0
    2c74:	d003      	beq.n	2c7e <_ZN14BLELocalDevice4rssiEv+0x1e>
    return central.rssi();
    2c76:	a801      	add	r0, sp, #4
    2c78:	f7ff fb1a 	bl	22b0 <_ZN9BLEDevice4rssiEv>
    2c7c:	0004      	movs	r4, r0
  BLEDevice central = ATT.central();
    2c7e:	a801      	add	r0, sp, #4
    2c80:	f7ff fad3 	bl	222a <_ZN9BLEDeviceD1Ev>
}
    2c84:	0020      	movs	r0, r4
    2c86:	b004      	add	sp, #16
    2c88:	bd10      	pop	{r4, pc}
    2c8a:	46c0      	nop			; (mov r8, r8)
    2c8c:	200002d8 	.word	0x200002d8

00002c90 <_ZNK15BLELocalService4typeEv>:
}

enum BLEAttributeType BLELocalService::type() const
{
  return BLETypeService;
}
    2c90:	20a0      	movs	r0, #160	; 0xa0
    2c92:	0180      	lsls	r0, r0, #6
    2c94:	4770      	bx	lr
	...

00002c98 <_ZN15BLELocalServiceC1EPKc>:
BLELocalService::BLELocalService(const char* uuid) :
    2c98:	b510      	push	{r4, lr}
    2c9a:	0004      	movs	r4, r0
  _endHandle(0x0000)
    2c9c:	f7ff fa44 	bl	2128 <_ZN12BLEAttributeC1EPKc>
    2ca0:	4b05      	ldr	r3, [pc, #20]	; (2cb8 <_ZN15BLELocalServiceC1EPKc+0x20>)
}
    2ca2:	0020      	movs	r0, r4
  _endHandle(0x0000)
    2ca4:	3308      	adds	r3, #8
    2ca6:	6023      	str	r3, [r4, #0]
    2ca8:	2300      	movs	r3, #0
    2caa:	8423      	strh	r3, [r4, #32]
    2cac:	8463      	strh	r3, [r4, #34]	; 0x22
  _last(NULL)
    2cae:	6263      	str	r3, [r4, #36]	; 0x24
    2cb0:	62a3      	str	r3, [r4, #40]	; 0x28
    2cb2:	62e3      	str	r3, [r4, #44]	; 0x2c
}
    2cb4:	bd10      	pop	{r4, pc}
    2cb6:	46c0      	nop			; (mov r8, r8)
    2cb8:	0000b814 	.word	0x0000b814

00002cbc <_ZN15BLELocalService10setHandlesEtt>:
  }
}

void BLELocalService::setHandles(uint16_t start, uint16_t end)
{
  _startHandle = start;
    2cbc:	8401      	strh	r1, [r0, #32]
  _endHandle = end;
    2cbe:	8442      	strh	r2, [r0, #34]	; 0x22
}
    2cc0:	4770      	bx	lr

00002cc2 <_ZNK15BLELocalService11startHandleEv>:

uint16_t BLELocalService::startHandle() const
{
  return _startHandle;
    2cc2:	8c00      	ldrh	r0, [r0, #32]
}
    2cc4:	4770      	bx	lr

00002cc6 <_ZNK15BLELocalService9endHandleEv>:

uint16_t BLELocalService::endHandle() const
{
  return _endHandle;
    2cc6:	8c40      	ldrh	r0, [r0, #34]	; 0x22
}
    2cc8:	4770      	bx	lr

00002cca <_ZNK15BLELocalService19characteristicCountEv>:

unsigned int BLELocalService::characteristicCount() const
{
  return _characteristics.size();
    2cca:	6a40      	ldr	r0, [r0, #36]	; 0x24
}
    2ccc:	4770      	bx	lr

00002cce <_ZNK15BLELocalService14characteristicEj>:
  if (index >= _size) {
    2cce:	6a42      	ldr	r2, [r0, #36]	; 0x24
    return T();
    2cd0:	2300      	movs	r3, #0
  if (index >= _size) {
    2cd2:	4291      	cmp	r1, r2
    2cd4:	d207      	bcs.n	2ce6 <_ZNK15BLELocalService14characteristicEj+0x18>
  for (unsigned int i = 0; i < index; i++) {
    2cd6:	2200      	movs	r2, #0
  BLELinkedListNode<T>* itemNode = _root;
    2cd8:	6a83      	ldr	r3, [r0, #40]	; 0x28
  for (unsigned int i = 0; i < index; i++) {
    2cda:	4291      	cmp	r1, r2
    2cdc:	d002      	beq.n	2ce4 <_ZNK15BLELocalService14characteristicEj+0x16>
    itemNode = itemNode->next;
    2cde:	685b      	ldr	r3, [r3, #4]
  for (unsigned int i = 0; i < index; i++) {
    2ce0:	3201      	adds	r2, #1
    2ce2:	e7fa      	b.n	2cda <_ZNK15BLELocalService14characteristicEj+0xc>
  return itemNode->data;
    2ce4:	681b      	ldr	r3, [r3, #0]

BLELocalCharacteristic* BLELocalService::characteristic(unsigned int index) const
{
  return _characteristics.get(index);
}
    2ce6:	0018      	movs	r0, r3
    2ce8:	4770      	bx	lr

00002cea <_ZN15BLELocalService17addCharacteristicEP22BLELocalCharacteristic>:

void BLELocalService::addCharacteristic(BLELocalCharacteristic* characteristic)
{
    2cea:	b570      	push	{r4, r5, r6, lr}
    2cec:	0004      	movs	r4, r0
  characteristic->retain();
    2cee:	0008      	movs	r0, r1
{
    2cf0:	000d      	movs	r5, r1
  characteristic->retain();
    2cf2:	f7ff fa36 	bl	2162 <_ZN12BLEAttribute6retainEv>
  BLELinkedListNode<T>* itemNode = new BLELinkedListNode<T>();
    2cf6:	2008      	movs	r0, #8
    2cf8:	f002 fbcc 	bl	5494 <_Znwj>
    2cfc:	2300      	movs	r3, #0
    2cfe:	6043      	str	r3, [r0, #4]
  if (_root == NULL) {
    2d00:	6aa3      	ldr	r3, [r4, #40]	; 0x28
  itemNode->data = item;
    2d02:	6005      	str	r5, [r0, #0]
  if (_root == NULL) {
    2d04:	2b00      	cmp	r3, #0
    2d06:	d105      	bne.n	2d14 <_ZN15BLELocalService17addCharacteristicEP22BLELocalCharacteristic+0x2a>
    _root = itemNode;
    2d08:	62a0      	str	r0, [r4, #40]	; 0x28
  _size++;
    2d0a:	6a63      	ldr	r3, [r4, #36]	; 0x24
  _last = itemNode;
    2d0c:	62e0      	str	r0, [r4, #44]	; 0x2c
  _size++;
    2d0e:	3301      	adds	r3, #1
    2d10:	6263      	str	r3, [r4, #36]	; 0x24

  _characteristics.add(characteristic);
}
    2d12:	bd70      	pop	{r4, r5, r6, pc}
    _last->next = itemNode;
    2d14:	6ae3      	ldr	r3, [r4, #44]	; 0x2c
    2d16:	6058      	str	r0, [r3, #4]
    2d18:	e7f7      	b.n	2d0a <_ZN15BLELocalService17addCharacteristicEP22BLELocalCharacteristic+0x20>

00002d1a <_ZN15BLELocalService17addCharacteristicER17BLECharacteristic>:
{
    2d1a:	b510      	push	{r4, lr}
    2d1c:	0004      	movs	r4, r0
  BLELocalCharacteristic* localCharacteristic = characteristic.local();
    2d1e:	0008      	movs	r0, r1
    2d20:	f7ff fa81 	bl	2226 <_ZN17BLECharacteristic5localEv>
    2d24:	1e01      	subs	r1, r0, #0
  if (localCharacteristic) {
    2d26:	d002      	beq.n	2d2e <_ZN15BLELocalService17addCharacteristicER17BLECharacteristic+0x14>
    addCharacteristic(localCharacteristic);
    2d28:	0020      	movs	r0, r4
    2d2a:	f7ff ffde 	bl	2cea <_ZN15BLELocalService17addCharacteristicEP22BLELocalCharacteristic>
}
    2d2e:	bd10      	pop	{r4, pc}

00002d30 <_ZN13BLELinkedListIP22BLELocalCharacteristicE5clearEv>:
template <typename T> void BLELinkedList<T>::clear()
    2d30:	b570      	push	{r4, r5, r6, lr}
  for (unsigned int i = 0; i < _size; i++) {
    2d32:	2500      	movs	r5, #0
template <typename T> void BLELinkedList<T>::clear()
    2d34:	0004      	movs	r4, r0
  BLELinkedListNode<T>* itemNode = _root;
    2d36:	6840      	ldr	r0, [r0, #4]
  for (unsigned int i = 0; i < _size; i++) {
    2d38:	6823      	ldr	r3, [r4, #0]
    2d3a:	429d      	cmp	r5, r3
    2d3c:	d205      	bcs.n	2d4a <_ZN13BLELinkedListIP22BLELocalCharacteristicE5clearEv+0x1a>
    itemNode = itemNode->next;
    2d3e:	6846      	ldr	r6, [r0, #4]
  for (unsigned int i = 0; i < _size; i++) {
    2d40:	3501      	adds	r5, #1
    delete n;
    2d42:	f002 fbab 	bl	549c <_ZdlPv>
    itemNode = itemNode->next;
    2d46:	0030      	movs	r0, r6
  for (unsigned int i = 0; i < _size; i++) {
    2d48:	e7f6      	b.n	2d38 <_ZN13BLELinkedListIP22BLELocalCharacteristicE5clearEv+0x8>
  _size = 0;
    2d4a:	2300      	movs	r3, #0
    2d4c:	6023      	str	r3, [r4, #0]
  _root = NULL;
    2d4e:	6063      	str	r3, [r4, #4]
  _last = NULL;
    2d50:	60a3      	str	r3, [r4, #8]
}
    2d52:	bd70      	pop	{r4, r5, r6, pc}

00002d54 <_ZN15BLELocalServiceD1Ev>:
BLELocalService::~BLELocalService()
    2d54:	b570      	push	{r4, r5, r6, lr}
    2d56:	0004      	movs	r4, r0
  for (unsigned int i = 0; i < characteristicCount(); i++) {
    2d58:	2500      	movs	r5, #0
BLELocalService::~BLELocalService()
    2d5a:	4b14      	ldr	r3, [pc, #80]	; (2dac <_ZN15BLELocalServiceD1Ev+0x58>)
    2d5c:	3308      	adds	r3, #8
    2d5e:	6003      	str	r3, [r0, #0]
  for (unsigned int i = 0; i < characteristicCount(); i++) {
    2d60:	6a63      	ldr	r3, [r4, #36]	; 0x24
    2d62:	429d      	cmp	r5, r3
    2d64:	d214      	bcs.n	2d90 <_ZN15BLELocalServiceD1Ev+0x3c>
  for (unsigned int i = 0; i < index; i++) {
    2d66:	2200      	movs	r2, #0
  BLELinkedListNode<T>* itemNode = _root;
    2d68:	6aa3      	ldr	r3, [r4, #40]	; 0x28
  for (unsigned int i = 0; i < index; i++) {
    2d6a:	4295      	cmp	r5, r2
    2d6c:	d002      	beq.n	2d74 <_ZN15BLELocalServiceD1Ev+0x20>
    itemNode = itemNode->next;
    2d6e:	685b      	ldr	r3, [r3, #4]
  for (unsigned int i = 0; i < index; i++) {
    2d70:	3201      	adds	r2, #1
    2d72:	e7fa      	b.n	2d6a <_ZN15BLELocalServiceD1Ev+0x16>
  return itemNode->data;
    2d74:	681e      	ldr	r6, [r3, #0]
    if (c->release() <= 0) {
    2d76:	0030      	movs	r0, r6
    2d78:	f7ff f9f8 	bl	216c <_ZN12BLEAttribute7releaseEv>
    2d7c:	2800      	cmp	r0, #0
    2d7e:	dc05      	bgt.n	2d8c <_ZN15BLELocalServiceD1Ev+0x38>
      delete c;
    2d80:	2e00      	cmp	r6, #0
    2d82:	d003      	beq.n	2d8c <_ZN15BLELocalServiceD1Ev+0x38>
    2d84:	6833      	ldr	r3, [r6, #0]
    2d86:	0030      	movs	r0, r6
    2d88:	685b      	ldr	r3, [r3, #4]
    2d8a:	4798      	blx	r3
  for (unsigned int i = 0; i < characteristicCount(); i++) {
    2d8c:	3501      	adds	r5, #1
    2d8e:	e7e7      	b.n	2d60 <_ZN15BLELocalServiceD1Ev+0xc>
  _characteristics.clear();
    2d90:	0025      	movs	r5, r4
    2d92:	3524      	adds	r5, #36	; 0x24
    2d94:	0028      	movs	r0, r5
    2d96:	f7ff ffcb 	bl	2d30 <_ZN13BLELinkedListIP22BLELocalCharacteristicE5clearEv>
  clear();
    2d9a:	0028      	movs	r0, r5
    2d9c:	f7ff ffc8 	bl	2d30 <_ZN13BLELinkedListIP22BLELocalCharacteristicE5clearEv>
BLELocalService::~BLELocalService()
    2da0:	0020      	movs	r0, r4
    2da2:	f7ff f9b7 	bl	2114 <_ZN12BLEAttributeD1Ev>
}
    2da6:	0020      	movs	r0, r4
    2da8:	bd70      	pop	{r4, r5, r6, pc}
    2daa:	46c0      	nop			; (mov r8, r8)
    2dac:	0000b814 	.word	0x0000b814

00002db0 <_ZN15BLELocalServiceD0Ev>:
BLELocalService::~BLELocalService()
    2db0:	b510      	push	{r4, lr}
    2db2:	0004      	movs	r4, r0
}
    2db4:	f7ff ffce 	bl	2d54 <_ZN15BLELocalServiceD1Ev>
    2db8:	0020      	movs	r0, r4
    2dba:	f002 fb6f 	bl	549c <_ZdlPv>
    2dbe:	0020      	movs	r0, r4
    2dc0:	bd10      	pop	{r4, pc}
	...

00002dc4 <_ZN8ATTClassD1Ev>:
{
  memset(_peerAddress, 0x00, sizeof(_peerAddress));
  memset(_eventHandlers, 0x00, sizeof(_eventHandlers));
}

ATTClass::~ATTClass()
    2dc4:	4b05      	ldr	r3, [pc, #20]	; (2ddc <_ZN8ATTClassD1Ev+0x18>)
    2dc6:	b510      	push	{r4, lr}
    2dc8:	3308      	adds	r3, #8
    2dca:	0004      	movs	r4, r0
    2dcc:	6003      	str	r3, [r0, #0]
{
  if (_longWriteValue) {
    2dce:	6940      	ldr	r0, [r0, #20]
    2dd0:	2800      	cmp	r0, #0
    2dd2:	d001      	beq.n	2dd8 <_ZN8ATTClassD1Ev+0x14>
    free(_longWriteValue);
    2dd4:	f006 fac0 	bl	9358 <free>
  }
}
    2dd8:	0020      	movs	r0, r4
    2dda:	bd10      	pop	{r4, pc}
    2ddc:	0000b828 	.word	0x0000b828

00002de0 <_ZN8ATTClassD0Ev>:
ATTClass::~ATTClass()
    2de0:	b510      	push	{r4, lr}
    2de2:	0004      	movs	r4, r0
}
    2de4:	f7ff ffee 	bl	2dc4 <_ZN8ATTClassD1Ev>
    2de8:	0020      	movs	r0, r4
    2dea:	f002 fb57 	bl	549c <_ZdlPv>
    2dee:	0020      	movs	r0, r4
    2df0:	bd10      	pop	{r4, pc}
	...

00002df4 <_ZN8ATTClass9sendErrorEthth.constprop.3>:
void ATTClass::handleCnf(uint16_t /*connectionHandle*/, uint8_t /*dlen*/, uint8_t /*data*/[])
{
  _cnf = true;
}

void ATTClass::sendError(uint16_t connectionHandle, uint8_t opcode, uint16_t handle, uint8_t code)
    2df4:	b5f0      	push	{r4, r5, r6, r7, lr}
  struct __attribute__ ((packed)) {
    uint8_t op;
    uint8_t opcode;
    uint16_t handle;
    uint8_t code;
  } attError = { ATT_OP_ERROR, opcode, handle, code };
    2df6:	2505      	movs	r5, #5
void ATTClass::sendError(uint16_t connectionHandle, uint8_t opcode, uint16_t handle, uint8_t code)
    2df8:	b087      	sub	sp, #28
  } attError = { ATT_OP_ERROR, opcode, handle, code };
    2dfa:	ac04      	add	r4, sp, #16
void ATTClass::sendError(uint16_t connectionHandle, uint8_t opcode, uint16_t handle, uint8_t code)
    2dfc:	9002      	str	r0, [sp, #8]
    2dfe:	000f      	movs	r7, r1
    2e00:	0016      	movs	r6, r2
  } attError = { ATT_OP_ERROR, opcode, handle, code };
    2e02:	2100      	movs	r1, #0
    2e04:	002a      	movs	r2, r5
    2e06:	0020      	movs	r0, r4
void ATTClass::sendError(uint16_t connectionHandle, uint8_t opcode, uint16_t handle, uint8_t code)
    2e08:	9303      	str	r3, [sp, #12]
  } attError = { ATT_OP_ERROR, opcode, handle, code };
    2e0a:	f006 faeb 	bl	93e4 <memset>
    2e0e:	2301      	movs	r3, #1
    2e10:	7023      	strb	r3, [r4, #0]
    2e12:	466b      	mov	r3, sp
    2e14:	7b1b      	ldrb	r3, [r3, #12]
    2e16:	7067      	strb	r7, [r4, #1]
    2e18:	7123      	strb	r3, [r4, #4]
    2e1a:	8066      	strh	r6, [r4, #2]

  HCI.sendAclPkt(connectionHandle, ATT_CID, sizeof(attError), &attError);
    2e1c:	002b      	movs	r3, r5
    2e1e:	9400      	str	r4, [sp, #0]
    2e20:	2204      	movs	r2, #4
    2e22:	9902      	ldr	r1, [sp, #8]
    2e24:	4802      	ldr	r0, [pc, #8]	; (2e30 <_ZN8ATTClass9sendErrorEthth.constprop.3+0x3c>)
    2e26:	f001 fabf 	bl	43a8 <_ZN8HCIClass10sendAclPktEthhPv>
}
    2e2a:	b007      	add	sp, #28
    2e2c:	bdf0      	pop	{r4, r5, r6, r7, pc}
    2e2e:	46c0      	nop			; (mov r8, r8)
    2e30:	20000490 	.word	0x20000490

00002e34 <_ZN8ATTClassC1Ev>:
  _longWriteValueLength(0)
    2e34:	4b0d      	ldr	r3, [pc, #52]	; (2e6c <_ZN8ATTClassC1Ev+0x38>)
    2e36:	2201      	movs	r2, #1
    2e38:	3308      	adds	r3, #8
ATTClass::ATTClass() :
    2e3a:	b570      	push	{r4, r5, r6, lr}
  _longWriteValueLength(0)
    2e3c:	2500      	movs	r5, #0
    2e3e:	6003      	str	r3, [r0, #0]
    2e40:	2317      	movs	r3, #23
ATTClass::ATTClass() :
    2e42:	0004      	movs	r4, r0
  _longWriteValueLength(0)
    2e44:	4252      	negs	r2, r2
    2e46:	8083      	strh	r3, [r0, #4]
    2e48:	81c3      	strh	r3, [r0, #14]
    2e4a:	8245      	strh	r5, [r0, #18]
    2e4c:	6145      	str	r5, [r0, #20]
    2e4e:	8305      	strh	r5, [r0, #24]
  memset(_peerAddress, 0x00, sizeof(_peerAddress));
    2e50:	0029      	movs	r1, r5
  _longWriteValueLength(0)
    2e52:	80c2      	strh	r2, [r0, #6]
  memset(_peerAddress, 0x00, sizeof(_peerAddress));
    2e54:	3207      	adds	r2, #7
    2e56:	3008      	adds	r0, #8
    2e58:	f006 fac4 	bl	93e4 <memset>
  memset(_eventHandlers, 0x00, sizeof(_eventHandlers));
    2e5c:	0020      	movs	r0, r4
    2e5e:	0029      	movs	r1, r5
    2e60:	2208      	movs	r2, #8
    2e62:	301c      	adds	r0, #28
    2e64:	f006 fabe 	bl	93e4 <memset>
}
    2e68:	0020      	movs	r0, r4
    2e6a:	bd70      	pop	{r4, r5, r6, pc}
    2e6c:	0000b828 	.word	0x0000b828

00002e70 <_ZN8ATTClass9setMaxMtuEt>:
  _maxMtu = maxMtu;
    2e70:	8081      	strh	r1, [r0, #4]
}
    2e72:	4770      	bx	lr

00002e74 <_ZN8ATTClass13addConnectionEthhPhttth>:
{
    2e74:	b57f      	push	{r0, r1, r2, r3, r4, r5, r6, lr}
    2e76:	0004      	movs	r4, r0
    2e78:	000d      	movs	r5, r1
  if (role == 1) {
    2e7a:	2a01      	cmp	r2, #1
    2e7c:	d116      	bne.n	2eac <_ZN8ATTClass13addConnectionEthhPhttth+0x38>
    memcpy(_peerAddress, peerBdaddr, sizeof(_peerAddress));
    2e7e:	0006      	movs	r6, r0
    _mtu = 23;
    2e80:	2317      	movs	r3, #23
    memcpy(_peerAddress, peerBdaddr, sizeof(_peerAddress));
    2e82:	3608      	adds	r6, #8
    _connectionHandle = handle;
    2e84:	80e1      	strh	r1, [r4, #6]
    memcpy(_peerAddress, peerBdaddr, sizeof(_peerAddress));
    2e86:	3205      	adds	r2, #5
    _mtu = 23;
    2e88:	81c3      	strh	r3, [r0, #14]
    memcpy(_peerAddress, peerBdaddr, sizeof(_peerAddress));
    2e8a:	9908      	ldr	r1, [sp, #32]
    2e8c:	0030      	movs	r0, r6
    2e8e:	f006 fa8e 	bl	93ae <memcpy>
    if (_eventHandlers[BLEConnected]) {
    2e92:	69e4      	ldr	r4, [r4, #28]
    2e94:	2c00      	cmp	r4, #0
    2e96:	d009      	beq.n	2eac <_ZN8ATTClass13addConnectionEthhPhttth+0x38>
      _eventHandlers[BLEConnected](BLEDevice(_connectionHandle, _peerAddress));
    2e98:	0032      	movs	r2, r6
    2e9a:	0029      	movs	r1, r5
    2e9c:	a801      	add	r0, sp, #4
    2e9e:	f7ff fa75 	bl	238c <_ZN9BLEDeviceC1EtPh>
    2ea2:	a801      	add	r0, sp, #4
    2ea4:	47a0      	blx	r4
    2ea6:	a801      	add	r0, sp, #4
    2ea8:	f7ff f9bf 	bl	222a <_ZN9BLEDeviceD1Ev>
}
    2eac:	bd7f      	pop	{r0, r1, r2, r3, r4, r5, r6, pc}
	...

00002eb0 <_ZN8ATTClass16removeConnectionEht>:
{
    2eb0:	b5f0      	push	{r4, r5, r6, r7, lr}
  if (_connectionHandle == handle) {
    2eb2:	88c3      	ldrh	r3, [r0, #6]
{
    2eb4:	b089      	sub	sp, #36	; 0x24
    2eb6:	0004      	movs	r4, r0
  if (_connectionHandle == handle) {
    2eb8:	428b      	cmp	r3, r1
    2eba:	d153      	bne.n	2f64 <_ZN8ATTClass16removeConnectionEht+0xb4>
    BLEDevice bleDevice(_connectionHandle, _peerAddress);
    2ebc:	0002      	movs	r2, r0
    2ebe:	0019      	movs	r1, r3
    2ec0:	3208      	adds	r2, #8
    2ec2:	a802      	add	r0, sp, #8
    2ec4:	9201      	str	r2, [sp, #4]
    for (uint16_t i = 0; i < GATT.attributeCount(); i++) {
    2ec6:	2500      	movs	r5, #0
    BLEDevice bleDevice(_connectionHandle, _peerAddress);
    2ec8:	f7ff fa60 	bl	238c <_ZN9BLEDeviceC1EtPh>
    for (uint16_t i = 0; i < GATT.attributeCount(); i++) {
    2ecc:	4e26      	ldr	r6, [pc, #152]	; (2f68 <_ZN8ATTClass16removeConnectionEht+0xb8>)
    2ece:	0030      	movs	r0, r6
    2ed0:	f001 f8e4 	bl	409c <_ZNK9GATTClass14attributeCountEv>
    2ed4:	4285      	cmp	r5, r0
    2ed6:	d222      	bcs.n	2f1e <_ZN8ATTClass16removeConnectionEht+0x6e>
      BLEAttribute* attribute = GATT.attribute(i);
    2ed8:	0029      	movs	r1, r5
    2eda:	0030      	movs	r0, r6
    2edc:	f001 f905 	bl	40ea <_ZNK9GATTClass9attributeEj>
      if (attribute->type() == BLETypeCharacteristic) {
    2ee0:	6803      	ldr	r3, [r0, #0]
      BLEAttribute* attribute = GATT.attribute(i);
    2ee2:	0007      	movs	r7, r0
      if (attribute->type() == BLETypeCharacteristic) {
    2ee4:	689b      	ldr	r3, [r3, #8]
    2ee6:	4798      	blx	r3
    2ee8:	4b20      	ldr	r3, [pc, #128]	; (2f6c <_ZN8ATTClass16removeConnectionEht+0xbc>)
    2eea:	4298      	cmp	r0, r3
    2eec:	d114      	bne.n	2f18 <_ZN8ATTClass16removeConnectionEht+0x68>
    2eee:	2206      	movs	r2, #6
    2ef0:	2012      	movs	r0, #18
    2ef2:	4b1f      	ldr	r3, [pc, #124]	; (2f70 <_ZN8ATTClass16removeConnectionEht+0xc0>)
    2ef4:	ae05      	add	r6, sp, #20
    2ef6:	9305      	str	r3, [sp, #20]
    2ef8:	ab02      	add	r3, sp, #8
    2efa:	889b      	ldrh	r3, [r3, #4]
    2efc:	80b3      	strh	r3, [r6, #4]
    2efe:	ab02      	add	r3, sp, #8
    2f00:	1899      	adds	r1, r3, r2
    2f02:	18c0      	adds	r0, r0, r3
    2f04:	f006 fa53 	bl	93ae <memcpy>
        characteristic->writeCccdValue(bleDevice, 0x0000);
    2f08:	0038      	movs	r0, r7
    2f0a:	2200      	movs	r2, #0
    2f0c:	0031      	movs	r1, r6
    2f0e:	f7ff fd27 	bl	2960 <_ZN22BLELocalCharacteristic14writeCccdValueE9BLEDevicet>
    2f12:	0030      	movs	r0, r6
    2f14:	f7ff f989 	bl	222a <_ZN9BLEDeviceD1Ev>
    for (uint16_t i = 0; i < GATT.attributeCount(); i++) {
    2f18:	3501      	adds	r5, #1
    2f1a:	b2ad      	uxth	r5, r5
    2f1c:	e7d6      	b.n	2ecc <_ZN8ATTClass16removeConnectionEht+0x1c>
    if (_eventHandlers[BLEDisconnected]) {
    2f1e:	6a26      	ldr	r6, [r4, #32]
    2f20:	2e00      	cmp	r6, #0
    2f22:	d011      	beq.n	2f48 <_ZN8ATTClass16removeConnectionEht+0x98>
    2f24:	2206      	movs	r2, #6
    2f26:	2012      	movs	r0, #18
    2f28:	4b11      	ldr	r3, [pc, #68]	; (2f70 <_ZN8ATTClass16removeConnectionEht+0xc0>)
    2f2a:	ad05      	add	r5, sp, #20
    2f2c:	9305      	str	r3, [sp, #20]
    2f2e:	ab02      	add	r3, sp, #8
    2f30:	889b      	ldrh	r3, [r3, #4]
    2f32:	80ab      	strh	r3, [r5, #4]
    2f34:	ab02      	add	r3, sp, #8
    2f36:	1899      	adds	r1, r3, r2
    2f38:	18c0      	adds	r0, r0, r3
    2f3a:	f006 fa38 	bl	93ae <memcpy>
      _eventHandlers[BLEDisconnected](bleDevice);
    2f3e:	0028      	movs	r0, r5
    2f40:	47b0      	blx	r6
    2f42:	0028      	movs	r0, r5
    2f44:	f7ff f971 	bl	222a <_ZN9BLEDeviceD1Ev>
    _connectionHandle = 0xffff;
    2f48:	2301      	movs	r3, #1
    2f4a:	425b      	negs	r3, r3
    2f4c:	80e3      	strh	r3, [r4, #6]
    memset(_peerAddress, 0x00, sizeof(_peerAddress));
    2f4e:	2206      	movs	r2, #6
    2f50:	2100      	movs	r1, #0
    2f52:	9801      	ldr	r0, [sp, #4]
    2f54:	f006 fa46 	bl	93e4 <memset>
    _longWriteHandle = 0x0000;
    2f58:	2300      	movs	r3, #0
    BLEDevice bleDevice(_connectionHandle, _peerAddress);
    2f5a:	a802      	add	r0, sp, #8
    _longWriteHandle = 0x0000;
    2f5c:	8263      	strh	r3, [r4, #18]
    _longWriteValueLength = 0;
    2f5e:	8323      	strh	r3, [r4, #24]
    BLEDevice bleDevice(_connectionHandle, _peerAddress);
    2f60:	f7ff f963 	bl	222a <_ZN9BLEDeviceD1Ev>
}
    2f64:	b009      	add	sp, #36	; 0x24
    2f66:	bdf0      	pop	{r4, r5, r6, r7, pc}
    2f68:	20000324 	.word	0x20000324
    2f6c:	00002803 	.word	0x00002803
    2f70:	0000b724 	.word	0x0000b724

00002f74 <_ZNK8ATTClass9connectedEv>:
  return (_connectionHandle != 0xffff);
    2f74:	4b03      	ldr	r3, [pc, #12]	; (2f84 <_ZNK8ATTClass9connectedEv+0x10>)
    2f76:	88c0      	ldrh	r0, [r0, #6]
    2f78:	18c0      	adds	r0, r0, r3
    2f7a:	1e43      	subs	r3, r0, #1
    2f7c:	4198      	sbcs	r0, r3
    2f7e:	b2c0      	uxtb	r0, r0
}
    2f80:	4770      	bx	lr
    2f82:	46c0      	nop			; (mov r8, r8)
    2f84:	ffff0001 	.word	0xffff0001

00002f88 <_ZNK8ATTClass9connectedEtPKh>:
{
    2f88:	b510      	push	{r4, lr}
    2f8a:	000c      	movs	r4, r1
    2f8c:	0011      	movs	r1, r2
  return ((_connectionHandle == handle) && memcmp(_peerAddress, address, 6) == 0);
    2f8e:	88c2      	ldrh	r2, [r0, #6]
    2f90:	2300      	movs	r3, #0
    2f92:	42a2      	cmp	r2, r4
    2f94:	d106      	bne.n	2fa4 <_ZNK8ATTClass9connectedEtPKh+0x1c>
    2f96:	3008      	adds	r0, #8
    2f98:	2206      	movs	r2, #6
    2f9a:	f006 f9f9 	bl	9390 <memcmp>
    2f9e:	4243      	negs	r3, r0
    2fa0:	4143      	adcs	r3, r0
    2fa2:	b2db      	uxtb	r3, r3
}
    2fa4:	0018      	movs	r0, r3
    2fa6:	bd10      	pop	{r4, pc}

00002fa8 <_ZN8ATTClass10disconnectEv>:
{
    2fa8:	b510      	push	{r4, lr}
  if (_connectionHandle != 0xffff) {
    2faa:	4b0b      	ldr	r3, [pc, #44]	; (2fd8 <_ZN8ATTClass10disconnectEv+0x30>)
    2fac:	88c1      	ldrh	r1, [r0, #6]
{
    2fae:	0004      	movs	r4, r0
  if (_connectionHandle != 0xffff) {
    2fb0:	4299      	cmp	r1, r3
    2fb2:	d101      	bne.n	2fb8 <_ZN8ATTClass10disconnectEv+0x10>
  return false;
    2fb4:	2000      	movs	r0, #0
}
    2fb6:	bd10      	pop	{r4, pc}
    if (HCI.disconnect(_connectionHandle) != 0) {
    2fb8:	4808      	ldr	r0, [pc, #32]	; (2fdc <_ZN8ATTClass10disconnectEv+0x34>)
    2fba:	f001 fce1 	bl	4980 <_ZN8HCIClass10disconnectEt>
    2fbe:	1e01      	subs	r1, r0, #0
    2fc0:	d1f8      	bne.n	2fb4 <_ZN8ATTClass10disconnectEv+0xc>
    _connectionHandle = 0xffff;
    2fc2:	2301      	movs	r3, #1
    memset(_peerAddress, 0x00, sizeof(_peerAddress));
    2fc4:	0020      	movs	r0, r4
    _connectionHandle = 0xffff;
    2fc6:	425b      	negs	r3, r3
    2fc8:	80e3      	strh	r3, [r4, #6]
    memset(_peerAddress, 0x00, sizeof(_peerAddress));
    2fca:	3008      	adds	r0, #8
    2fcc:	2206      	movs	r2, #6
    2fce:	f006 fa09 	bl	93e4 <memset>
    return true;
    2fd2:	2001      	movs	r0, #1
    2fd4:	e7ef      	b.n	2fb6 <_ZN8ATTClass10disconnectEv+0xe>
    2fd6:	46c0      	nop			; (mov r8, r8)
    2fd8:	0000ffff 	.word	0x0000ffff
    2fdc:	20000490 	.word	0x20000490

00002fe0 <_ZN8ATTClass7centralEv>:
{
    2fe0:	b510      	push	{r4, lr}
    2fe2:	000a      	movs	r2, r1
  if (connected()) {
    2fe4:	4b06      	ldr	r3, [pc, #24]	; (3000 <_ZN8ATTClass7centralEv+0x20>)
  return (_connectionHandle != 0xffff);
    2fe6:	88c9      	ldrh	r1, [r1, #6]
{
    2fe8:	0004      	movs	r4, r0
  if (connected()) {
    2fea:	4299      	cmp	r1, r3
    2fec:	d004      	beq.n	2ff8 <_ZN8ATTClass7centralEv+0x18>
    return BLEDevice(_connectionHandle, _peerAddress);
    2fee:	3208      	adds	r2, #8
    2ff0:	f7ff f9cc 	bl	238c <_ZN9BLEDeviceC1EtPh>
}
    2ff4:	0020      	movs	r0, r4
    2ff6:	bd10      	pop	{r4, pc}
  return BLEDevice();
    2ff8:	f7ff f9b6 	bl	2368 <_ZN9BLEDeviceC1Ev>
    2ffc:	e7fa      	b.n	2ff4 <_ZN8ATTClass7centralEv+0x14>
    2ffe:	46c0      	nop			; (mov r8, r8)
    3000:	0000ffff 	.word	0x0000ffff

00003004 <_ZN8ATTClass12handleNotifyEtPKhi>:
{
    3004:	b5f0      	push	{r4, r5, r6, r7, lr}
    3006:	b087      	sub	sp, #28
    3008:	af02      	add	r7, sp, #8
    300a:	607a      	str	r2, [r7, #4]
    300c:	603b      	str	r3, [r7, #0]
    300e:	81f9      	strh	r1, [r7, #14]
  if (_connectionHandle != 0xffff) {
    3010:	88c6      	ldrh	r6, [r0, #6]
    3012:	4a18      	ldr	r2, [pc, #96]	; (3074 <_ZN8ATTClass12handleNotifyEtPKhi+0x70>)
  return false;
    3014:	2300      	movs	r3, #0
  if (_connectionHandle != 0xffff) {
    3016:	4296      	cmp	r6, r2
    3018:	d028      	beq.n	306c <_ZN8ATTClass12handleNotifyEtPKhi+0x68>
    return true;
    301a:	466b      	mov	r3, sp
    uint8_t notication[_mtu];
    301c:	466a      	mov	r2, sp
    return true;
    301e:	60bb      	str	r3, [r7, #8]
    uint8_t notication[_mtu];
    3020:	89c4      	ldrh	r4, [r0, #14]
    memcpy(&notication[1], &handle, sizeof(handle));
    3022:	2009      	movs	r0, #9
    uint8_t notication[_mtu];
    3024:	1de3      	adds	r3, r4, #7
    3026:	08db      	lsrs	r3, r3, #3
    3028:	00db      	lsls	r3, r3, #3
    302a:	1ad3      	subs	r3, r2, r3
    302c:	469d      	mov	sp, r3
    notication[0] = ATT_OP_HANDLE_NOTIFY;
    302e:	231b      	movs	r3, #27
    uint8_t notication[_mtu];
    3030:	ad02      	add	r5, sp, #8
    notication[0] = ATT_OP_HANDLE_NOTIFY;
    3032:	702b      	strb	r3, [r5, #0]
    memcpy(&notication[1], &handle, sizeof(handle));
    3034:	3b0d      	subs	r3, #13
    3036:	2202      	movs	r2, #2
    3038:	4468      	add	r0, sp
    303a:	18f9      	adds	r1, r7, r3
    303c:	f006 f9b7 	bl	93ae <memcpy>
    length = min((uint16_t)(_mtu - noticationLength), (uint16_t)length);
    3040:	3c03      	subs	r4, #3
    3042:	883a      	ldrh	r2, [r7, #0]
    3044:	b2a4      	uxth	r4, r4
    3046:	4294      	cmp	r4, r2
    3048:	dd00      	ble.n	304c <_ZN8ATTClass12handleNotifyEtPKhi+0x48>
    304a:	0014      	movs	r4, r2
    memcpy(&notication[noticationLength], value, length);
    304c:	0022      	movs	r2, r4
    304e:	6879      	ldr	r1, [r7, #4]
    3050:	1ce8      	adds	r0, r5, #3
    noticationLength += length;
    3052:	3403      	adds	r4, #3
    memcpy(&notication[noticationLength], value, length);
    3054:	f006 f9ab 	bl	93ae <memcpy>
    HCI.sendAclPkt(_connectionHandle, ATT_CID, noticationLength, notication);
    3058:	b2e3      	uxtb	r3, r4
    305a:	9500      	str	r5, [sp, #0]
    305c:	2204      	movs	r2, #4
    305e:	0031      	movs	r1, r6
    3060:	4805      	ldr	r0, [pc, #20]	; (3078 <_ZN8ATTClass12handleNotifyEtPKhi+0x74>)
    3062:	f001 f9a1 	bl	43a8 <_ZN8HCIClass10sendAclPktEthhPv>
    3066:	68bb      	ldr	r3, [r7, #8]
    3068:	469d      	mov	sp, r3
    return true;
    306a:	2301      	movs	r3, #1
}
    306c:	0018      	movs	r0, r3
    306e:	46bd      	mov	sp, r7
    3070:	b005      	add	sp, #20
    3072:	bdf0      	pop	{r4, r5, r6, r7, pc}
    3074:	0000ffff 	.word	0x0000ffff
    3078:	20000490 	.word	0x20000490

0000307c <_ZN8ATTClass9handleIndEtPKhi>:
{
    307c:	b5f0      	push	{r4, r5, r6, r7, lr}
    307e:	b089      	sub	sp, #36	; 0x24
    3080:	af02      	add	r7, sp, #8
    3082:	60ba      	str	r2, [r7, #8]
    3084:	607b      	str	r3, [r7, #4]
    3086:	82f9      	strh	r1, [r7, #22]
  if (_connectionHandle != 0xffff) {
    3088:	88c3      	ldrh	r3, [r0, #6]
{
    308a:	0005      	movs	r5, r0
  if (_connectionHandle != 0xffff) {
    308c:	613b      	str	r3, [r7, #16]
    308e:	001a      	movs	r2, r3
    3090:	4b1e      	ldr	r3, [pc, #120]	; (310c <_ZN8ATTClass9handleIndEtPKhi+0x90>)
  return false;
    3092:	2600      	movs	r6, #0
  if (_connectionHandle != 0xffff) {
    3094:	429a      	cmp	r2, r3
    3096:	d035      	beq.n	3104 <_ZN8ATTClass9handleIndEtPKhi+0x88>
    return true;
    3098:	466b      	mov	r3, sp
    uint8_t indication[_mtu];
    309a:	466a      	mov	r2, sp
    return true;
    309c:	60fb      	str	r3, [r7, #12]
    uint8_t indication[_mtu];
    309e:	89c4      	ldrh	r4, [r0, #14]
    memcpy(&indication[1], &handle, sizeof(handle));
    30a0:	2009      	movs	r0, #9
    uint8_t indication[_mtu];
    30a2:	1de3      	adds	r3, r4, #7
    30a4:	08db      	lsrs	r3, r3, #3
    30a6:	00db      	lsls	r3, r3, #3
    30a8:	1ad3      	subs	r3, r2, r3
    30aa:	469d      	mov	sp, r3
    indication[0] = ATT_OP_HANDLE_IND;
    30ac:	231d      	movs	r3, #29
    uint8_t indication[_mtu];
    30ae:	ae02      	add	r6, sp, #8
    indication[0] = ATT_OP_HANDLE_IND;
    30b0:	7033      	strb	r3, [r6, #0]
    memcpy(&indication[1], &handle, sizeof(handle));
    30b2:	3b07      	subs	r3, #7
    30b4:	2202      	movs	r2, #2
    30b6:	4468      	add	r0, sp
    30b8:	18f9      	adds	r1, r7, r3
    30ba:	f006 f978 	bl	93ae <memcpy>
    length = min((uint16_t)(_mtu - indicationLength), (uint16_t)length);
    30be:	3c03      	subs	r4, #3
    30c0:	88ba      	ldrh	r2, [r7, #4]
    30c2:	b2a4      	uxth	r4, r4
    30c4:	4294      	cmp	r4, r2
    30c6:	dd00      	ble.n	30ca <_ZN8ATTClass9handleIndEtPKhi+0x4e>
    30c8:	0014      	movs	r4, r2
    memcpy(&indication[indicationLength], value, length);
    30ca:	0022      	movs	r2, r4
    30cc:	68b9      	ldr	r1, [r7, #8]
    30ce:	1cf0      	adds	r0, r6, #3
    30d0:	f006 f96d 	bl	93ae <memcpy>
    _cnf = false;
    30d4:	2300      	movs	r3, #0
    indicationLength += length;
    30d6:	3403      	adds	r4, #3
    _cnf = false;
    30d8:	742b      	strb	r3, [r5, #16]
    HCI.sendAclPkt(_connectionHandle, ATT_CID, indicationLength, indication);
    30da:	b2e3      	uxtb	r3, r4
    30dc:	4c0c      	ldr	r4, [pc, #48]	; (3110 <_ZN8ATTClass9handleIndEtPKhi+0x94>)
    30de:	9600      	str	r6, [sp, #0]
    30e0:	2204      	movs	r2, #4
    30e2:	6939      	ldr	r1, [r7, #16]
    30e4:	0020      	movs	r0, r4
    30e6:	f001 f95f 	bl	43a8 <_ZN8HCIClass10sendAclPktEthhPv>
    while (!_cnf) {
    30ea:	7c2e      	ldrb	r6, [r5, #16]
    30ec:	b2f6      	uxtb	r6, r6
    30ee:	2e00      	cmp	r6, #0
    30f0:	d106      	bne.n	3100 <_ZN8ATTClass9handleIndEtPKhi+0x84>
      HCI.poll();
    30f2:	0020      	movs	r0, r4
    30f4:	f001 fa5e 	bl	45b4 <_ZN8HCIClass4pollEv>
      if (!connected()) {
    30f8:	88eb      	ldrh	r3, [r5, #6]
    30fa:	4a04      	ldr	r2, [pc, #16]	; (310c <_ZN8ATTClass9handleIndEtPKhi+0x90>)
    30fc:	4293      	cmp	r3, r2
    30fe:	d1f4      	bne.n	30ea <_ZN8ATTClass9handleIndEtPKhi+0x6e>
    3100:	68fb      	ldr	r3, [r7, #12]
    3102:	469d      	mov	sp, r3
}
    3104:	0030      	movs	r0, r6
    3106:	46bd      	mov	sp, r7
    3108:	b007      	add	sp, #28
    310a:	bdf0      	pop	{r4, r5, r6, r7, pc}
    310c:	0000ffff 	.word	0x0000ffff
    3110:	20000490 	.word	0x20000490

00003114 <_ZN8ATTClass6mtuReqEthPh>:
{
    3114:	b5f0      	push	{r4, r5, r6, r7, lr}
    3116:	000f      	movs	r7, r1
    3118:	b085      	sub	sp, #20
  if (dlen != 2) {
    311a:	2a02      	cmp	r2, #2
    311c:	d007      	beq.n	312e <_ZN8ATTClass6mtuReqEthPh+0x1a>
    sendError(connectionHandle, ATT_OP_MTU_REQ, 0x0000, ATT_ECODE_INVALID_PDU);
    311e:	2304      	movs	r3, #4
    3120:	2200      	movs	r2, #0
    3122:	2102      	movs	r1, #2
    3124:	0038      	movs	r0, r7
    3126:	f7ff fe65 	bl	2df4 <_ZN8ATTClass9sendErrorEthth.constprop.3>
}
    312a:	b005      	add	sp, #20
    312c:	bdf0      	pop	{r4, r5, r6, r7, pc}
  uint16_t mtu = *(uint16_t*)data;
    312e:	881c      	ldrh	r4, [r3, #0]
  if (mtu > _maxMtu) {
    3130:	8883      	ldrh	r3, [r0, #4]
    3132:	429c      	cmp	r4, r3
    3134:	dd00      	ble.n	3138 <_ZN8ATTClass6mtuReqEthPh+0x24>
    mtu = _maxMtu;
    3136:	001c      	movs	r4, r3
  } mtuResp = { ATT_OP_MTU_RESP, mtu };
    3138:	2503      	movs	r5, #3
    313a:	ae03      	add	r6, sp, #12
  _mtu = mtu;
    313c:	81c4      	strh	r4, [r0, #14]
  } mtuResp = { ATT_OP_MTU_RESP, mtu };
    313e:	002a      	movs	r2, r5
    3140:	2100      	movs	r1, #0
    3142:	0030      	movs	r0, r6
    3144:	f006 f94e 	bl	93e4 <memset>
    3148:	230d      	movs	r3, #13
    314a:	446b      	add	r3, sp
    314c:	701c      	strb	r4, [r3, #0]
    314e:	0a24      	lsrs	r4, r4, #8
    3150:	705c      	strb	r4, [r3, #1]
    3152:	7035      	strb	r5, [r6, #0]
  HCI.sendAclPkt(connectionHandle, ATT_CID, sizeof(mtuResp), &mtuResp);
    3154:	002b      	movs	r3, r5
    3156:	9600      	str	r6, [sp, #0]
    3158:	2204      	movs	r2, #4
    315a:	0039      	movs	r1, r7
    315c:	4801      	ldr	r0, [pc, #4]	; (3164 <_ZN8ATTClass6mtuReqEthPh+0x50>)
    315e:	f001 f923 	bl	43a8 <_ZN8HCIClass10sendAclPktEthhPv>
    3162:	e7e2      	b.n	312a <_ZN8ATTClass6mtuReqEthPh+0x16>
    3164:	20000490 	.word	0x20000490

00003168 <_ZN8ATTClass11findInfoReqEthPh>:
{
    3168:	b5f0      	push	{r4, r5, r6, r7, lr}
    316a:	b08d      	sub	sp, #52	; 0x34
    316c:	af02      	add	r7, sp, #8
    316e:	61bb      	str	r3, [r7, #24]
  }
    3170:	466b      	mov	r3, sp
{
    3172:	6078      	str	r0, [r7, #4]
    3174:	60b9      	str	r1, [r7, #8]
  }
    3176:	603b      	str	r3, [r7, #0]
  if (dlen != sizeof(FindInfoReq)) {
    3178:	2a04      	cmp	r2, #4
    317a:	d00d      	beq.n	3198 <_ZN8ATTClass11findInfoReqEthPh+0x30>
    sendError(connectionHandle, ATT_OP_FIND_INFO_REQ, findInfoReq->startHandle, ATT_ECODE_INVALID_PDU);
    317c:	69ba      	ldr	r2, [r7, #24]
    317e:	69bb      	ldr	r3, [r7, #24]
    3180:	7852      	ldrb	r2, [r2, #1]
    3182:	781b      	ldrb	r3, [r3, #0]
    3184:	0212      	lsls	r2, r2, #8
    3186:	431a      	orrs	r2, r3
    3188:	2304      	movs	r3, #4
    318a:	68b8      	ldr	r0, [r7, #8]
    318c:	0019      	movs	r1, r3
    318e:	f7ff fe31 	bl	2df4 <_ZN8ATTClass9sendErrorEthth.constprop.3>
}
    3192:	46bd      	mov	sp, r7
    3194:	b00b      	add	sp, #44	; 0x2c
    3196:	bdf0      	pop	{r4, r5, r6, r7, pc}
  uint8_t response[_mtu];
    3198:	466a      	mov	r2, sp
    319a:	687b      	ldr	r3, [r7, #4]
  responseLength = 2;
    319c:	2602      	movs	r6, #2
  uint8_t response[_mtu];
    319e:	89db      	ldrh	r3, [r3, #14]
    31a0:	3307      	adds	r3, #7
    31a2:	08db      	lsrs	r3, r3, #3
    31a4:	00db      	lsls	r3, r3, #3
    31a6:	1ad3      	subs	r3, r2, r3
    31a8:	469d      	mov	sp, r3
    31aa:	ab02      	add	r3, sp, #8
    31ac:	61fb      	str	r3, [r7, #28]
  response[0] = ATT_OP_FIND_INFO_RESP;
    31ae:	2305      	movs	r3, #5
    31b0:	69fa      	ldr	r2, [r7, #28]
    31b2:	7013      	strb	r3, [r2, #0]
  response[1] = 0x00;
    31b4:	2300      	movs	r3, #0
    31b6:	7053      	strb	r3, [r2, #1]
  for (uint16_t i = (findInfoReq->startHandle - 1); i < GATT.attributeCount() && i <= (findInfoReq->endHandle - 1); i++) {
    31b8:	69bb      	ldr	r3, [r7, #24]
    31ba:	781a      	ldrb	r2, [r3, #0]
    31bc:	785b      	ldrb	r3, [r3, #1]
    31be:	021b      	lsls	r3, r3, #8
    31c0:	4313      	orrs	r3, r2
    31c2:	3b01      	subs	r3, #1
    31c4:	b29b      	uxth	r3, r3
    31c6:	617b      	str	r3, [r7, #20]
    31c8:	4c49      	ldr	r4, [pc, #292]	; (32f0 <_ZN8ATTClass11findInfoReqEthPh+0x188>)
    31ca:	0020      	movs	r0, r4
    31cc:	f000 ff66 	bl	409c <_ZNK9GATTClass14attributeCountEv>
    31d0:	697b      	ldr	r3, [r7, #20]
    31d2:	4283      	cmp	r3, r0
    31d4:	d207      	bcs.n	31e6 <_ZN8ATTClass11findInfoReqEthPh+0x7e>
    31d6:	69bb      	ldr	r3, [r7, #24]
    31d8:	789a      	ldrb	r2, [r3, #2]
    31da:	78db      	ldrb	r3, [r3, #3]
    31dc:	021b      	lsls	r3, r3, #8
    31de:	4313      	orrs	r3, r2
    31e0:	697a      	ldr	r2, [r7, #20]
    31e2:	4293      	cmp	r3, r2
    31e4:	dc21      	bgt.n	322a <_ZN8ATTClass11findInfoReqEthPh+0xc2>
  if (responseLength == 2) {
    31e6:	2e02      	cmp	r6, #2
    31e8:	d116      	bne.n	3218 <_ZN8ATTClass11findInfoReqEthPh+0xb0>
    sendError(connectionHandle, ATT_OP_FIND_INFO_REQ, findInfoReq->startHandle, ATT_ECODE_ATTR_NOT_FOUND);
    31ea:	69ba      	ldr	r2, [r7, #24]
    31ec:	69bb      	ldr	r3, [r7, #24]
    31ee:	7852      	ldrb	r2, [r2, #1]
    31f0:	781b      	ldrb	r3, [r3, #0]
    31f2:	0212      	lsls	r2, r2, #8
    31f4:	431a      	orrs	r2, r3
    31f6:	2104      	movs	r1, #4
    31f8:	230a      	movs	r3, #10
    31fa:	68b8      	ldr	r0, [r7, #8]
    31fc:	f7ff fdfa 	bl	2df4 <_ZN8ATTClass9sendErrorEthth.constprop.3>
    3200:	683b      	ldr	r3, [r7, #0]
    3202:	469d      	mov	sp, r3
    3204:	e7c5      	b.n	3192 <_ZN8ATTClass11findInfoReqEthPh+0x2a>
    int uuidLen = isValueHandle ? 2 : attribute->uuidLength();
    3206:	2302      	movs	r3, #2
    3208:	613b      	str	r3, [r7, #16]
    bool isValueHandle = (attribute->type() == BLETypeCharacteristic) && (((BLELocalCharacteristic*)attribute)->valueHandle() == handle);
    320a:	3b01      	subs	r3, #1
    320c:	60fb      	str	r3, [r7, #12]
    320e:	e02c      	b.n	326a <_ZN8ATTClass11findInfoReqEthPh+0x102>
    3210:	2300      	movs	r3, #0
    3212:	60fb      	str	r3, [r7, #12]
    int infoType = (uuidLen == 2) ? 0x01 : 0x02;
    3214:	3301      	adds	r3, #1
    3216:	e028      	b.n	326a <_ZN8ATTClass11findInfoReqEthPh+0x102>
    HCI.sendAclPkt(connectionHandle, ATT_CID, responseLength, response);
    3218:	69fa      	ldr	r2, [r7, #28]
    321a:	b2f3      	uxtb	r3, r6
    321c:	9200      	str	r2, [sp, #0]
    321e:	68b9      	ldr	r1, [r7, #8]
    3220:	2204      	movs	r2, #4
    3222:	4834      	ldr	r0, [pc, #208]	; (32f4 <_ZN8ATTClass11findInfoReqEthPh+0x18c>)
    3224:	f001 f8c0 	bl	43a8 <_ZN8HCIClass10sendAclPktEthhPv>
    3228:	e7ea      	b.n	3200 <_ZN8ATTClass11findInfoReqEthPh+0x98>
    BLEAttribute* attribute = GATT.attribute(i);
    322a:	6979      	ldr	r1, [r7, #20]
    322c:	0020      	movs	r0, r4
    322e:	f000 ff5c 	bl	40ea <_ZNK9GATTClass9attributeEj>
    uint16_t handle = (i + 1);
    3232:	697b      	ldr	r3, [r7, #20]
    BLEAttribute* attribute = GATT.attribute(i);
    3234:	0005      	movs	r5, r0
    uint16_t handle = (i + 1);
    3236:	3301      	adds	r3, #1
    3238:	b29b      	uxth	r3, r3
    323a:	617b      	str	r3, [r7, #20]
    323c:	8abb      	ldrh	r3, [r7, #20]
    323e:	84bb      	strh	r3, [r7, #36]	; 0x24
    bool isValueHandle = (attribute->type() == BLETypeCharacteristic) && (((BLELocalCharacteristic*)attribute)->valueHandle() == handle);
    3240:	6803      	ldr	r3, [r0, #0]
    3242:	689b      	ldr	r3, [r3, #8]
    3244:	4798      	blx	r3
    3246:	4b2c      	ldr	r3, [pc, #176]	; (32f8 <_ZN8ATTClass11findInfoReqEthPh+0x190>)
    3248:	4298      	cmp	r0, r3
    324a:	d105      	bne.n	3258 <_ZN8ATTClass11findInfoReqEthPh+0xf0>
    324c:	0028      	movs	r0, r5
    324e:	f7ff fa75 	bl	273c <_ZNK22BLELocalCharacteristic11valueHandleEv>
    3252:	697b      	ldr	r3, [r7, #20]
    3254:	4283      	cmp	r3, r0
    3256:	d0d6      	beq.n	3206 <_ZN8ATTClass11findInfoReqEthPh+0x9e>
    int uuidLen = isValueHandle ? 2 : attribute->uuidLength();
    3258:	0028      	movs	r0, r5
    325a:	f7fe ff7d 	bl	2158 <_ZNK12BLEAttribute10uuidLengthEv>
    325e:	6138      	str	r0, [r7, #16]
    int infoType = (uuidLen == 2) ? 0x01 : 0x02;
    3260:	2802      	cmp	r0, #2
    3262:	d0d5      	beq.n	3210 <_ZN8ATTClass11findInfoReqEthPh+0xa8>
    3264:	2300      	movs	r3, #0
    3266:	60fb      	str	r3, [r7, #12]
    3268:	3302      	adds	r3, #2
    if (response[1] == 0) {
    326a:	69fa      	ldr	r2, [r7, #28]
    326c:	7852      	ldrb	r2, [r2, #1]
    326e:	2a00      	cmp	r2, #0
    3270:	d101      	bne.n	3276 <_ZN8ATTClass11findInfoReqEthPh+0x10e>
      response[1] = infoType;
    3272:	69fa      	ldr	r2, [r7, #28]
    3274:	7053      	strb	r3, [r2, #1]
    if (response[1] != infoType) {
    3276:	69fa      	ldr	r2, [r7, #28]
    3278:	7852      	ldrb	r2, [r2, #1]
    327a:	4293      	cmp	r3, r2
    327c:	d1b3      	bne.n	31e6 <_ZN8ATTClass11findInfoReqEthPh+0x7e>
    memcpy(&response[responseLength], &handle, sizeof(handle));
    327e:	69fb      	ldr	r3, [r7, #28]
    3280:	2202      	movs	r2, #2
    3282:	1998      	adds	r0, r3, r6
    3284:	2324      	movs	r3, #36	; 0x24
    3286:	18f9      	adds	r1, r7, r3
    3288:	f006 f891 	bl	93ae <memcpy>
    if (isValueHandle || attribute->type() == BLETypeDescriptor) {
    328c:	68fb      	ldr	r3, [r7, #12]
    responseLength += sizeof(handle);
    328e:	1cb4      	adds	r4, r6, #2
    3290:	b2a4      	uxth	r4, r4
    if (isValueHandle || attribute->type() == BLETypeDescriptor) {
    3292:	2b00      	cmp	r3, #0
    3294:	d107      	bne.n	32a6 <_ZN8ATTClass11findInfoReqEthPh+0x13e>
    3296:	682b      	ldr	r3, [r5, #0]
    3298:	0028      	movs	r0, r5
    329a:	689b      	ldr	r3, [r3, #8]
    329c:	4798      	blx	r3
    329e:	23a4      	movs	r3, #164	; 0xa4
    32a0:	019b      	lsls	r3, r3, #6
    32a2:	4298      	cmp	r0, r3
    32a4:	d115      	bne.n	32d2 <_ZN8ATTClass11findInfoReqEthPh+0x16a>
      memcpy(&response[responseLength], attribute->uuidData(), uuidLen);
    32a6:	69fb      	ldr	r3, [r7, #28]
    32a8:	0028      	movs	r0, r5
    32aa:	191e      	adds	r6, r3, r4
    32ac:	f7fe ff4f 	bl	214e <_ZNK12BLEAttribute8uuidDataEv>
    32b0:	693a      	ldr	r2, [r7, #16]
    32b2:	0001      	movs	r1, r0
    32b4:	0030      	movs	r0, r6
    32b6:	f006 f87a 	bl	93ae <memcpy>
      responseLength += uuidLen;
    32ba:	693b      	ldr	r3, [r7, #16]
    32bc:	18e4      	adds	r4, r4, r3
    32be:	b2a6      	uxth	r6, r4
    if ((responseLength + (2 + uuidLen)) > _mtu) {
    32c0:	693b      	ldr	r3, [r7, #16]
    32c2:	687a      	ldr	r2, [r7, #4]
    32c4:	3302      	adds	r3, #2
    32c6:	89d2      	ldrh	r2, [r2, #14]
    32c8:	199b      	adds	r3, r3, r6
    32ca:	4293      	cmp	r3, r2
    32cc:	dc00      	bgt.n	32d0 <_ZN8ATTClass11findInfoReqEthPh+0x168>
    32ce:	e77b      	b.n	31c8 <_ZN8ATTClass11findInfoReqEthPh+0x60>
    32d0:	e789      	b.n	31e6 <_ZN8ATTClass11findInfoReqEthPh+0x7e>
      uint16_t type = attribute->type();
    32d2:	682b      	ldr	r3, [r5, #0]
    32d4:	0028      	movs	r0, r5
    32d6:	689b      	ldr	r3, [r3, #8]
    32d8:	4798      	blx	r3
      memcpy(&response[responseLength], &type, sizeof(type));
    32da:	69fb      	ldr	r3, [r7, #28]
      uint16_t type = attribute->type();
    32dc:	84f8      	strh	r0, [r7, #38]	; 0x26
      memcpy(&response[responseLength], &type, sizeof(type));
    32de:	1918      	adds	r0, r3, r4
    32e0:	2326      	movs	r3, #38	; 0x26
    32e2:	2202      	movs	r2, #2
    32e4:	18f9      	adds	r1, r7, r3
      responseLength += sizeof(type);
    32e6:	3604      	adds	r6, #4
      memcpy(&response[responseLength], &type, sizeof(type));
    32e8:	f006 f861 	bl	93ae <memcpy>
      responseLength += sizeof(type);
    32ec:	b2b6      	uxth	r6, r6
    32ee:	e7e7      	b.n	32c0 <_ZN8ATTClass11findInfoReqEthPh+0x158>
    32f0:	20000324 	.word	0x20000324
    32f4:	20000490 	.word	0x20000490
    32f8:	00002803 	.word	0x00002803

000032fc <_ZN8ATTClass13findByTypeReqEthPh>:
{
    32fc:	b5f0      	push	{r4, r5, r6, r7, lr}
    32fe:	b08b      	sub	sp, #44	; 0x2c
    3300:	001c      	movs	r4, r3
  }
    3302:	466b      	mov	r3, sp
{
    3304:	af02      	add	r7, sp, #8
    3306:	60f9      	str	r1, [r7, #12]
    3308:	6078      	str	r0, [r7, #4]
  }
    330a:	603b      	str	r3, [r7, #0]
    330c:	7821      	ldrb	r1, [r4, #0]
  if (dlen < sizeof(FindByTypeReq)) {
    330e:	2a05      	cmp	r2, #5
    3310:	d80a      	bhi.n	3328 <_ZN8ATTClass13findByTypeReqEthPh+0x2c>
    sendError(connectionHandle, ATT_OP_FIND_BY_TYPE_RESP, findByTypeReq->startHandle, ATT_ECODE_INVALID_PDU);
    3312:	7862      	ldrb	r2, [r4, #1]
    3314:	2304      	movs	r3, #4
    3316:	0212      	lsls	r2, r2, #8
    3318:	430a      	orrs	r2, r1
    331a:	68f8      	ldr	r0, [r7, #12]
    331c:	2107      	movs	r1, #7
    331e:	f7ff fd69 	bl	2df4 <_ZN8ATTClass9sendErrorEthth.constprop.3>
}
    3322:	46bd      	mov	sp, r7
    3324:	b009      	add	sp, #36	; 0x24
    3326:	bdf0      	pop	{r4, r5, r6, r7, pc}
  uint8_t response[_mtu];
    3328:	4668      	mov	r0, sp
    332a:	687b      	ldr	r3, [r7, #4]
    332c:	89db      	ldrh	r3, [r3, #14]
    332e:	3307      	adds	r3, #7
    3330:	08db      	lsrs	r3, r3, #3
    3332:	00db      	lsls	r3, r3, #3
    3334:	1ac3      	subs	r3, r0, r3
    3336:	469d      	mov	sp, r3
    3338:	ab02      	add	r3, sp, #8
    333a:	613b      	str	r3, [r7, #16]
  response[0] = ATT_OP_FIND_BY_TYPE_RESP;
    333c:	2307      	movs	r3, #7
    333e:	6938      	ldr	r0, [r7, #16]
    3340:	7003      	strb	r3, [r0, #0]
  if (findByTypeReq->type == BLETypeService) {
    3342:	20a0      	movs	r0, #160	; 0xa0
    3344:	7963      	ldrb	r3, [r4, #5]
    3346:	7925      	ldrb	r5, [r4, #4]
    3348:	021b      	lsls	r3, r3, #8
    334a:	0180      	lsls	r0, r0, #6
    334c:	432b      	orrs	r3, r5
    334e:	4283      	cmp	r3, r0
    3350:	d00b      	beq.n	336a <_ZN8ATTClass13findByTypeReqEthPh+0x6e>
    sendError(connectionHandle, ATT_OP_FIND_BY_TYPE_RESP, findByTypeReq->startHandle, ATT_ECODE_ATTR_NOT_FOUND);
    3352:	7862      	ldrb	r2, [r4, #1]
    3354:	7823      	ldrb	r3, [r4, #0]
    3356:	0212      	lsls	r2, r2, #8
    3358:	431a      	orrs	r2, r3
    335a:	2107      	movs	r1, #7
    335c:	230a      	movs	r3, #10
    335e:	68f8      	ldr	r0, [r7, #12]
    3360:	f7ff fd48 	bl	2df4 <_ZN8ATTClass9sendErrorEthth.constprop.3>
    3364:	683b      	ldr	r3, [r7, #0]
    3366:	469d      	mov	sp, r3
    3368:	e7db      	b.n	3322 <_ZN8ATTClass13findByTypeReqEthPh+0x26>
  responseLength = 1;
    336a:	2501      	movs	r5, #1
  uint16_t valueLength = dlen - sizeof(*findByTypeReq);
    336c:	3a06      	subs	r2, #6
    336e:	b293      	uxth	r3, r2
    for (uint16_t i = (findByTypeReq->startHandle - 1); i < GATT.attributeCount() && i <= (findByTypeReq->endHandle - 1); i++) {
    3370:	7862      	ldrb	r2, [r4, #1]
  uint16_t valueLength = dlen - sizeof(*findByTypeReq);
    3372:	60bb      	str	r3, [r7, #8]
    for (uint16_t i = (findByTypeReq->startHandle - 1); i < GATT.attributeCount() && i <= (findByTypeReq->endHandle - 1); i++) {
    3374:	0212      	lsls	r2, r2, #8
    3376:	430a      	orrs	r2, r1
    3378:	3a01      	subs	r2, #1
    337a:	b293      	uxth	r3, r2
    337c:	617b      	str	r3, [r7, #20]
    337e:	4e2d      	ldr	r6, [pc, #180]	; (3434 <_ZN8ATTClass13findByTypeReqEthPh+0x138>)
    3380:	0030      	movs	r0, r6
    3382:	f000 fe8b 	bl	409c <_ZNK9GATTClass14attributeCountEv>
    3386:	697b      	ldr	r3, [r7, #20]
    3388:	4283      	cmp	r3, r0
    338a:	d206      	bcs.n	339a <_ZN8ATTClass13findByTypeReqEthPh+0x9e>
    338c:	78e3      	ldrb	r3, [r4, #3]
    338e:	78a2      	ldrb	r2, [r4, #2]
    3390:	021b      	lsls	r3, r3, #8
    3392:	4313      	orrs	r3, r2
    3394:	697a      	ldr	r2, [r7, #20]
    3396:	4293      	cmp	r3, r2
    3398:	dc0a      	bgt.n	33b0 <_ZN8ATTClass13findByTypeReqEthPh+0xb4>
  if (responseLength == 1) {
    339a:	2d01      	cmp	r5, #1
    339c:	d0d9      	beq.n	3352 <_ZN8ATTClass13findByTypeReqEthPh+0x56>
    HCI.sendAclPkt(connectionHandle, ATT_CID, responseLength, response);
    339e:	693a      	ldr	r2, [r7, #16]
    33a0:	b2eb      	uxtb	r3, r5
    33a2:	9200      	str	r2, [sp, #0]
    33a4:	68f9      	ldr	r1, [r7, #12]
    33a6:	2204      	movs	r2, #4
    33a8:	4823      	ldr	r0, [pc, #140]	; (3438 <_ZN8ATTClass13findByTypeReqEthPh+0x13c>)
    33aa:	f000 fffd 	bl	43a8 <_ZN8HCIClass10sendAclPktEthhPv>
    33ae:	e7d9      	b.n	3364 <_ZN8ATTClass13findByTypeReqEthPh+0x68>
      BLEAttribute* attribute = GATT.attribute(i);
    33b0:	6979      	ldr	r1, [r7, #20]
    33b2:	0030      	movs	r0, r6
    33b4:	f000 fe99 	bl	40ea <_ZNK9GATTClass9attributeEj>
      if ((attribute->type() == findByTypeReq->type) && (attribute->uuidLength() == valueLength) && memcmp(attribute->uuidData(), value, valueLength) == 0) {
    33b8:	6803      	ldr	r3, [r0, #0]
      BLEAttribute* attribute = GATT.attribute(i);
    33ba:	0006      	movs	r6, r0
      if ((attribute->type() == findByTypeReq->type) && (attribute->uuidLength() == valueLength) && memcmp(attribute->uuidData(), value, valueLength) == 0) {
    33bc:	689b      	ldr	r3, [r3, #8]
    33be:	4798      	blx	r3
    33c0:	7963      	ldrb	r3, [r4, #5]
    33c2:	7922      	ldrb	r2, [r4, #4]
    33c4:	021b      	lsls	r3, r3, #8
    33c6:	4313      	orrs	r3, r2
    33c8:	4298      	cmp	r0, r3
    33ca:	d10e      	bne.n	33ea <_ZN8ATTClass13findByTypeReqEthPh+0xee>
    33cc:	0030      	movs	r0, r6
    33ce:	f7fe fec3 	bl	2158 <_ZNK12BLEAttribute10uuidLengthEv>
    33d2:	68bb      	ldr	r3, [r7, #8]
    33d4:	4298      	cmp	r0, r3
    33d6:	d108      	bne.n	33ea <_ZN8ATTClass13findByTypeReqEthPh+0xee>
    33d8:	0030      	movs	r0, r6
    33da:	f7fe feb8 	bl	214e <_ZNK12BLEAttribute8uuidDataEv>
  uint8_t* value = &data[sizeof(*findByTypeReq)];
    33de:	1da1      	adds	r1, r4, #6
      if ((attribute->type() == findByTypeReq->type) && (attribute->uuidLength() == valueLength) && memcmp(attribute->uuidData(), value, valueLength) == 0) {
    33e0:	68ba      	ldr	r2, [r7, #8]
    33e2:	f005 ffd5 	bl	9390 <memcmp>
    33e6:	2800      	cmp	r0, #0
    33e8:	d009      	beq.n	33fe <_ZN8ATTClass13findByTypeReqEthPh+0x102>
      if ((responseLength + 4) > _mtu) {
    33ea:	687a      	ldr	r2, [r7, #4]
    33ec:	1ceb      	adds	r3, r5, #3
    33ee:	89d2      	ldrh	r2, [r2, #14]
    33f0:	4293      	cmp	r3, r2
    33f2:	dad2      	bge.n	339a <_ZN8ATTClass13findByTypeReqEthPh+0x9e>
    for (uint16_t i = (findByTypeReq->startHandle - 1); i < GATT.attributeCount() && i <= (findByTypeReq->endHandle - 1); i++) {
    33f4:	697a      	ldr	r2, [r7, #20]
    33f6:	3201      	adds	r2, #1
    33f8:	b293      	uxth	r3, r2
    33fa:	617b      	str	r3, [r7, #20]
    33fc:	e7bf      	b.n	337e <_ZN8ATTClass13findByTypeReqEthPh+0x82>
        uint16_t startHandle = service->startHandle();
    33fe:	0030      	movs	r0, r6
    3400:	f7ff fc5f 	bl	2cc2 <_ZNK15BLELocalService11startHandleEv>
        memcpy(&response[responseLength], &startHandle, sizeof(startHandle));
    3404:	693b      	ldr	r3, [r7, #16]
        uint16_t startHandle = service->startHandle();
    3406:	83b8      	strh	r0, [r7, #28]
        memcpy(&response[responseLength], &startHandle, sizeof(startHandle));
    3408:	1958      	adds	r0, r3, r5
    340a:	231c      	movs	r3, #28
    340c:	2202      	movs	r2, #2
    340e:	18f9      	adds	r1, r7, r3
    3410:	f005 ffcd 	bl	93ae <memcpy>
        uint16_t endHandle = service->endHandle();
    3414:	0030      	movs	r0, r6
    3416:	f7ff fc56 	bl	2cc6 <_ZNK15BLELocalService9endHandleEv>
        memcpy(&response[responseLength], &endHandle, sizeof(endHandle));
    341a:	693b      	ldr	r3, [r7, #16]
        uint16_t endHandle = service->endHandle();
    341c:	83f8      	strh	r0, [r7, #30]
        responseLength += sizeof(startHandle);
    341e:	1ca8      	adds	r0, r5, #2
        memcpy(&response[responseLength], &endHandle, sizeof(endHandle));
    3420:	b280      	uxth	r0, r0
    3422:	1818      	adds	r0, r3, r0
    3424:	231e      	movs	r3, #30
    3426:	2202      	movs	r2, #2
    3428:	18f9      	adds	r1, r7, r3
        responseLength += sizeof(endHandle);
    342a:	3504      	adds	r5, #4
        memcpy(&response[responseLength], &endHandle, sizeof(endHandle));
    342c:	f005 ffbf 	bl	93ae <memcpy>
        responseLength += sizeof(endHandle);
    3430:	b2ad      	uxth	r5, r5
    3432:	e7da      	b.n	33ea <_ZN8ATTClass13findByTypeReqEthPh+0xee>
    3434:	20000324 	.word	0x20000324
    3438:	20000490 	.word	0x20000490

0000343c <_ZN8ATTClass14readByGroupReqEthPh>:
{
    343c:	b5f0      	push	{r4, r5, r6, r7, lr}
    343e:	b08f      	sub	sp, #60	; 0x3c
    3440:	001e      	movs	r6, r3
  }
    3442:	466b      	mov	r3, sp
{
    3444:	af02      	add	r7, sp, #8
    3446:	60b8      	str	r0, [r7, #8]
    3448:	6179      	str	r1, [r7, #20]
  }
    344a:	60fb      	str	r3, [r7, #12]
  if (dlen != sizeof(ReadByGroupReq) || (readByGroupReq->uuid != BLETypeService && readByGroupReq->uuid != 0x2801)) {
    344c:	2a06      	cmp	r2, #6
    344e:	d107      	bne.n	3460 <_ZN8ATTClass14readByGroupReqEthPh+0x24>
    3450:	7973      	ldrb	r3, [r6, #5]
    3452:	7931      	ldrb	r1, [r6, #4]
    3454:	021b      	lsls	r3, r3, #8
    3456:	430b      	orrs	r3, r1
    3458:	4955      	ldr	r1, [pc, #340]	; (35b0 <_ZN8ATTClass14readByGroupReqEthPh+0x174>)
    345a:	185b      	adds	r3, r3, r1
    345c:	2b01      	cmp	r3, #1
    345e:	d90d      	bls.n	347c <_ZN8ATTClass14readByGroupReqEthPh+0x40>
    sendError(connectionHandle, ATT_OP_READ_BY_GROUP_REQ, readByGroupReq->startHandle, ATT_ECODE_UNSUPP_GRP_TYPE);
    3460:	7872      	ldrb	r2, [r6, #1]
    3462:	7833      	ldrb	r3, [r6, #0]
    3464:	0212      	lsls	r2, r2, #8
    3466:	431a      	orrs	r2, r3
    3468:	2310      	movs	r3, #16
    346a:	0019      	movs	r1, r3
    sendError(connectionHandle, ATT_OP_READ_BY_GROUP_REQ, readByGroupReq->startHandle, ATT_ECODE_ATTR_NOT_FOUND);
    346c:	6978      	ldr	r0, [r7, #20]
    346e:	f7ff fcc1 	bl	2df4 <_ZN8ATTClass9sendErrorEthth.constprop.3>
    3472:	68fb      	ldr	r3, [r7, #12]
    3474:	469d      	mov	sp, r3
}
    3476:	46bd      	mov	sp, r7
    3478:	b00d      	add	sp, #52	; 0x34
    347a:	bdf0      	pop	{r4, r5, r6, r7, pc}
  uint8_t response[_mtu];
    347c:	4669      	mov	r1, sp
    347e:	68bb      	ldr	r3, [r7, #8]
    3480:	89db      	ldrh	r3, [r3, #14]
    3482:	3307      	adds	r3, #7
    3484:	08db      	lsrs	r3, r3, #3
    3486:	00db      	lsls	r3, r3, #3
    3488:	1acb      	subs	r3, r1, r3
    348a:	469d      	mov	sp, r3
    348c:	ab02      	add	r3, sp, #8
    348e:	627b      	str	r3, [r7, #36]	; 0x24
  response[0] = ATT_OP_READ_BY_GROUP_RESP;
    3490:	2311      	movs	r3, #17
    3492:	6a79      	ldr	r1, [r7, #36]	; 0x24
    3494:	700b      	strb	r3, [r1, #0]
  response[1] = 0x00;
    3496:	2300      	movs	r3, #0
    3498:	704b      	strb	r3, [r1, #1]
  for (uint16_t i = (readByGroupReq->startHandle - 1); i < GATT.attributeCount() && i <= (readByGroupReq->endHandle - 1); i++) {
    349a:	7873      	ldrb	r3, [r6, #1]
    349c:	7831      	ldrb	r1, [r6, #0]
    349e:	021b      	lsls	r3, r3, #8
    34a0:	430b      	orrs	r3, r1
    34a2:	3b01      	subs	r3, #1
    34a4:	b29b      	uxth	r3, r3
    34a6:	61fb      	str	r3, [r7, #28]
  responseLength = 2;
    34a8:	2302      	movs	r3, #2
    int infoSize = (uuidLen == 2) ? 6 : 20;
    34aa:	607a      	str	r2, [r7, #4]
  responseLength = 2;
    34ac:	623b      	str	r3, [r7, #32]
  for (uint16_t i = (readByGroupReq->startHandle - 1); i < GATT.attributeCount() && i <= (readByGroupReq->endHandle - 1); i++) {
    34ae:	4c41      	ldr	r4, [pc, #260]	; (35b4 <_ZN8ATTClass14readByGroupReqEthPh+0x178>)
    34b0:	0020      	movs	r0, r4
    34b2:	f000 fdf3 	bl	409c <_ZNK9GATTClass14attributeCountEv>
    34b6:	69fb      	ldr	r3, [r7, #28]
    34b8:	4283      	cmp	r3, r0
    34ba:	d206      	bcs.n	34ca <_ZN8ATTClass14readByGroupReqEthPh+0x8e>
    34bc:	78f3      	ldrb	r3, [r6, #3]
    34be:	78b2      	ldrb	r2, [r6, #2]
    34c0:	021b      	lsls	r3, r3, #8
    34c2:	4313      	orrs	r3, r2
    34c4:	69fa      	ldr	r2, [r7, #28]
    34c6:	4293      	cmp	r3, r2
    34c8:	dc14      	bgt.n	34f4 <_ZN8ATTClass14readByGroupReqEthPh+0xb8>
  if (responseLength == 2) {
    34ca:	6a3b      	ldr	r3, [r7, #32]
    34cc:	2b02      	cmp	r3, #2
    34ce:	d106      	bne.n	34de <_ZN8ATTClass14readByGroupReqEthPh+0xa2>
    sendError(connectionHandle, ATT_OP_READ_BY_GROUP_REQ, readByGroupReq->startHandle, ATT_ECODE_ATTR_NOT_FOUND);
    34d0:	7872      	ldrb	r2, [r6, #1]
    34d2:	7833      	ldrb	r3, [r6, #0]
    34d4:	0212      	lsls	r2, r2, #8
    34d6:	431a      	orrs	r2, r3
    34d8:	2110      	movs	r1, #16
    34da:	230a      	movs	r3, #10
    34dc:	e7c6      	b.n	346c <_ZN8ATTClass14readByGroupReqEthPh+0x30>
    HCI.sendAclPkt(connectionHandle, ATT_CID, responseLength, response);
    34de:	2320      	movs	r3, #32
    34e0:	6a7a      	ldr	r2, [r7, #36]	; 0x24
    34e2:	18fb      	adds	r3, r7, r3
    34e4:	781b      	ldrb	r3, [r3, #0]
    34e6:	9200      	str	r2, [sp, #0]
    34e8:	6979      	ldr	r1, [r7, #20]
    34ea:	2204      	movs	r2, #4
    34ec:	4832      	ldr	r0, [pc, #200]	; (35b8 <_ZN8ATTClass14readByGroupReqEthPh+0x17c>)
    34ee:	f000 ff5b 	bl	43a8 <_ZN8HCIClass10sendAclPktEthhPv>
    34f2:	e7be      	b.n	3472 <_ZN8ATTClass14readByGroupReqEthPh+0x36>
    BLEAttribute* attribute = GATT.attribute(i);
    34f4:	0020      	movs	r0, r4
    34f6:	69f9      	ldr	r1, [r7, #28]
    34f8:	f000 fdf7 	bl	40ea <_ZNK9GATTClass9attributeEj>
    if (readByGroupReq->uuid != attribute->type()) {
    34fc:	7975      	ldrb	r5, [r6, #5]
    34fe:	7933      	ldrb	r3, [r6, #4]
    3500:	022d      	lsls	r5, r5, #8
    3502:	431d      	orrs	r5, r3
    3504:	6803      	ldr	r3, [r0, #0]
    BLEAttribute* attribute = GATT.attribute(i);
    3506:	0004      	movs	r4, r0
    if (readByGroupReq->uuid != attribute->type()) {
    3508:	689b      	ldr	r3, [r3, #8]
    350a:	4798      	blx	r3
    350c:	4285      	cmp	r5, r0
    350e:	d149      	bne.n	35a4 <_ZN8ATTClass14readByGroupReqEthPh+0x168>
    int uuidLen = attribute->uuidLength();
    3510:	0020      	movs	r0, r4
    3512:	f7fe fe21 	bl	2158 <_ZNK12BLEAttribute10uuidLengthEv>
    int infoSize = (uuidLen == 2) ? 6 : 20;
    3516:	687b      	ldr	r3, [r7, #4]
    int uuidLen = attribute->uuidLength();
    3518:	6138      	str	r0, [r7, #16]
    int infoSize = (uuidLen == 2) ? 6 : 20;
    351a:	61bb      	str	r3, [r7, #24]
    351c:	2802      	cmp	r0, #2
    351e:	d001      	beq.n	3524 <_ZN8ATTClass14readByGroupReqEthPh+0xe8>
    3520:	2314      	movs	r3, #20
    3522:	61bb      	str	r3, [r7, #24]
    if (response[1] == 0) {
    3524:	6a7b      	ldr	r3, [r7, #36]	; 0x24
    3526:	785b      	ldrb	r3, [r3, #1]
    3528:	2b00      	cmp	r3, #0
    352a:	d102      	bne.n	3532 <_ZN8ATTClass14readByGroupReqEthPh+0xf6>
      response[1] = infoSize;
    352c:	6a7b      	ldr	r3, [r7, #36]	; 0x24
    352e:	7e3a      	ldrb	r2, [r7, #24]
    3530:	705a      	strb	r2, [r3, #1]
    if (response[1] != infoSize) {
    3532:	6a7b      	ldr	r3, [r7, #36]	; 0x24
    3534:	69ba      	ldr	r2, [r7, #24]
    3536:	785b      	ldrb	r3, [r3, #1]
    3538:	429a      	cmp	r2, r3
    353a:	d1c6      	bne.n	34ca <_ZN8ATTClass14readByGroupReqEthPh+0x8e>
    uint16_t startHandle = service->startHandle();
    353c:	0020      	movs	r0, r4
    353e:	f7ff fbc0 	bl	2cc2 <_ZNK15BLELocalService11startHandleEv>
    memcpy(&response[responseLength], &startHandle, sizeof(startHandle));
    3542:	6a7b      	ldr	r3, [r7, #36]	; 0x24
    3544:	6a3a      	ldr	r2, [r7, #32]
    uint16_t startHandle = service->startHandle();
    3546:	85b8      	strh	r0, [r7, #44]	; 0x2c
    memcpy(&response[responseLength], &startHandle, sizeof(startHandle));
    3548:	1898      	adds	r0, r3, r2
    354a:	232c      	movs	r3, #44	; 0x2c
    354c:	2202      	movs	r2, #2
    354e:	18f9      	adds	r1, r7, r3
    3550:	f005 ff2d 	bl	93ae <memcpy>
    uint16_t endHandle = service->endHandle();
    3554:	0020      	movs	r0, r4
    3556:	f7ff fbb6 	bl	2cc6 <_ZNK15BLELocalService9endHandleEv>
    responseLength += sizeof(startHandle);
    355a:	6a3b      	ldr	r3, [r7, #32]
    uint16_t endHandle = service->endHandle();
    355c:	85f8      	strh	r0, [r7, #46]	; 0x2e
    responseLength += sizeof(startHandle);
    355e:	1c98      	adds	r0, r3, #2
    memcpy(&response[responseLength], &endHandle, sizeof(endHandle));
    3560:	6a7b      	ldr	r3, [r7, #36]	; 0x24
    3562:	b280      	uxth	r0, r0
    3564:	1818      	adds	r0, r3, r0
    3566:	232e      	movs	r3, #46	; 0x2e
    3568:	2202      	movs	r2, #2
    356a:	18f9      	adds	r1, r7, r3
    356c:	f005 ff1f 	bl	93ae <memcpy>
    responseLength += sizeof(endHandle);
    3570:	6a3b      	ldr	r3, [r7, #32]
    memcpy(&response[responseLength], service->uuidData(), uuidLen);
    3572:	0020      	movs	r0, r4
    responseLength += sizeof(endHandle);
    3574:	1d1d      	adds	r5, r3, #4
    memcpy(&response[responseLength], service->uuidData(), uuidLen);
    3576:	6a7b      	ldr	r3, [r7, #36]	; 0x24
    responseLength += sizeof(endHandle);
    3578:	b2ad      	uxth	r5, r5
    memcpy(&response[responseLength], service->uuidData(), uuidLen);
    357a:	195b      	adds	r3, r3, r5
    357c:	623b      	str	r3, [r7, #32]
    357e:	f7fe fde6 	bl	214e <_ZNK12BLEAttribute8uuidDataEv>
    3582:	693a      	ldr	r2, [r7, #16]
    3584:	0001      	movs	r1, r0
    3586:	6a38      	ldr	r0, [r7, #32]
    3588:	f005 ff11 	bl	93ae <memcpy>
    responseLength += uuidLen;
    358c:	693b      	ldr	r3, [r7, #16]
    358e:	18ed      	adds	r5, r5, r3
    3590:	b2ab      	uxth	r3, r5
    3592:	623b      	str	r3, [r7, #32]
    if ((responseLength + infoSize) > _mtu) {
    3594:	6a3a      	ldr	r2, [r7, #32]
    3596:	69bb      	ldr	r3, [r7, #24]
    3598:	4694      	mov	ip, r2
    359a:	68ba      	ldr	r2, [r7, #8]
    359c:	4463      	add	r3, ip
    359e:	89d2      	ldrh	r2, [r2, #14]
    35a0:	4293      	cmp	r3, r2
    35a2:	dc92      	bgt.n	34ca <_ZN8ATTClass14readByGroupReqEthPh+0x8e>
  for (uint16_t i = (readByGroupReq->startHandle - 1); i < GATT.attributeCount() && i <= (readByGroupReq->endHandle - 1); i++) {
    35a4:	69fb      	ldr	r3, [r7, #28]
    35a6:	3301      	adds	r3, #1
    35a8:	b29b      	uxth	r3, r3
    35aa:	61fb      	str	r3, [r7, #28]
    35ac:	e77f      	b.n	34ae <_ZN8ATTClass14readByGroupReqEthPh+0x72>
    35ae:	46c0      	nop			; (mov r8, r8)
    35b0:	ffffd800 	.word	0xffffd800
    35b4:	20000324 	.word	0x20000324
    35b8:	20000490 	.word	0x20000490

000035bc <_ZN8ATTClass17readOrReadBlobReqEthhPh>:
{
    35bc:	b5f0      	push	{r4, r5, r6, r7, lr}
    35be:	b08d      	sub	sp, #52	; 0x34
    35c0:	000e      	movs	r6, r1
  HCI.sendAclPkt(connectionHandle, ATT_CID, responseLength, response);
    35c2:	4669      	mov	r1, sp
{
    35c4:	af02      	add	r7, sp, #8
    35c6:	0014      	movs	r4, r2
    35c8:	60b8      	str	r0, [r7, #8]
    35ca:	6c3a      	ldr	r2, [r7, #64]	; 0x40
  HCI.sendAclPkt(connectionHandle, ATT_CID, responseLength, response);
    35cc:	6079      	str	r1, [r7, #4]
  if (opcode == ATT_OP_READ_REQ) {
    35ce:	2c0a      	cmp	r4, #10
    35d0:	d105      	bne.n	35de <_ZN8ATTClass17readOrReadBlobReqEthhPh+0x22>
    if (dlen != sizeof(uint16_t)) {
    35d2:	2b02      	cmp	r3, #2
    35d4:	d010      	beq.n	35f8 <_ZN8ATTClass17readOrReadBlobReqEthhPh+0x3c>
      sendError(connectionHandle, ATT_OP_READ_REQ, 0x0000, ATT_ECODE_INVALID_PDU);
    35d6:	2304      	movs	r3, #4
    35d8:	2200      	movs	r2, #0
      sendError(connectionHandle, opcode, handle, ATT_ECODE_INVALID_OFFSET);
    35da:	0021      	movs	r1, r4
    35dc:	e004      	b.n	35e8 <_ZN8ATTClass17readOrReadBlobReqEthhPh+0x2c>
    if (dlen != (sizeof(uint16_t) + sizeof(uint16_t))) {
    35de:	2b04      	cmp	r3, #4
    35e0:	d00a      	beq.n	35f8 <_ZN8ATTClass17readOrReadBlobReqEthhPh+0x3c>
      sendError(connectionHandle, ATT_OP_READ_BLOB_REQ, 0x0000, ATT_ECODE_INVALID_PDU);
    35e2:	2304      	movs	r3, #4
    35e4:	2200      	movs	r2, #0
    35e6:	210c      	movs	r1, #12
      sendError(connectionHandle, opcode, handle, ATT_ECODE_INVALID_OFFSET);
    35e8:	0030      	movs	r0, r6
    35ea:	f7ff fc03 	bl	2df4 <_ZN8ATTClass9sendErrorEthth.constprop.3>
    35ee:	687b      	ldr	r3, [r7, #4]
    35f0:	469d      	mov	sp, r3
}
    35f2:	46bd      	mov	sp, r7
    35f4:	b00b      	add	sp, #44	; 0x2c
    35f6:	bdf0      	pop	{r4, r5, r6, r7, pc}
  uint16_t handle = *(uint16_t*)data;
    35f8:	8813      	ldrh	r3, [r2, #0]
    35fa:	613b      	str	r3, [r7, #16]
  uint16_t offset = (opcode == ATT_OP_READ_REQ) ? 0 : *(uint16_t*)&data[sizeof(handle)];
    35fc:	2300      	movs	r3, #0
    35fe:	617b      	str	r3, [r7, #20]
    3600:	2c0a      	cmp	r4, #10
    3602:	d001      	beq.n	3608 <_ZN8ATTClass17readOrReadBlobReqEthhPh+0x4c>
    3604:	8853      	ldrh	r3, [r2, #2]
    3606:	617b      	str	r3, [r7, #20]
  if ((uint16_t)(handle - 1) > GATT.attributeCount()) {
    3608:	4d5f      	ldr	r5, [pc, #380]	; (3788 <_ZN8ATTClass17readOrReadBlobReqEthhPh+0x1cc>)
    360a:	0028      	movs	r0, r5
    360c:	f000 fd46 	bl	409c <_ZNK9GATTClass14attributeCountEv>
    3610:	693b      	ldr	r3, [r7, #16]
    3612:	1e59      	subs	r1, r3, #1
    3614:	b28b      	uxth	r3, r1
    3616:	4283      	cmp	r3, r0
    3618:	d902      	bls.n	3620 <_ZN8ATTClass17readOrReadBlobReqEthhPh+0x64>
    sendError(connectionHandle, opcode, handle, ATT_ECODE_ATTR_NOT_FOUND);
    361a:	230a      	movs	r3, #10
      sendError(connectionHandle, opcode, handle, ATT_ECODE_INVALID_OFFSET);
    361c:	693a      	ldr	r2, [r7, #16]
    361e:	e7dc      	b.n	35da <_ZN8ATTClass17readOrReadBlobReqEthhPh+0x1e>
  uint8_t response[_mtu];
    3620:	466a      	mov	r2, sp
    3622:	68bb      	ldr	r3, [r7, #8]
    3624:	89db      	ldrh	r3, [r3, #14]
    3626:	3307      	adds	r3, #7
    3628:	08db      	lsrs	r3, r3, #3
    362a:	00db      	lsls	r3, r3, #3
    362c:	1ad3      	subs	r3, r2, r3
    362e:	469d      	mov	sp, r3
    3630:	ab02      	add	r3, sp, #8
    3632:	60fb      	str	r3, [r7, #12]
  response[0] = (opcode == ATT_OP_READ_REQ) ? ATT_OP_READ_RESP : ATT_OP_READ_BLOB_RESP;
    3634:	230b      	movs	r3, #11
    3636:	2c0a      	cmp	r4, #10
    3638:	d000      	beq.n	363c <_ZN8ATTClass17readOrReadBlobReqEthhPh+0x80>
    363a:	3302      	adds	r3, #2
    363c:	68fa      	ldr	r2, [r7, #12]
  BLEAttribute* attribute = GATT.attribute(handle - 1);
    363e:	0028      	movs	r0, r5
  response[0] = (opcode == ATT_OP_READ_REQ) ? ATT_OP_READ_RESP : ATT_OP_READ_BLOB_RESP;
    3640:	7013      	strb	r3, [r2, #0]
  BLEAttribute* attribute = GATT.attribute(handle - 1);
    3642:	f000 fd52 	bl	40ea <_ZNK9GATTClass9attributeEj>
  enum BLEAttributeType attributeType = attribute->type();
    3646:	6803      	ldr	r3, [r0, #0]
  BLEAttribute* attribute = GATT.attribute(handle - 1);
    3648:	0005      	movs	r5, r0
  enum BLEAttributeType attributeType = attribute->type();
    364a:	689b      	ldr	r3, [r3, #8]
    364c:	4798      	blx	r3
  if (attributeType == BLETypeService) {
    364e:	23a0      	movs	r3, #160	; 0xa0
    3650:	019b      	lsls	r3, r3, #6
    3652:	4298      	cmp	r0, r3
    3654:	d115      	bne.n	3682 <_ZN8ATTClass17readOrReadBlobReqEthhPh+0xc6>
    if (offset) {
    3656:	697b      	ldr	r3, [r7, #20]
    3658:	2b00      	cmp	r3, #0
    365a:	d003      	beq.n	3664 <_ZN8ATTClass17readOrReadBlobReqEthhPh+0xa8>
      sendError(connectionHandle, ATT_ECODE_ATTR_NOT_LONG, handle, ATT_ECODE_INVALID_PDU);
    365c:	2304      	movs	r3, #4
    365e:	693a      	ldr	r2, [r7, #16]
    3660:	210b      	movs	r1, #11
    3662:	e7c1      	b.n	35e8 <_ZN8ATTClass17readOrReadBlobReqEthhPh+0x2c>
    uint8_t uuidLen = service->uuidLength();
    3664:	0028      	movs	r0, r5
    3666:	f7fe fd77 	bl	2158 <_ZNK12BLEAttribute10uuidLengthEv>
    366a:	0004      	movs	r4, r0
    memcpy(&response[responseLength], service->uuidData(), uuidLen);
    366c:	0028      	movs	r0, r5
    366e:	f7fe fd6e 	bl	214e <_ZNK12BLEAttribute8uuidDataEv>
    3672:	0022      	movs	r2, r4
    3674:	0001      	movs	r1, r0
    3676:	68fb      	ldr	r3, [r7, #12]
    3678:	3301      	adds	r3, #1
    memcpy(&response[responseLength], descriptor->value() + offset, valueLength);
    367a:	0018      	movs	r0, r3
    367c:	f005 fe97 	bl	93ae <memcpy>
    3680:	e062      	b.n	3748 <_ZN8ATTClass17readOrReadBlobReqEthhPh+0x18c>
  } else if (attributeType == BLETypeCharacteristic) {
    3682:	4b42      	ldr	r3, [pc, #264]	; (378c <_ZN8ATTClass17readOrReadBlobReqEthhPh+0x1d0>)
    3684:	4298      	cmp	r0, r3
    3686:	d161      	bne.n	374c <_ZN8ATTClass17readOrReadBlobReqEthhPh+0x190>
    if (characteristic->handle() == handle) {
    3688:	0028      	movs	r0, r5
    368a:	f7ff f855 	bl	2738 <_ZNK22BLELocalCharacteristic6handleEv>
    368e:	693b      	ldr	r3, [r7, #16]
    3690:	4283      	cmp	r3, r0
    3692:	d12d      	bne.n	36f0 <_ZN8ATTClass17readOrReadBlobReqEthhPh+0x134>
      if (offset) {
    3694:	697b      	ldr	r3, [r7, #20]
    3696:	2b00      	cmp	r3, #0
    3698:	d001      	beq.n	369e <_ZN8ATTClass17readOrReadBlobReqEthhPh+0xe2>
        sendError(connectionHandle, opcode, handle, ATT_ECODE_ATTR_NOT_LONG);
    369a:	230b      	movs	r3, #11
    369c:	e7be      	b.n	361c <_ZN8ATTClass17readOrReadBlobReqEthhPh+0x60>
      response[responseLength++] = characteristic->properties();
    369e:	0028      	movs	r0, r5
    36a0:	f7fe ffd8 	bl	2654 <_ZNK22BLELocalCharacteristic10propertiesEv>
    36a4:	68fb      	ldr	r3, [r7, #12]
    36a6:	7058      	strb	r0, [r3, #1]
      uint16_t valueHandle = characteristic->valueHandle();
    36a8:	0028      	movs	r0, r5
    36aa:	f7ff f847 	bl	273c <_ZNK22BLELocalCharacteristic11valueHandleEv>
      memcpy(&response[responseLength], &valueHandle, sizeof(valueHandle));
    36ae:	68fb      	ldr	r3, [r7, #12]
      uint16_t valueHandle = characteristic->valueHandle();
    36b0:	83b8      	strh	r0, [r7, #28]
      memcpy(&response[responseLength], &valueHandle, sizeof(valueHandle));
    36b2:	1c98      	adds	r0, r3, #2
    36b4:	231c      	movs	r3, #28
    36b6:	2202      	movs	r2, #2
    36b8:	18f9      	adds	r1, r7, r3
    36ba:	f005 fe78 	bl	93ae <memcpy>
      uint8_t uuidLen = characteristic->uuidLength();
    36be:	0028      	movs	r0, r5
    36c0:	f7fe fd4a 	bl	2158 <_ZNK12BLEAttribute10uuidLengthEv>
    36c4:	0004      	movs	r4, r0
      memcpy(&response[responseLength], characteristic->uuidData(), uuidLen);
    36c6:	0028      	movs	r0, r5
    36c8:	f7fe fd41 	bl	214e <_ZNK12BLEAttribute8uuidDataEv>
    36cc:	68fb      	ldr	r3, [r7, #12]
    36ce:	0001      	movs	r1, r0
    36d0:	3304      	adds	r3, #4
    36d2:	0022      	movs	r2, r4
    36d4:	0018      	movs	r0, r3
    36d6:	f005 fe6a 	bl	93ae <memcpy>
      responseLength += uuidLen;
    36da:	3404      	adds	r4, #4
    responseLength += valueLength;
    36dc:	b2a3      	uxth	r3, r4
  HCI.sendAclPkt(connectionHandle, ATT_CID, responseLength, response);
    36de:	68fa      	ldr	r2, [r7, #12]
    36e0:	b2db      	uxtb	r3, r3
    36e2:	9200      	str	r2, [sp, #0]
    36e4:	0031      	movs	r1, r6
    36e6:	2204      	movs	r2, #4
    36e8:	4829      	ldr	r0, [pc, #164]	; (3790 <_ZN8ATTClass17readOrReadBlobReqEthhPh+0x1d4>)
    36ea:	f000 fe5d 	bl	43a8 <_ZN8HCIClass10sendAclPktEthhPv>
    36ee:	e77e      	b.n	35ee <_ZN8ATTClass17readOrReadBlobReqEthhPh+0x32>
      if ((characteristic->properties() & BLERead) == 0) {
    36f0:	0028      	movs	r0, r5
    36f2:	f7fe ffaf 	bl	2654 <_ZNK22BLELocalCharacteristic10propertiesEv>
    36f6:	2302      	movs	r3, #2
    36f8:	4218      	tst	r0, r3
    36fa:	d08f      	beq.n	361c <_ZN8ATTClass17readOrReadBlobReqEthhPh+0x60>
      uint16_t valueLength = characteristic->valueLength();
    36fc:	0028      	movs	r0, r5
    36fe:	f7fe ffb0 	bl	2662 <_ZNK22BLELocalCharacteristic11valueLengthEv>
      if (offset >= valueLength) {
    3702:	697b      	ldr	r3, [r7, #20]
    3704:	b280      	uxth	r0, r0
    3706:	4298      	cmp	r0, r3
    3708:	dc01      	bgt.n	370e <_ZN8ATTClass17readOrReadBlobReqEthhPh+0x152>
      sendError(connectionHandle, opcode, handle, ATT_ECODE_INVALID_OFFSET);
    370a:	2307      	movs	r3, #7
    370c:	e786      	b.n	361c <_ZN8ATTClass17readOrReadBlobReqEthhPh+0x60>
      valueLength = min(_mtu - responseLength, valueLength - offset);
    370e:	68bb      	ldr	r3, [r7, #8]
    3710:	89dc      	ldrh	r4, [r3, #14]
    3712:	697b      	ldr	r3, [r7, #20]
    3714:	3c01      	subs	r4, #1
    3716:	1ac0      	subs	r0, r0, r3
    3718:	4284      	cmp	r4, r0
    371a:	dd00      	ble.n	371e <_ZN8ATTClass17readOrReadBlobReqEthhPh+0x162>
    371c:	0004      	movs	r4, r0
      characteristic->readValue(BLEDevice(connectionHandle, _peerAddress), offset, &response[responseLength], valueLength);
    371e:	231c      	movs	r3, #28
    3720:	68ba      	ldr	r2, [r7, #8]
    3722:	0031      	movs	r1, r6
    3724:	3208      	adds	r2, #8
    3726:	18f8      	adds	r0, r7, r3
    3728:	f7fe fe30 	bl	238c <_ZN9BLEDeviceC1EtPh>
    372c:	211c      	movs	r1, #28
    372e:	68fb      	ldr	r3, [r7, #12]
    3730:	b2a2      	uxth	r2, r4
    3732:	9200      	str	r2, [sp, #0]
    3734:	3301      	adds	r3, #1
    3736:	0028      	movs	r0, r5
    3738:	697a      	ldr	r2, [r7, #20]
    373a:	1879      	adds	r1, r7, r1
    373c:	f7ff f8b8 	bl	28b0 <_ZN22BLELocalCharacteristic9readValueE9BLEDevicetPhi>
    3740:	231c      	movs	r3, #28
    3742:	18f8      	adds	r0, r7, r3
    3744:	f7fe fd71 	bl	222a <_ZN9BLEDeviceD1Ev>
    responseLength += valueLength;
    3748:	3401      	adds	r4, #1
    374a:	e7c7      	b.n	36dc <_ZN8ATTClass17readOrReadBlobReqEthhPh+0x120>
  } else if (attributeType == BLETypeDescriptor) {
    374c:	22a4      	movs	r2, #164	; 0xa4
  responseLength = 1;
    374e:	2301      	movs	r3, #1
  } else if (attributeType == BLETypeDescriptor) {
    3750:	0192      	lsls	r2, r2, #6
    3752:	4290      	cmp	r0, r2
    3754:	d1c3      	bne.n	36de <_ZN8ATTClass17readOrReadBlobReqEthhPh+0x122>
    uint16_t valueLength = descriptor->valueSize();
    3756:	0028      	movs	r0, r5
    3758:	f7ff f960 	bl	2a1c <_ZNK18BLELocalDescriptor9valueSizeEv>
    if (offset >= valueLength) {
    375c:	697b      	ldr	r3, [r7, #20]
    375e:	b280      	uxth	r0, r0
    3760:	4298      	cmp	r0, r3
    3762:	ddd2      	ble.n	370a <_ZN8ATTClass17readOrReadBlobReqEthhPh+0x14e>
    valueLength = min(_mtu - responseLength, valueLength - offset);
    3764:	68bb      	ldr	r3, [r7, #8]
    3766:	89dc      	ldrh	r4, [r3, #14]
    3768:	697b      	ldr	r3, [r7, #20]
    376a:	3c01      	subs	r4, #1
    376c:	1ac0      	subs	r0, r0, r3
    376e:	4284      	cmp	r4, r0
    3770:	dd00      	ble.n	3774 <_ZN8ATTClass17readOrReadBlobReqEthhPh+0x1b8>
    3772:	0004      	movs	r4, r0
    memcpy(&response[responseLength], descriptor->value() + offset, valueLength);
    3774:	0028      	movs	r0, r5
    3776:	f7ff f953 	bl	2a20 <_ZNK18BLELocalDescriptor5valueEv>
    377a:	68fb      	ldr	r3, [r7, #12]
    377c:	6979      	ldr	r1, [r7, #20]
    377e:	3301      	adds	r3, #1
    3780:	b2a2      	uxth	r2, r4
    3782:	1841      	adds	r1, r0, r1
    3784:	e779      	b.n	367a <_ZN8ATTClass17readOrReadBlobReqEthhPh+0xbe>
    3786:	46c0      	nop			; (mov r8, r8)
    3788:	20000324 	.word	0x20000324
    378c:	00002803 	.word	0x00002803
    3790:	20000490 	.word	0x20000490

00003794 <_ZN8ATTClass13readByTypeReqEthPh>:
{
    3794:	b5f0      	push	{r4, r5, r6, r7, lr}
    3796:	b08d      	sub	sp, #52	; 0x34
    3798:	af02      	add	r7, sp, #8
    379a:	61bb      	str	r3, [r7, #24]
  }
    379c:	466b      	mov	r3, sp
{
    379e:	6178      	str	r0, [r7, #20]
    37a0:	60b9      	str	r1, [r7, #8]
  }
    37a2:	603b      	str	r3, [r7, #0]
  if (dlen != sizeof(ReadByTypeReq)) {
    37a4:	2a06      	cmp	r2, #6
    37a6:	d00d      	beq.n	37c4 <_ZN8ATTClass13readByTypeReqEthPh+0x30>
    sendError(connectionHandle, ATT_OP_READ_BY_TYPE_REQ, readByTypeReq->startHandle, ATT_ECODE_INVALID_PDU);
    37a8:	69ba      	ldr	r2, [r7, #24]
    37aa:	69bb      	ldr	r3, [r7, #24]
    37ac:	7852      	ldrb	r2, [r2, #1]
    37ae:	781b      	ldrb	r3, [r3, #0]
    37b0:	0212      	lsls	r2, r2, #8
    37b2:	431a      	orrs	r2, r3
    37b4:	2108      	movs	r1, #8
    37b6:	2304      	movs	r3, #4
    37b8:	68b8      	ldr	r0, [r7, #8]
    37ba:	f7ff fb1b 	bl	2df4 <_ZN8ATTClass9sendErrorEthth.constprop.3>
}
    37be:	46bd      	mov	sp, r7
    37c0:	b00b      	add	sp, #44	; 0x2c
    37c2:	bdf0      	pop	{r4, r5, r6, r7, pc}
  uint8_t response[_mtu];
    37c4:	466a      	mov	r2, sp
    37c6:	697b      	ldr	r3, [r7, #20]
  responseLength = 2;
    37c8:	2402      	movs	r4, #2
  uint8_t response[_mtu];
    37ca:	89db      	ldrh	r3, [r3, #14]
    37cc:	3307      	adds	r3, #7
    37ce:	08db      	lsrs	r3, r3, #3
    37d0:	00db      	lsls	r3, r3, #3
    37d2:	1ad3      	subs	r3, r2, r3
    37d4:	469d      	mov	sp, r3
    37d6:	ab02      	add	r3, sp, #8
    37d8:	61fb      	str	r3, [r7, #28]
  response[0] = ATT_OP_READ_BY_TYPE_RESP;
    37da:	2309      	movs	r3, #9
    37dc:	69fa      	ldr	r2, [r7, #28]
    37de:	7013      	strb	r3, [r2, #0]
  response[1] = 0x00;
    37e0:	2300      	movs	r3, #0
    37e2:	7053      	strb	r3, [r2, #1]
  for (uint16_t i = (readByTypeReq->startHandle - 1); i < GATT.attributeCount() && i <= (readByTypeReq->endHandle - 1); i++) {
    37e4:	69ba      	ldr	r2, [r7, #24]
    37e6:	69bb      	ldr	r3, [r7, #24]
    37e8:	7855      	ldrb	r5, [r2, #1]
    37ea:	781b      	ldrb	r3, [r3, #0]
    37ec:	022d      	lsls	r5, r5, #8
    37ee:	431d      	orrs	r5, r3
    37f0:	3d01      	subs	r5, #1
    37f2:	b2ad      	uxth	r5, r5
    37f4:	4e82      	ldr	r6, [pc, #520]	; (3a00 <_ZN8ATTClass13readByTypeReqEthPh+0x26c>)
    37f6:	0030      	movs	r0, r6
    37f8:	f000 fc50 	bl	409c <_ZNK9GATTClass14attributeCountEv>
    37fc:	4285      	cmp	r5, r0
    37fe:	d207      	bcs.n	3810 <_ZN8ATTClass13readByTypeReqEthPh+0x7c>
    3800:	69bb      	ldr	r3, [r7, #24]
    3802:	789a      	ldrb	r2, [r3, #2]
    3804:	78db      	ldrb	r3, [r3, #3]
    3806:	021b      	lsls	r3, r3, #8
    3808:	4313      	orrs	r3, r2
    380a:	42ab      	cmp	r3, r5
    380c:	dd00      	ble.n	3810 <_ZN8ATTClass13readByTypeReqEthPh+0x7c>
    380e:	e08c      	b.n	392a <_ZN8ATTClass13readByTypeReqEthPh+0x196>
  if (responseLength == 2) {
    3810:	2c02      	cmp	r4, #2
    3812:	d000      	beq.n	3816 <_ZN8ATTClass13readByTypeReqEthPh+0x82>
    3814:	e080      	b.n	3918 <_ZN8ATTClass13readByTypeReqEthPh+0x184>
    sendError(connectionHandle, ATT_OP_READ_BY_TYPE_REQ, readByTypeReq->startHandle, ATT_ECODE_ATTR_NOT_FOUND);
    3816:	69ba      	ldr	r2, [r7, #24]
    3818:	69bb      	ldr	r3, [r7, #24]
    381a:	7852      	ldrb	r2, [r2, #1]
    381c:	781b      	ldrb	r3, [r3, #0]
    381e:	0212      	lsls	r2, r2, #8
    3820:	431a      	orrs	r2, r3
    3822:	2108      	movs	r1, #8
    3824:	230a      	movs	r3, #10
    3826:	68b8      	ldr	r0, [r7, #8]
    3828:	f7ff fae4 	bl	2df4 <_ZN8ATTClass9sendErrorEthth.constprop.3>
    382c:	683b      	ldr	r3, [r7, #0]
    382e:	469d      	mov	sp, r3
    3830:	e7c5      	b.n	37be <_ZN8ATTClass13readByTypeReqEthPh+0x2a>
      } else if (attribute->type() == 0x2902) {
    3832:	6833      	ldr	r3, [r6, #0]
    3834:	0030      	movs	r0, r6
    3836:	689b      	ldr	r3, [r3, #8]
    3838:	4798      	blx	r3
    383a:	4b72      	ldr	r3, [pc, #456]	; (3a04 <_ZN8ATTClass13readByTypeReqEthPh+0x270>)
    383c:	4298      	cmp	r0, r3
    383e:	d000      	beq.n	3842 <_ZN8ATTClass13readByTypeReqEthPh+0xae>
    3840:	e0db      	b.n	39fa <_ZN8ATTClass13readByTypeReqEthPh+0x266>
        memcpy(&response[responseLength], &handle, sizeof(handle));
    3842:	69fb      	ldr	r3, [r7, #28]
    3844:	2202      	movs	r2, #2
    3846:	1918      	adds	r0, r3, r4
    3848:	2324      	movs	r3, #36	; 0x24
    384a:	18f9      	adds	r1, r7, r3
    384c:	f005 fdaf 	bl	93ae <memcpy>
        int valueSize = min((uint16_t)(_mtu - responseLength), (uint16_t)descriptor->valueSize());
    3850:	697b      	ldr	r3, [r7, #20]
    3852:	0030      	movs	r0, r6
    3854:	89dd      	ldrh	r5, [r3, #14]
    3856:	f7ff f8e1 	bl	2a1c <_ZNK18BLELocalDescriptor9valueSizeEv>
        responseLength += sizeof(handle);
    385a:	3402      	adds	r4, #2
    385c:	b2a4      	uxth	r4, r4
        int valueSize = min((uint16_t)(_mtu - responseLength), (uint16_t)descriptor->valueSize());
    385e:	1b2d      	subs	r5, r5, r4
    3860:	b2ad      	uxth	r5, r5
    3862:	b280      	uxth	r0, r0
    3864:	42a8      	cmp	r0, r5
    3866:	dd14      	ble.n	3892 <_ZN8ATTClass13readByTypeReqEthPh+0xfe>
    3868:	697b      	ldr	r3, [r7, #20]
    386a:	89dd      	ldrh	r5, [r3, #14]
    386c:	1b2d      	subs	r5, r5, r4
    386e:	b2ad      	uxth	r5, r5
        memcpy(&response[responseLength], descriptor->value(), valueSize);
    3870:	69fb      	ldr	r3, [r7, #28]
    3872:	0030      	movs	r0, r6
    3874:	191b      	adds	r3, r3, r4
    3876:	617b      	str	r3, [r7, #20]
    3878:	f7ff f8d2 	bl	2a20 <_ZNK18BLELocalDescriptor5valueEv>
      memcpy(&response[responseLength], characteristic->value(), valueLength);
    387c:	0001      	movs	r1, r0
    387e:	002a      	movs	r2, r5
    3880:	6978      	ldr	r0, [r7, #20]
    3882:	f005 fd94 	bl	93ae <memcpy>
      response[1] = 2 + valueLength;
    3886:	69fb      	ldr	r3, [r7, #28]
      responseLength += valueLength;
    3888:	1964      	adds	r4, r4, r5
      response[1] = 2 + valueLength;
    388a:	3502      	adds	r5, #2
      responseLength += valueLength;
    388c:	b2a4      	uxth	r4, r4
      response[1] = 2 + valueLength;
    388e:	705d      	strb	r5, [r3, #1]
      break; // all done
    3890:	e7be      	b.n	3810 <_ZN8ATTClass13readByTypeReqEthPh+0x7c>
        int valueSize = min((uint16_t)(_mtu - responseLength), (uint16_t)descriptor->valueSize());
    3892:	0030      	movs	r0, r6
    3894:	f7ff f8c2 	bl	2a1c <_ZNK18BLELocalDescriptor9valueSizeEv>
    3898:	b285      	uxth	r5, r0
    389a:	e7e9      	b.n	3870 <_ZN8ATTClass13readByTypeReqEthPh+0xdc>
    } else if (attribute->type() == BLETypeCharacteristic && attribute->uuidLength() == 2 && memcmp(&readByTypeReq->uuid, attribute->uuidData(), 2) == 0) {
    389c:	6893      	ldr	r3, [r2, #8]
    389e:	0030      	movs	r0, r6
    38a0:	4798      	blx	r3
    38a2:	4b59      	ldr	r3, [pc, #356]	; (3a08 <_ZN8ATTClass13readByTypeReqEthPh+0x274>)
    38a4:	4298      	cmp	r0, r3
    38a6:	d000      	beq.n	38aa <_ZN8ATTClass13readByTypeReqEthPh+0x116>
    38a8:	e0a7      	b.n	39fa <_ZN8ATTClass13readByTypeReqEthPh+0x266>
    38aa:	0030      	movs	r0, r6
    38ac:	f7fe fc54 	bl	2158 <_ZNK12BLEAttribute10uuidLengthEv>
    38b0:	6138      	str	r0, [r7, #16]
    38b2:	2802      	cmp	r0, #2
    38b4:	d000      	beq.n	38b8 <_ZN8ATTClass13readByTypeReqEthPh+0x124>
    38b6:	e0a0      	b.n	39fa <_ZN8ATTClass13readByTypeReqEthPh+0x266>
    38b8:	0030      	movs	r0, r6
    38ba:	f7fe fc48 	bl	214e <_ZNK12BLEAttribute8uuidDataEv>
    38be:	69bb      	ldr	r3, [r7, #24]
    38c0:	0001      	movs	r1, r0
    38c2:	3304      	adds	r3, #4
    38c4:	693a      	ldr	r2, [r7, #16]
    38c6:	0018      	movs	r0, r3
    38c8:	f005 fd62 	bl	9390 <memcmp>
    38cc:	2800      	cmp	r0, #0
    38ce:	d000      	beq.n	38d2 <_ZN8ATTClass13readByTypeReqEthPh+0x13e>
    38d0:	e093      	b.n	39fa <_ZN8ATTClass13readByTypeReqEthPh+0x266>
      memcpy(&response[responseLength], &handle, sizeof(handle));
    38d2:	69fb      	ldr	r3, [r7, #28]
    38d4:	693a      	ldr	r2, [r7, #16]
    38d6:	1918      	adds	r0, r3, r4
    38d8:	2324      	movs	r3, #36	; 0x24
    38da:	18f9      	adds	r1, r7, r3
    38dc:	f005 fd67 	bl	93ae <memcpy>
      int valueLength = min((uint16_t)(_mtu - responseLength), (uint16_t)characteristic->valueLength());
    38e0:	697b      	ldr	r3, [r7, #20]
    38e2:	0030      	movs	r0, r6
    38e4:	89dd      	ldrh	r5, [r3, #14]
    38e6:	f7fe febc 	bl	2662 <_ZNK22BLELocalCharacteristic11valueLengthEv>
      responseLength += sizeof(handle);
    38ea:	3402      	adds	r4, #2
    38ec:	b2a4      	uxth	r4, r4
      int valueLength = min((uint16_t)(_mtu - responseLength), (uint16_t)characteristic->valueLength());
    38ee:	1b2d      	subs	r5, r5, r4
    38f0:	b2ad      	uxth	r5, r5
    38f2:	b280      	uxth	r0, r0
    38f4:	42a8      	cmp	r0, r5
    38f6:	dc04      	bgt.n	3902 <_ZN8ATTClass13readByTypeReqEthPh+0x16e>
    38f8:	0030      	movs	r0, r6
    38fa:	f7fe feb2 	bl	2662 <_ZNK22BLELocalCharacteristic11valueLengthEv>
    38fe:	b285      	uxth	r5, r0
    3900:	e003      	b.n	390a <_ZN8ATTClass13readByTypeReqEthPh+0x176>
    3902:	697b      	ldr	r3, [r7, #20]
    3904:	89dd      	ldrh	r5, [r3, #14]
    3906:	1b2d      	subs	r5, r5, r4
    3908:	b2ad      	uxth	r5, r5
      memcpy(&response[responseLength], characteristic->value(), valueLength);
    390a:	69fb      	ldr	r3, [r7, #28]
    390c:	0030      	movs	r0, r6
    390e:	191b      	adds	r3, r3, r4
    3910:	617b      	str	r3, [r7, #20]
    3912:	f7fe fea4 	bl	265e <_ZNK22BLELocalCharacteristic5valueEv>
    3916:	e7b1      	b.n	387c <_ZN8ATTClass13readByTypeReqEthPh+0xe8>
    HCI.sendAclPkt(connectionHandle, ATT_CID, responseLength, response);
    3918:	69fa      	ldr	r2, [r7, #28]
    391a:	b2e3      	uxtb	r3, r4
    391c:	9200      	str	r2, [sp, #0]
    391e:	68b9      	ldr	r1, [r7, #8]
    3920:	2204      	movs	r2, #4
    3922:	483a      	ldr	r0, [pc, #232]	; (3a0c <_ZN8ATTClass13readByTypeReqEthPh+0x278>)
    3924:	f000 fd40 	bl	43a8 <_ZN8HCIClass10sendAclPktEthhPv>
    3928:	e780      	b.n	382c <_ZN8ATTClass13readByTypeReqEthPh+0x98>
    BLEAttribute* attribute = GATT.attribute(i);
    392a:	0029      	movs	r1, r5
    392c:	0030      	movs	r0, r6
    392e:	f000 fbdc 	bl	40ea <_ZNK9GATTClass9attributeEj>
    uint16_t handle = (i + 1);
    3932:	1c6b      	adds	r3, r5, #1
    3934:	b29b      	uxth	r3, r3
    3936:	60fb      	str	r3, [r7, #12]
    3938:	89bb      	ldrh	r3, [r7, #12]
    BLEAttribute* attribute = GATT.attribute(i);
    393a:	0006      	movs	r6, r0
    uint16_t handle = (i + 1);
    393c:	84bb      	strh	r3, [r7, #36]	; 0x24
    if (attribute->type() == readByTypeReq->uuid) {
    393e:	6803      	ldr	r3, [r0, #0]
    3940:	689b      	ldr	r3, [r3, #8]
    3942:	4798      	blx	r3
    3944:	69bb      	ldr	r3, [r7, #24]
    3946:	791a      	ldrb	r2, [r3, #4]
    3948:	795b      	ldrb	r3, [r3, #5]
    394a:	021b      	lsls	r3, r3, #8
    394c:	4313      	orrs	r3, r2
    394e:	6832      	ldr	r2, [r6, #0]
    3950:	4298      	cmp	r0, r3
    3952:	d1a3      	bne.n	389c <_ZN8ATTClass13readByTypeReqEthPh+0x108>
      if (attribute->type() == BLETypeCharacteristic) {
    3954:	6893      	ldr	r3, [r2, #8]
    3956:	0030      	movs	r0, r6
    3958:	4798      	blx	r3
    395a:	4b2b      	ldr	r3, [pc, #172]	; (3a08 <_ZN8ATTClass13readByTypeReqEthPh+0x274>)
    395c:	4298      	cmp	r0, r3
    395e:	d000      	beq.n	3962 <_ZN8ATTClass13readByTypeReqEthPh+0x1ce>
    3960:	e767      	b.n	3832 <_ZN8ATTClass13readByTypeReqEthPh+0x9e>
        if (characteristic->valueHandle() == handle) {
    3962:	0030      	movs	r0, r6
    3964:	f7fe feea 	bl	273c <_ZNK22BLELocalCharacteristic11valueHandleEv>
    3968:	68fb      	ldr	r3, [r7, #12]
    396a:	4283      	cmp	r3, r0
    396c:	d045      	beq.n	39fa <_ZN8ATTClass13readByTypeReqEthPh+0x266>
        int uuidLen = attribute->uuidLength();
    396e:	0030      	movs	r0, r6
    3970:	f7fe fbf2 	bl	2158 <_ZNK12BLEAttribute10uuidLengthEv>
        int typeSize = (uuidLen == 2) ? 7 : 21;
    3974:	2307      	movs	r3, #7
        int uuidLen = attribute->uuidLength();
    3976:	6078      	str	r0, [r7, #4]
        int typeSize = (uuidLen == 2) ? 7 : 21;
    3978:	613b      	str	r3, [r7, #16]
    397a:	2802      	cmp	r0, #2
    397c:	d001      	beq.n	3982 <_ZN8ATTClass13readByTypeReqEthPh+0x1ee>
    397e:	2315      	movs	r3, #21
    3980:	613b      	str	r3, [r7, #16]
        if (response[1] == 0) {
    3982:	69fb      	ldr	r3, [r7, #28]
    3984:	785b      	ldrb	r3, [r3, #1]
    3986:	2b00      	cmp	r3, #0
    3988:	d102      	bne.n	3990 <_ZN8ATTClass13readByTypeReqEthPh+0x1fc>
          response[1] = typeSize;
    398a:	69fb      	ldr	r3, [r7, #28]
    398c:	7c3a      	ldrb	r2, [r7, #16]
    398e:	705a      	strb	r2, [r3, #1]
        if (response[1] != typeSize) {
    3990:	69fb      	ldr	r3, [r7, #28]
    3992:	693a      	ldr	r2, [r7, #16]
    3994:	785b      	ldrb	r3, [r3, #1]
    3996:	429a      	cmp	r2, r3
    3998:	d000      	beq.n	399c <_ZN8ATTClass13readByTypeReqEthPh+0x208>
    399a:	e739      	b.n	3810 <_ZN8ATTClass13readByTypeReqEthPh+0x7c>
        memcpy(&response[responseLength], &handle, sizeof(handle));
    399c:	69fb      	ldr	r3, [r7, #28]
    399e:	2202      	movs	r2, #2
    39a0:	1918      	adds	r0, r3, r4
    39a2:	2324      	movs	r3, #36	; 0x24
    39a4:	18f9      	adds	r1, r7, r3
    39a6:	f005 fd02 	bl	93ae <memcpy>
        response[responseLength++] = characteristic->properties();
    39aa:	0030      	movs	r0, r6
    39ac:	f7fe fe52 	bl	2654 <_ZNK22BLELocalCharacteristic10propertiesEv>
    39b0:	69fa      	ldr	r2, [r7, #28]
        responseLength += sizeof(handle);
    39b2:	1ca3      	adds	r3, r4, #2
        response[responseLength++] = characteristic->properties();
    39b4:	b29b      	uxth	r3, r3
    39b6:	54d0      	strb	r0, [r2, r3]
        memcpy(&response[responseLength], &valueHandle, sizeof(valueHandle));
    39b8:	2326      	movs	r3, #38	; 0x26
        response[responseLength++] = characteristic->properties();
    39ba:	1ce0      	adds	r0, r4, #3
        memcpy(&response[responseLength], &valueHandle, sizeof(valueHandle));
    39bc:	b280      	uxth	r0, r0
    39be:	18f9      	adds	r1, r7, r3
        uint16_t valueHandle = (handle + 1);
    39c0:	3502      	adds	r5, #2
        memcpy(&response[responseLength], &valueHandle, sizeof(valueHandle));
    39c2:	1810      	adds	r0, r2, r0
    39c4:	2202      	movs	r2, #2
        uint16_t valueHandle = (handle + 1);
    39c6:	84fd      	strh	r5, [r7, #38]	; 0x26
        responseLength += sizeof(valueHandle);
    39c8:	3405      	adds	r4, #5
        memcpy(&response[responseLength], &valueHandle, sizeof(valueHandle));
    39ca:	f005 fcf0 	bl	93ae <memcpy>
        memcpy(&response[responseLength], characteristic->uuidData(), uuidLen);
    39ce:	69fb      	ldr	r3, [r7, #28]
        responseLength += sizeof(valueHandle);
    39d0:	b2a4      	uxth	r4, r4
        memcpy(&response[responseLength], characteristic->uuidData(), uuidLen);
    39d2:	0030      	movs	r0, r6
    39d4:	191d      	adds	r5, r3, r4
    39d6:	f7fe fbba 	bl	214e <_ZNK12BLEAttribute8uuidDataEv>
    39da:	687a      	ldr	r2, [r7, #4]
    39dc:	0001      	movs	r1, r0
    39de:	0028      	movs	r0, r5
    39e0:	f005 fce5 	bl	93ae <memcpy>
        responseLength += uuidLen;
    39e4:	687b      	ldr	r3, [r7, #4]
        if ((responseLength + typeSize) > _mtu) {
    39e6:	697a      	ldr	r2, [r7, #20]
        responseLength += uuidLen;
    39e8:	18e4      	adds	r4, r4, r3
        if ((responseLength + typeSize) > _mtu) {
    39ea:	693b      	ldr	r3, [r7, #16]
        responseLength += uuidLen;
    39ec:	b2a4      	uxth	r4, r4
        if ((responseLength + typeSize) > _mtu) {
    39ee:	89d2      	ldrh	r2, [r2, #14]
    39f0:	18e3      	adds	r3, r4, r3
    39f2:	4293      	cmp	r3, r2
    39f4:	dd00      	ble.n	39f8 <_ZN8ATTClass13readByTypeReqEthPh+0x264>
    39f6:	e70b      	b.n	3810 <_ZN8ATTClass13readByTypeReqEthPh+0x7c>
    39f8:	68fd      	ldr	r5, [r7, #12]
  for (uint16_t i = (readByTypeReq->startHandle - 1); i < GATT.attributeCount() && i <= (readByTypeReq->endHandle - 1); i++) {
    39fa:	3501      	adds	r5, #1
    39fc:	b2ad      	uxth	r5, r5
    39fe:	e6f9      	b.n	37f4 <_ZN8ATTClass13readByTypeReqEthPh+0x60>
    3a00:	20000324 	.word	0x20000324
    3a04:	00002902 	.word	0x00002902
    3a08:	00002803 	.word	0x00002803
    3a0c:	20000490 	.word	0x20000490

00003a10 <_ZN8ATTClass13writeReqOrCmdEthhPh>:
{
    3a10:	b5f0      	push	{r4, r5, r6, r7, lr}
    3a12:	b08b      	sub	sp, #44	; 0x2c
    3a14:	af02      	add	r7, sp, #8
    3a16:	60b8      	str	r0, [r7, #8]
    3a18:	000d      	movs	r5, r1
    3a1a:	0014      	movs	r4, r2
    3a1c:	607b      	str	r3, [r7, #4]
  if (dlen < sizeof(uint16_t)) {
    3a1e:	2b01      	cmp	r3, #1
    3a20:	d808      	bhi.n	3a34 <_ZN8ATTClass13writeReqOrCmdEthhPh+0x24>
    if (withResponse) {
    3a22:	2a12      	cmp	r2, #18
    3a24:	d115      	bne.n	3a52 <_ZN8ATTClass13writeReqOrCmdEthhPh+0x42>
      sendError(connectionHandle, ATT_OP_WRITE_REQ, 0x0000, ATT_ECODE_INVALID_PDU);
    3a26:	2304      	movs	r3, #4
    3a28:	2200      	movs	r2, #0
      sendError(connectionHandle, ATT_OP_WRITE_REQ, handle, ATT_ECODE_WRITE_NOT_PERM);
    3a2a:	0021      	movs	r1, r4
    3a2c:	0028      	movs	r0, r5
    3a2e:	f7ff f9e1 	bl	2df4 <_ZN8ATTClass9sendErrorEthth.constprop.3>
    3a32:	e00e      	b.n	3a52 <_ZN8ATTClass13writeReqOrCmdEthhPh+0x42>
  uint16_t handle = *(uint16_t*)data;
    3a34:	6bbb      	ldr	r3, [r7, #56]	; 0x38
  if ((uint16_t)(handle - 1) > GATT.attributeCount()) {
    3a36:	484b      	ldr	r0, [pc, #300]	; (3b64 <_ZN8ATTClass13writeReqOrCmdEthhPh+0x154>)
  uint16_t handle = *(uint16_t*)data;
    3a38:	881b      	ldrh	r3, [r3, #0]
    3a3a:	60fb      	str	r3, [r7, #12]
  if ((uint16_t)(handle - 1) > GATT.attributeCount()) {
    3a3c:	f000 fb2e 	bl	409c <_ZNK9GATTClass14attributeCountEv>
    3a40:	68fb      	ldr	r3, [r7, #12]
    3a42:	1e59      	subs	r1, r3, #1
    3a44:	b28b      	uxth	r3, r1
    3a46:	4283      	cmp	r3, r0
    3a48:	d906      	bls.n	3a58 <_ZN8ATTClass13writeReqOrCmdEthhPh+0x48>
      sendError(connectionHandle, ATT_OP_WRITE_REQ, handle, ATT_ECODE_ATTR_NOT_FOUND);
    3a4a:	230a      	movs	r3, #10
    if (withResponse) {
    3a4c:	2c12      	cmp	r4, #18
    3a4e:	d100      	bne.n	3a52 <_ZN8ATTClass13writeReqOrCmdEthhPh+0x42>
    3a50:	e085      	b.n	3b5e <_ZN8ATTClass13writeReqOrCmdEthhPh+0x14e>
}
    3a52:	46bd      	mov	sp, r7
    3a54:	b009      	add	sp, #36	; 0x24
    3a56:	bdf0      	pop	{r4, r5, r6, r7, pc}
  BLEAttribute* attribute = GATT.attribute(handle - 1);
    3a58:	4842      	ldr	r0, [pc, #264]	; (3b64 <_ZN8ATTClass13writeReqOrCmdEthhPh+0x154>)
    3a5a:	f000 fb46 	bl	40ea <_ZNK9GATTClass9attributeEj>
  if (attribute->type() == BLETypeCharacteristic) {
    3a5e:	6803      	ldr	r3, [r0, #0]
  BLEAttribute* attribute = GATT.attribute(handle - 1);
    3a60:	0006      	movs	r6, r0
  if (attribute->type() == BLETypeCharacteristic) {
    3a62:	689b      	ldr	r3, [r3, #8]
    3a64:	4798      	blx	r3
    3a66:	4b40      	ldr	r3, [pc, #256]	; (3b68 <_ZN8ATTClass13writeReqOrCmdEthhPh+0x158>)
    3a68:	4298      	cmp	r0, r3
    3a6a:	d141      	bne.n	3af0 <_ZN8ATTClass13writeReqOrCmdEthhPh+0xe0>
    if (handle != characteristic->valueHandle() || 
    3a6c:	0030      	movs	r0, r6
    3a6e:	f7fe fe65 	bl	273c <_ZNK22BLELocalCharacteristic11valueHandleEv>
      withResponse ? ((characteristic->properties() & BLEWrite) == 0) : 
    3a72:	68fb      	ldr	r3, [r7, #12]
    3a74:	4283      	cmp	r3, r0
    3a76:	d101      	bne.n	3a7c <_ZN8ATTClass13writeReqOrCmdEthhPh+0x6c>
    if (handle != characteristic->valueHandle() || 
    3a78:	2c12      	cmp	r4, #18
    3a7a:	d133      	bne.n	3ae4 <_ZN8ATTClass13writeReqOrCmdEthhPh+0xd4>
      withResponse ? ((characteristic->properties() & BLEWrite) == 0) : 
    3a7c:	0030      	movs	r0, r6
    3a7e:	f7fe fde9 	bl	2654 <_ZNK22BLELocalCharacteristic10propertiesEv>
    if (handle != characteristic->valueHandle() || 
    3a82:	0703      	lsls	r3, r0, #28
    3a84:	d567      	bpl.n	3b56 <_ZN8ATTClass13writeReqOrCmdEthhPh+0x146>
    if (connectionHandle == _connectionHandle) {
    3a86:	68bb      	ldr	r3, [r7, #8]
    3a88:	88db      	ldrh	r3, [r3, #6]
    3a8a:	42ab      	cmp	r3, r5
    3a8c:	d114      	bne.n	3ab8 <_ZN8ATTClass13writeReqOrCmdEthhPh+0xa8>
      characteristic->writeValue(BLEDevice(connectionHandle, _peerAddress), value, valueLength);
    3a8e:	2314      	movs	r3, #20
    3a90:	68ba      	ldr	r2, [r7, #8]
    3a92:	0029      	movs	r1, r5
    3a94:	3208      	adds	r2, #8
    3a96:	18f8      	adds	r0, r7, r3
    3a98:	f7fe fc78 	bl	238c <_ZN9BLEDeviceC1EtPh>
    3a9c:	2114      	movs	r1, #20
  uint8_t valueLength = dlen - sizeof(handle);
    3a9e:	687b      	ldr	r3, [r7, #4]
  uint8_t* value = &data[sizeof(handle)];
    3aa0:	6bba      	ldr	r2, [r7, #56]	; 0x38
  uint8_t valueLength = dlen - sizeof(handle);
    3aa2:	3b02      	subs	r3, #2
      characteristic->writeValue(BLEDevice(connectionHandle, _peerAddress), value, valueLength);
    3aa4:	b2db      	uxtb	r3, r3
  uint8_t* value = &data[sizeof(handle)];
    3aa6:	3202      	adds	r2, #2
      characteristic->writeValue(BLEDevice(connectionHandle, _peerAddress), value, valueLength);
    3aa8:	1879      	adds	r1, r7, r1
    3aaa:	0030      	movs	r0, r6
    3aac:	f7fe ff2c 	bl	2908 <_ZN22BLELocalCharacteristic10writeValueE9BLEDevicePKhi>
      characteristic->writeCccdValue(BLEDevice(connectionHandle, _peerAddress), *((uint16_t*)value));
    3ab0:	2314      	movs	r3, #20
    3ab2:	18f8      	adds	r0, r7, r3
    3ab4:	f7fe fbb9 	bl	222a <_ZN9BLEDeviceD1Ev>
  if (withResponse) {
    3ab8:	2c12      	cmp	r4, #18
    3aba:	d1ca      	bne.n	3a52 <_ZN8ATTClass13writeReqOrCmdEthhPh+0x42>
    HCI.sendAclPkt(connectionHandle, ATT_CID, responseLength, response);
    3abc:	466c      	mov	r4, sp
    uint8_t response[_mtu];
    3abe:	68bb      	ldr	r3, [r7, #8]
    response[0] = ATT_OP_WRITE_RESP;
    3ac0:	2213      	movs	r2, #19
    uint8_t response[_mtu];
    3ac2:	89db      	ldrh	r3, [r3, #14]
    HCI.sendAclPkt(connectionHandle, ATT_CID, responseLength, response);
    3ac4:	0029      	movs	r1, r5
    uint8_t response[_mtu];
    3ac6:	3307      	adds	r3, #7
    3ac8:	08db      	lsrs	r3, r3, #3
    3aca:	00db      	lsls	r3, r3, #3
    3acc:	1ae3      	subs	r3, r4, r3
    3ace:	469d      	mov	sp, r3
    3ad0:	ab02      	add	r3, sp, #8
    response[0] = ATT_OP_WRITE_RESP;
    3ad2:	701a      	strb	r2, [r3, #0]
    HCI.sendAclPkt(connectionHandle, ATT_CID, responseLength, response);
    3ad4:	4825      	ldr	r0, [pc, #148]	; (3b6c <_ZN8ATTClass13writeReqOrCmdEthhPh+0x15c>)
    3ad6:	9300      	str	r3, [sp, #0]
    3ad8:	3a0f      	subs	r2, #15
    3ada:	2301      	movs	r3, #1
    3adc:	f000 fc64 	bl	43a8 <_ZN8HCIClass10sendAclPktEthhPv>
    3ae0:	46a5      	mov	sp, r4
    3ae2:	e7b6      	b.n	3a52 <_ZN8ATTClass13writeReqOrCmdEthhPh+0x42>
                     ((characteristic->properties() & BLEWriteWithoutResponse) == 0)) {
    3ae4:	0030      	movs	r0, r6
    3ae6:	f7fe fdb5 	bl	2654 <_ZNK22BLELocalCharacteristic10propertiesEv>
    if (handle != characteristic->valueHandle() || 
    3aea:	0743      	lsls	r3, r0, #29
    3aec:	d4cb      	bmi.n	3a86 <_ZN8ATTClass13writeReqOrCmdEthhPh+0x76>
    3aee:	e7b0      	b.n	3a52 <_ZN8ATTClass13writeReqOrCmdEthhPh+0x42>
  } else if (attribute->type() == BLETypeDescriptor) {
    3af0:	6833      	ldr	r3, [r6, #0]
    3af2:	0030      	movs	r0, r6
    3af4:	689b      	ldr	r3, [r3, #8]
    3af6:	4798      	blx	r3
    3af8:	23a4      	movs	r3, #164	; 0xa4
    3afa:	019b      	lsls	r3, r3, #6
    3afc:	4298      	cmp	r0, r3
    3afe:	d12a      	bne.n	3b56 <_ZN8ATTClass13writeReqOrCmdEthhPh+0x146>
    if (descriptor->uuidLength() != 2 || *((uint16_t*)(descriptor->uuidData())) != 0x2902) {
    3b00:	0030      	movs	r0, r6
    3b02:	f7fe fb29 	bl	2158 <_ZNK12BLEAttribute10uuidLengthEv>
    3b06:	2802      	cmp	r0, #2
    3b08:	d125      	bne.n	3b56 <_ZN8ATTClass13writeReqOrCmdEthhPh+0x146>
    3b0a:	0030      	movs	r0, r6
    3b0c:	f7fe fb1f 	bl	214e <_ZNK12BLEAttribute8uuidDataEv>
    3b10:	4b17      	ldr	r3, [pc, #92]	; (3b70 <_ZN8ATTClass13writeReqOrCmdEthhPh+0x160>)
    3b12:	8802      	ldrh	r2, [r0, #0]
    3b14:	429a      	cmp	r2, r3
    3b16:	d11e      	bne.n	3b56 <_ZN8ATTClass13writeReqOrCmdEthhPh+0x146>
    attribute = GATT.attribute(handle - 2);
    3b18:	68fb      	ldr	r3, [r7, #12]
    3b1a:	4812      	ldr	r0, [pc, #72]	; (3b64 <_ZN8ATTClass13writeReqOrCmdEthhPh+0x154>)
    3b1c:	1e99      	subs	r1, r3, #2
    3b1e:	f000 fae4 	bl	40ea <_ZNK9GATTClass9attributeEj>
    if (attribute->type() != BLETypeCharacteristic) {
    3b22:	6803      	ldr	r3, [r0, #0]
    attribute = GATT.attribute(handle - 2);
    3b24:	0006      	movs	r6, r0
    if (attribute->type() != BLETypeCharacteristic) {
    3b26:	689b      	ldr	r3, [r3, #8]
    3b28:	4798      	blx	r3
    3b2a:	4b0f      	ldr	r3, [pc, #60]	; (3b68 <_ZN8ATTClass13writeReqOrCmdEthhPh+0x158>)
    3b2c:	4298      	cmp	r0, r3
    3b2e:	d112      	bne.n	3b56 <_ZN8ATTClass13writeReqOrCmdEthhPh+0x146>
    if (connectionHandle == _connectionHandle) {
    3b30:	68bb      	ldr	r3, [r7, #8]
    3b32:	88db      	ldrh	r3, [r3, #6]
    3b34:	42ab      	cmp	r3, r5
    3b36:	d1bf      	bne.n	3ab8 <_ZN8ATTClass13writeReqOrCmdEthhPh+0xa8>
      characteristic->writeCccdValue(BLEDevice(connectionHandle, _peerAddress), *((uint16_t*)value));
    3b38:	2314      	movs	r3, #20
    3b3a:	68ba      	ldr	r2, [r7, #8]
    3b3c:	0029      	movs	r1, r5
    3b3e:	18f8      	adds	r0, r7, r3
    3b40:	3208      	adds	r2, #8
    3b42:	f7fe fc23 	bl	238c <_ZN9BLEDeviceC1EtPh>
    3b46:	6bbb      	ldr	r3, [r7, #56]	; 0x38
    3b48:	0030      	movs	r0, r6
    3b4a:	885a      	ldrh	r2, [r3, #2]
    3b4c:	2314      	movs	r3, #20
    3b4e:	18f9      	adds	r1, r7, r3
    3b50:	f7fe ff06 	bl	2960 <_ZN22BLELocalCharacteristic14writeCccdValueE9BLEDevicet>
    3b54:	e7ac      	b.n	3ab0 <_ZN8ATTClass13writeReqOrCmdEthhPh+0xa0>
    if (withResponse) {
    3b56:	2c12      	cmp	r4, #18
    3b58:	d000      	beq.n	3b5c <_ZN8ATTClass13writeReqOrCmdEthhPh+0x14c>
    3b5a:	e77a      	b.n	3a52 <_ZN8ATTClass13writeReqOrCmdEthhPh+0x42>
      sendError(connectionHandle, ATT_OP_WRITE_REQ, handle, ATT_ECODE_WRITE_NOT_PERM);
    3b5c:	2303      	movs	r3, #3
    3b5e:	68fa      	ldr	r2, [r7, #12]
    3b60:	e763      	b.n	3a2a <_ZN8ATTClass13writeReqOrCmdEthhPh+0x1a>
    3b62:	46c0      	nop			; (mov r8, r8)
    3b64:	20000324 	.word	0x20000324
    3b68:	00002803 	.word	0x00002803
    3b6c:	20000490 	.word	0x20000490
    3b70:	00002902 	.word	0x00002902

00003b74 <_ZN8ATTClass12prepWriteReqEthPh>:
{
    3b74:	b5f0      	push	{r4, r5, r6, r7, lr}
    3b76:	b08b      	sub	sp, #44	; 0x2c
    3b78:	af02      	add	r7, sp, #8
    3b7a:	617b      	str	r3, [r7, #20]
  HCI.sendAclPkt(connectionHandle, ATT_CID, responseLength, response);
    3b7c:	466b      	mov	r3, sp
{
    3b7e:	0005      	movs	r5, r0
    3b80:	61f9      	str	r1, [r7, #28]
    3b82:	613a      	str	r2, [r7, #16]
  HCI.sendAclPkt(connectionHandle, ATT_CID, responseLength, response);
    3b84:	60bb      	str	r3, [r7, #8]
  if (dlen < sizeof(PrepWriteReq)) {
    3b86:	2a03      	cmp	r2, #3
    3b88:	d806      	bhi.n	3b98 <_ZN8ATTClass12prepWriteReqEthPh+0x24>
    sendError(connectionHandle, ATT_OP_PREP_WRITE_REQ, 0x0000, ATT_ECODE_INVALID_PDU);
    3b8a:	2304      	movs	r3, #4
    3b8c:	2200      	movs	r2, #0
    sendError(connectionHandle, ATT_OP_PREP_WRITE_REQ, handle, ATT_ECODE_INVALID_OFFSET);
    3b8e:	2116      	movs	r1, #22
    3b90:	69f8      	ldr	r0, [r7, #28]
    3b92:	f7ff f92f 	bl	2df4 <_ZN8ATTClass9sendErrorEthth.constprop.3>
    return;
    3b96:	e075      	b.n	3c84 <_ZN8ATTClass12prepWriteReqEthPh+0x110>
  uint16_t handle = prepWriteReq->handle;
    3b98:	697a      	ldr	r2, [r7, #20]
    3b9a:	697b      	ldr	r3, [r7, #20]
    3b9c:	7854      	ldrb	r4, [r2, #1]
    3b9e:	781b      	ldrb	r3, [r3, #0]
  uint16_t offset = prepWriteReq->offset;
    3ba0:	78d0      	ldrb	r0, [r2, #3]
  uint16_t handle = prepWriteReq->handle;
    3ba2:	0224      	lsls	r4, r4, #8
    3ba4:	431c      	orrs	r4, r3
  uint16_t offset = prepWriteReq->offset;
    3ba6:	7893      	ldrb	r3, [r2, #2]
  if ((uint16_t)(handle - 1) > GATT.attributeCount()) {
    3ba8:	4e3c      	ldr	r6, [pc, #240]	; (3c9c <_ZN8ATTClass12prepWriteReqEthPh+0x128>)
  uint16_t offset = prepWriteReq->offset;
    3baa:	0200      	lsls	r0, r0, #8
    3bac:	4318      	orrs	r0, r3
    3bae:	60f8      	str	r0, [r7, #12]
  if ((uint16_t)(handle - 1) > GATT.attributeCount()) {
    3bb0:	0030      	movs	r0, r6
    3bb2:	f000 fa73 	bl	409c <_ZNK9GATTClass14attributeCountEv>
    3bb6:	1e61      	subs	r1, r4, #1
    3bb8:	b28b      	uxth	r3, r1
    3bba:	4283      	cmp	r3, r0
    3bbc:	d902      	bls.n	3bc4 <_ZN8ATTClass12prepWriteReqEthPh+0x50>
    sendError(connectionHandle, ATT_OP_PREP_WRITE_REQ, handle, ATT_ECODE_ATTR_NOT_FOUND);
    3bbe:	230a      	movs	r3, #10
    sendError(connectionHandle, ATT_OP_PREP_WRITE_REQ, handle, ATT_ECODE_INVALID_OFFSET);
    3bc0:	0022      	movs	r2, r4
    3bc2:	e7e4      	b.n	3b8e <_ZN8ATTClass12prepWriteReqEthPh+0x1a>
  BLEAttribute* attribute = GATT.attribute(handle - 1);
    3bc4:	0030      	movs	r0, r6
    3bc6:	f000 fa90 	bl	40ea <_ZNK9GATTClass9attributeEj>
  if (attribute->type() != BLETypeCharacteristic) {
    3bca:	6803      	ldr	r3, [r0, #0]
  BLEAttribute* attribute = GATT.attribute(handle - 1);
    3bcc:	61b8      	str	r0, [r7, #24]
  if (attribute->type() != BLETypeCharacteristic) {
    3bce:	689b      	ldr	r3, [r3, #8]
    3bd0:	4798      	blx	r3
    3bd2:	4b33      	ldr	r3, [pc, #204]	; (3ca0 <_ZN8ATTClass12prepWriteReqEthPh+0x12c>)
    3bd4:	4298      	cmp	r0, r3
    3bd6:	d001      	beq.n	3bdc <_ZN8ATTClass12prepWriteReqEthPh+0x68>
    sendError(connectionHandle, ATT_OP_PREP_WRITE_REQ, handle, ATT_ECODE_ATTR_NOT_LONG);
    3bd8:	230b      	movs	r3, #11
    3bda:	e7f1      	b.n	3bc0 <_ZN8ATTClass12prepWriteReqEthPh+0x4c>
  if (handle != characteristic->valueHandle()) {
    3bdc:	69b8      	ldr	r0, [r7, #24]
    3bde:	f7fe fdad 	bl	273c <_ZNK22BLELocalCharacteristic11valueHandleEv>
    3be2:	4284      	cmp	r4, r0
    3be4:	d1f8      	bne.n	3bd8 <_ZN8ATTClass12prepWriteReqEthPh+0x64>
  if ((characteristic->properties() & BLEWrite) == 0) {
    3be6:	69b8      	ldr	r0, [r7, #24]
    3be8:	f7fe fd34 	bl	2654 <_ZNK22BLELocalCharacteristic10propertiesEv>
    3bec:	0703      	lsls	r3, r0, #28
    3bee:	d401      	bmi.n	3bf4 <_ZN8ATTClass12prepWriteReqEthPh+0x80>
    sendError(connectionHandle, ATT_OP_PREP_WRITE_REQ, handle, ATT_ECODE_WRITE_NOT_PERM);
    3bf0:	2303      	movs	r3, #3
    3bf2:	e7e5      	b.n	3bc0 <_ZN8ATTClass12prepWriteReqEthPh+0x4c>
  if (_longWriteHandle == 0) {
    3bf4:	8a6e      	ldrh	r6, [r5, #18]
    3bf6:	2e00      	cmp	r6, #0
    3bf8:	d149      	bne.n	3c8e <_ZN8ATTClass12prepWriteReqEthPh+0x11a>
    int valueSize = characteristic->valueSize();
    3bfa:	69b8      	ldr	r0, [r7, #24]
    3bfc:	f7fe fd2d 	bl	265a <_ZNK22BLELocalCharacteristic9valueSizeEv>
    _longWriteValue = (uint8_t*)realloc(_longWriteValue, valueSize);
    3c00:	0001      	movs	r1, r0
    int valueSize = characteristic->valueSize();
    3c02:	6078      	str	r0, [r7, #4]
    _longWriteValue = (uint8_t*)realloc(_longWriteValue, valueSize);
    3c04:	6968      	ldr	r0, [r5, #20]
    3c06:	f006 f90d 	bl	9e24 <realloc>
    _longWriteValueLength = 0;
    3c0a:	832e      	strh	r6, [r5, #24]
    _longWriteValue = (uint8_t*)realloc(_longWriteValue, valueSize);
    3c0c:	6168      	str	r0, [r5, #20]
    _longWriteHandle = handle;
    3c0e:	826c      	strh	r4, [r5, #18]
    memset(_longWriteValue, 0x00, valueSize);
    3c10:	687a      	ldr	r2, [r7, #4]
    3c12:	0031      	movs	r1, r6
    3c14:	f005 fbe6 	bl	93e4 <memset>
  if ((offset != _longWriteValueLength) || ((offset + valueLength) > (uint16_t)characteristic->valueSize())) {
    3c18:	8b2b      	ldrh	r3, [r5, #24]
    3c1a:	68fa      	ldr	r2, [r7, #12]
    3c1c:	4293      	cmp	r3, r2
    3c1e:	d13b      	bne.n	3c98 <_ZN8ATTClass12prepWriteReqEthPh+0x124>
  uint8_t valueLength = dlen - sizeof(PrepWriteReq);
    3c20:	693b      	ldr	r3, [r7, #16]
  if ((offset != _longWriteValueLength) || ((offset + valueLength) > (uint16_t)characteristic->valueSize())) {
    3c22:	69b8      	ldr	r0, [r7, #24]
  uint8_t valueLength = dlen - sizeof(PrepWriteReq);
    3c24:	1f1e      	subs	r6, r3, #4
    3c26:	b2f6      	uxtb	r6, r6
  if ((offset != _longWriteValueLength) || ((offset + valueLength) > (uint16_t)characteristic->valueSize())) {
    3c28:	1993      	adds	r3, r2, r6
    3c2a:	607b      	str	r3, [r7, #4]
    3c2c:	f7fe fd15 	bl	265a <_ZNK22BLELocalCharacteristic9valueSizeEv>
    3c30:	687b      	ldr	r3, [r7, #4]
    3c32:	b280      	uxth	r0, r0
    3c34:	4298      	cmp	r0, r3
    3c36:	db2f      	blt.n	3c98 <_ZN8ATTClass12prepWriteReqEthPh+0x124>
  memcpy(_longWriteValue + offset, value, valueLength);
    3c38:	696a      	ldr	r2, [r5, #20]
    3c3a:	68fb      	ldr	r3, [r7, #12]
    3c3c:	4694      	mov	ip, r2
    3c3e:	4463      	add	r3, ip
    3c40:	0018      	movs	r0, r3
  uint8_t* value = &data[sizeof(PrepWriteReq)];
    3c42:	697b      	ldr	r3, [r7, #20]
  memcpy(_longWriteValue + offset, value, valueLength);
    3c44:	0032      	movs	r2, r6
  uint8_t* value = &data[sizeof(PrepWriteReq)];
    3c46:	1d19      	adds	r1, r3, #4
  memcpy(_longWriteValue + offset, value, valueLength);
    3c48:	f005 fbb1 	bl	93ae <memcpy>
  uint8_t response[_mtu];
    3c4c:	466a      	mov	r2, sp
  _longWriteValueLength += valueLength;
    3c4e:	8b2b      	ldrh	r3, [r5, #24]
  memcpy(&response[1], data, dlen);
    3c50:	2009      	movs	r0, #9
  _longWriteValueLength += valueLength;
    3c52:	199e      	adds	r6, r3, r6
  uint8_t response[_mtu];
    3c54:	89eb      	ldrh	r3, [r5, #14]
  memcpy(&response[1], data, dlen);
    3c56:	6979      	ldr	r1, [r7, #20]
  uint8_t response[_mtu];
    3c58:	3307      	adds	r3, #7
    3c5a:	08db      	lsrs	r3, r3, #3
    3c5c:	00db      	lsls	r3, r3, #3
    3c5e:	1ad3      	subs	r3, r2, r3
    3c60:	469d      	mov	sp, r3
  response[0] = ATT_OP_PREP_WRITE_RESP;
    3c62:	2317      	movs	r3, #23
  uint8_t response[_mtu];
    3c64:	ac02      	add	r4, sp, #8
  response[0] = ATT_OP_PREP_WRITE_RESP;
    3c66:	7023      	strb	r3, [r4, #0]
  memcpy(&response[1], data, dlen);
    3c68:	693a      	ldr	r2, [r7, #16]
  _longWriteValueLength += valueLength;
    3c6a:	832e      	strh	r6, [r5, #24]
  memcpy(&response[1], data, dlen);
    3c6c:	4468      	add	r0, sp
    3c6e:	f005 fb9e 	bl	93ae <memcpy>
  responseLength = dlen + 1;
    3c72:	693b      	ldr	r3, [r7, #16]
  HCI.sendAclPkt(connectionHandle, ATT_CID, responseLength, response);
    3c74:	9400      	str	r4, [sp, #0]
  responseLength = dlen + 1;
    3c76:	3301      	adds	r3, #1
  HCI.sendAclPkt(connectionHandle, ATT_CID, responseLength, response);
    3c78:	b2db      	uxtb	r3, r3
    3c7a:	2204      	movs	r2, #4
    3c7c:	69f9      	ldr	r1, [r7, #28]
    3c7e:	4809      	ldr	r0, [pc, #36]	; (3ca4 <_ZN8ATTClass12prepWriteReqEthPh+0x130>)
    3c80:	f000 fb92 	bl	43a8 <_ZN8HCIClass10sendAclPktEthhPv>
    3c84:	68bb      	ldr	r3, [r7, #8]
    3c86:	469d      	mov	sp, r3
}
    3c88:	46bd      	mov	sp, r7
    3c8a:	b009      	add	sp, #36	; 0x24
    3c8c:	bdf0      	pop	{r4, r5, r6, r7, pc}
    sendError(connectionHandle, ATT_OP_PREP_WRITE_REQ, handle, ATT_ECODE_UNLIKELY);
    3c8e:	230e      	movs	r3, #14
  } else if (_longWriteHandle != handle) {
    3c90:	42b4      	cmp	r4, r6
    3c92:	d000      	beq.n	3c96 <_ZN8ATTClass12prepWriteReqEthPh+0x122>
    3c94:	e794      	b.n	3bc0 <_ZN8ATTClass12prepWriteReqEthPh+0x4c>
    3c96:	e7bf      	b.n	3c18 <_ZN8ATTClass12prepWriteReqEthPh+0xa4>
    sendError(connectionHandle, ATT_OP_PREP_WRITE_REQ, handle, ATT_ECODE_INVALID_OFFSET);
    3c98:	2307      	movs	r3, #7
    3c9a:	e791      	b.n	3bc0 <_ZN8ATTClass12prepWriteReqEthPh+0x4c>
    3c9c:	20000324 	.word	0x20000324
    3ca0:	00002803 	.word	0x00002803
    3ca4:	20000490 	.word	0x20000490

00003ca8 <_ZN8ATTClass12execWriteReqEthPh>:
{
    3ca8:	b5f0      	push	{r4, r5, r6, r7, lr}
    3caa:	b089      	sub	sp, #36	; 0x24
    3cac:	000d      	movs	r5, r1
  HCI.sendAclPkt(connectionHandle, ATT_CID, responseLength, response);
    3cae:	4669      	mov	r1, sp
{
    3cb0:	af02      	add	r7, sp, #8
    3cb2:	0004      	movs	r4, r0
  HCI.sendAclPkt(connectionHandle, ATT_CID, responseLength, response);
    3cb4:	6079      	str	r1, [r7, #4]
  if (dlen != sizeof(uint8_t)) {
    3cb6:	2a01      	cmp	r2, #1
    3cb8:	d008      	beq.n	3ccc <_ZN8ATTClass12execWriteReqEthPh+0x24>
    sendError(connectionHandle, ATT_OP_EXEC_WRITE_REQ, 0x0000, ATT_ECODE_INVALID_PDU);
    3cba:	2304      	movs	r3, #4
    3cbc:	2200      	movs	r2, #0
    3cbe:	2118      	movs	r1, #24
    3cc0:	0028      	movs	r0, r5
    3cc2:	f7ff f897 	bl	2df4 <_ZN8ATTClass9sendErrorEthth.constprop.3>
}
    3cc6:	46bd      	mov	sp, r7
    3cc8:	b007      	add	sp, #28
    3cca:	bdf0      	pop	{r4, r5, r6, r7, pc}
  if (_longWriteHandle && (flag & 0x01)) {
    3ccc:	8a41      	ldrh	r1, [r0, #18]
    3cce:	2900      	cmp	r1, #0
    3cd0:	d01c      	beq.n	3d0c <_ZN8ATTClass12execWriteReqEthPh+0x64>
    3cd2:	781b      	ldrb	r3, [r3, #0]
    3cd4:	4213      	tst	r3, r2
    3cd6:	d019      	beq.n	3d0c <_ZN8ATTClass12execWriteReqEthPh+0x64>
    BLELocalCharacteristic* characteristic = (BLELocalCharacteristic*)GATT.attribute(_longWriteHandle - 1);
    3cd8:	3901      	subs	r1, #1
    3cda:	4818      	ldr	r0, [pc, #96]	; (3d3c <_ZN8ATTClass12execWriteReqEthPh+0x94>)
    3cdc:	f000 fa05 	bl	40ea <_ZNK9GATTClass9attributeEj>
    if (connectionHandle == _connectionHandle) {
    3ce0:	88e3      	ldrh	r3, [r4, #6]
    BLELocalCharacteristic* characteristic = (BLELocalCharacteristic*)GATT.attribute(_longWriteHandle - 1);
    3ce2:	0006      	movs	r6, r0
    if (connectionHandle == _connectionHandle) {
    3ce4:	42ab      	cmp	r3, r5
    3ce6:	d111      	bne.n	3d0c <_ZN8ATTClass12execWriteReqEthPh+0x64>
      characteristic->writeValue(BLEDevice(connectionHandle, _peerAddress), _longWriteValue, _longWriteValueLength);
    3ce8:	230c      	movs	r3, #12
    3cea:	0022      	movs	r2, r4
    3cec:	0029      	movs	r1, r5
    3cee:	3208      	adds	r2, #8
    3cf0:	18f8      	adds	r0, r7, r3
    3cf2:	f7fe fb4b 	bl	238c <_ZN9BLEDeviceC1EtPh>
    3cf6:	210c      	movs	r1, #12
    3cf8:	8b23      	ldrh	r3, [r4, #24]
    3cfa:	0030      	movs	r0, r6
    3cfc:	6962      	ldr	r2, [r4, #20]
    3cfe:	1879      	adds	r1, r7, r1
    3d00:	f7fe fe02 	bl	2908 <_ZN22BLELocalCharacteristic10writeValueE9BLEDevicePKhi>
    3d04:	230c      	movs	r3, #12
    3d06:	18f8      	adds	r0, r7, r3
    3d08:	f7fe fa8f 	bl	222a <_ZN9BLEDeviceD1Ev>
  _longWriteHandle = 0x0000;
    3d0c:	2300      	movs	r3, #0
  uint8_t response[_mtu];
    3d0e:	466a      	mov	r2, sp
  _longWriteHandle = 0x0000;
    3d10:	8263      	strh	r3, [r4, #18]
  _longWriteValueLength = 0;
    3d12:	8323      	strh	r3, [r4, #24]
  uint8_t response[_mtu];
    3d14:	89e3      	ldrh	r3, [r4, #14]
  HCI.sendAclPkt(connectionHandle, ATT_CID, responseLength, response);
    3d16:	0029      	movs	r1, r5
  uint8_t response[_mtu];
    3d18:	3307      	adds	r3, #7
    3d1a:	08db      	lsrs	r3, r3, #3
    3d1c:	00db      	lsls	r3, r3, #3
    3d1e:	1ad3      	subs	r3, r2, r3
    3d20:	469d      	mov	sp, r3
  response[0] = ATT_OP_EXEC_WRITE_RESP;
    3d22:	2219      	movs	r2, #25
  uint8_t response[_mtu];
    3d24:	ab02      	add	r3, sp, #8
  response[0] = ATT_OP_EXEC_WRITE_RESP;
    3d26:	701a      	strb	r2, [r3, #0]
  HCI.sendAclPkt(connectionHandle, ATT_CID, responseLength, response);
    3d28:	4805      	ldr	r0, [pc, #20]	; (3d40 <_ZN8ATTClass12execWriteReqEthPh+0x98>)
    3d2a:	9300      	str	r3, [sp, #0]
    3d2c:	3a15      	subs	r2, #21
    3d2e:	2301      	movs	r3, #1
    3d30:	f000 fb3a 	bl	43a8 <_ZN8HCIClass10sendAclPktEthhPv>
    3d34:	687b      	ldr	r3, [r7, #4]
    3d36:	469d      	mov	sp, r3
    3d38:	e7c5      	b.n	3cc6 <_ZN8ATTClass12execWriteReqEthPh+0x1e>
    3d3a:	46c0      	nop			; (mov r8, r8)
    3d3c:	20000324 	.word	0x20000324
    3d40:	20000490 	.word	0x20000490

00003d44 <_ZN8ATTClass10handleDataEthPh>:
{
    3d44:	b513      	push	{r0, r1, r4, lr}
    3d46:	000c      	movs	r4, r1
  uint8_t opcode = data[0];
    3d48:	7819      	ldrb	r1, [r3, #0]
  dlen--;
    3d4a:	3a01      	subs	r2, #1
    3d4c:	b2d2      	uxtb	r2, r2
  data++;
    3d4e:	3301      	adds	r3, #1
  switch (opcode) {
    3d50:	290c      	cmp	r1, #12
    3d52:	d011      	beq.n	3d78 <_ZN8ATTClass10handleDataEthPh+0x34>
    3d54:	d817      	bhi.n	3d86 <_ZN8ATTClass10handleDataEthPh+0x42>
    3d56:	2906      	cmp	r1, #6
    3d58:	d035      	beq.n	3dc6 <_ZN8ATTClass10handleDataEthPh+0x82>
    3d5a:	d809      	bhi.n	3d70 <_ZN8ATTClass10handleDataEthPh+0x2c>
    3d5c:	2902      	cmp	r1, #2
    3d5e:	d02a      	beq.n	3db6 <_ZN8ATTClass10handleDataEthPh+0x72>
    3d60:	2904      	cmp	r1, #4
    3d62:	d02c      	beq.n	3dbe <_ZN8ATTClass10handleDataEthPh+0x7a>
      sendError(connectionHandle, opcode, 0x00, ATT_ECODE_REQ_NOT_SUPP);
    3d64:	2306      	movs	r3, #6
    3d66:	2200      	movs	r2, #0
    3d68:	0020      	movs	r0, r4
    3d6a:	f7ff f843 	bl	2df4 <_ZN8ATTClass9sendErrorEthth.constprop.3>
}
    3d6e:	e025      	b.n	3dbc <_ZN8ATTClass10handleDataEthPh+0x78>
  switch (opcode) {
    3d70:	2908      	cmp	r1, #8
    3d72:	d02c      	beq.n	3dce <_ZN8ATTClass10handleDataEthPh+0x8a>
    3d74:	290a      	cmp	r1, #10
    3d76:	d1f5      	bne.n	3d64 <_ZN8ATTClass10handleDataEthPh+0x20>
      readOrReadBlobReq(connectionHandle, opcode, dlen, data);
    3d78:	9300      	str	r3, [sp, #0]
    3d7a:	0013      	movs	r3, r2
    3d7c:	000a      	movs	r2, r1
    3d7e:	0021      	movs	r1, r4
    3d80:	f7ff fc1c 	bl	35bc <_ZN8ATTClass17readOrReadBlobReqEthhPh>
      break;
    3d84:	e01a      	b.n	3dbc <_ZN8ATTClass10handleDataEthPh+0x78>
  switch (opcode) {
    3d86:	2916      	cmp	r1, #22
    3d88:	d029      	beq.n	3dde <_ZN8ATTClass10handleDataEthPh+0x9a>
    3d8a:	d80a      	bhi.n	3da2 <_ZN8ATTClass10handleDataEthPh+0x5e>
    3d8c:	2910      	cmp	r1, #16
    3d8e:	d022      	beq.n	3dd6 <_ZN8ATTClass10handleDataEthPh+0x92>
    3d90:	2912      	cmp	r1, #18
    3d92:	d1e7      	bne.n	3d64 <_ZN8ATTClass10handleDataEthPh+0x20>
      writeReqOrCmd(connectionHandle, opcode, dlen, data);
    3d94:	9300      	str	r3, [sp, #0]
    3d96:	0013      	movs	r3, r2
    3d98:	000a      	movs	r2, r1
    3d9a:	0021      	movs	r1, r4
    3d9c:	f7ff fe38 	bl	3a10 <_ZN8ATTClass13writeReqOrCmdEthhPh>
      break;
    3da0:	e00c      	b.n	3dbc <_ZN8ATTClass10handleDataEthPh+0x78>
  switch (opcode) {
    3da2:	291e      	cmp	r1, #30
    3da4:	d01f      	beq.n	3de6 <_ZN8ATTClass10handleDataEthPh+0xa2>
    3da6:	2952      	cmp	r1, #82	; 0x52
    3da8:	d0f4      	beq.n	3d94 <_ZN8ATTClass10handleDataEthPh+0x50>
    3daa:	2918      	cmp	r1, #24
    3dac:	d1da      	bne.n	3d64 <_ZN8ATTClass10handleDataEthPh+0x20>
      execWriteReq(connectionHandle, dlen, data);
    3dae:	0021      	movs	r1, r4
    3db0:	f7ff ff7a 	bl	3ca8 <_ZN8ATTClass12execWriteReqEthPh>
      break;
    3db4:	e002      	b.n	3dbc <_ZN8ATTClass10handleDataEthPh+0x78>
      mtuReq(connectionHandle, dlen, data);
    3db6:	0021      	movs	r1, r4
    3db8:	f7ff f9ac 	bl	3114 <_ZN8ATTClass6mtuReqEthPh>
}
    3dbc:	bd13      	pop	{r0, r1, r4, pc}
      findInfoReq(connectionHandle, dlen, data);
    3dbe:	0021      	movs	r1, r4
    3dc0:	f7ff f9d2 	bl	3168 <_ZN8ATTClass11findInfoReqEthPh>
      break;
    3dc4:	e7fa      	b.n	3dbc <_ZN8ATTClass10handleDataEthPh+0x78>
      findByTypeReq(connectionHandle, dlen, data);
    3dc6:	0021      	movs	r1, r4
    3dc8:	f7ff fa98 	bl	32fc <_ZN8ATTClass13findByTypeReqEthPh>
      break;
    3dcc:	e7f6      	b.n	3dbc <_ZN8ATTClass10handleDataEthPh+0x78>
      readByTypeReq(connectionHandle, dlen, data);
    3dce:	0021      	movs	r1, r4
    3dd0:	f7ff fce0 	bl	3794 <_ZN8ATTClass13readByTypeReqEthPh>
      break;
    3dd4:	e7f2      	b.n	3dbc <_ZN8ATTClass10handleDataEthPh+0x78>
      readByGroupReq(connectionHandle, dlen, data);
    3dd6:	0021      	movs	r1, r4
    3dd8:	f7ff fb30 	bl	343c <_ZN8ATTClass14readByGroupReqEthPh>
      break;
    3ddc:	e7ee      	b.n	3dbc <_ZN8ATTClass10handleDataEthPh+0x78>
      prepWriteReq(connectionHandle, dlen, data);
    3dde:	0021      	movs	r1, r4
    3de0:	f7ff fec8 	bl	3b74 <_ZN8ATTClass12prepWriteReqEthPh>
      break;
    3de4:	e7ea      	b.n	3dbc <_ZN8ATTClass10handleDataEthPh+0x78>
  _cnf = true;
    3de6:	2301      	movs	r3, #1
    3de8:	7403      	strb	r3, [r0, #16]
    3dea:	e7e7      	b.n	3dbc <_ZN8ATTClass10handleDataEthPh+0x78>

00003dec <_GLOBAL__sub_I__ZN8ATTClassC2Ev>:
  if (event < (sizeof(_eventHandlers) / (sizeof(_eventHandlers[0])))) {
    _eventHandlers[event] = eventHandler;
  }
}

ATTClass ATT;
    3dec:	b510      	push	{r4, lr}
    3dee:	4c05      	ldr	r4, [pc, #20]	; (3e04 <_GLOBAL__sub_I__ZN8ATTClassC2Ev+0x18>)
    3df0:	0020      	movs	r0, r4
    3df2:	f7ff f81f 	bl	2e34 <_ZN8ATTClassC1Ev>
    3df6:	4a04      	ldr	r2, [pc, #16]	; (3e08 <_GLOBAL__sub_I__ZN8ATTClassC2Ev+0x1c>)
    3df8:	4904      	ldr	r1, [pc, #16]	; (3e0c <_GLOBAL__sub_I__ZN8ATTClassC2Ev+0x20>)
    3dfa:	0020      	movs	r0, r4
    3dfc:	f003 fb22 	bl	7444 <__aeabi_atexit>
    3e00:	bd10      	pop	{r4, pc}
    3e02:	46c0      	nop			; (mov r8, r8)
    3e04:	200002d8 	.word	0x200002d8
    3e08:	20000000 	.word	0x20000000
    3e0c:	00002dc5 	.word	0x00002dc5

00003e10 <_ZN8GAPClassD1Ev>:
{
}

GAPClass::~GAPClass()
{
}
    3e10:	4770      	bx	lr

00003e12 <_ZN8GAPClassD0Ev>:
GAPClass::~GAPClass()
    3e12:	b510      	push	{r4, lr}
    3e14:	0004      	movs	r4, r0
}
    3e16:	f001 fb41 	bl	549c <_ZdlPv>
    3e1a:	0020      	movs	r0, r4
    3e1c:	bd10      	pop	{r4, pc}
	...

00003e20 <_ZN8GAPClassC1Ev>:
  _serviceDataLength(0)
    3e20:	4b07      	ldr	r3, [pc, #28]	; (3e40 <_ZN8GAPClassC1Ev+0x20>)
    3e22:	22a0      	movs	r2, #160	; 0xa0
    3e24:	3308      	adds	r3, #8
    3e26:	6003      	str	r3, [r0, #0]
    3e28:	2300      	movs	r3, #0
    3e2a:	8302      	strh	r2, [r0, #24]
    3e2c:	3a9f      	subs	r2, #159	; 0x9f
    3e2e:	7103      	strb	r3, [r0, #4]
    3e30:	6083      	str	r3, [r0, #8]
    3e32:	60c3      	str	r3, [r0, #12]
    3e34:	6103      	str	r3, [r0, #16]
    3e36:	6143      	str	r3, [r0, #20]
    3e38:	7682      	strb	r2, [r0, #26]
    3e3a:	6203      	str	r3, [r0, #32]
    3e3c:	6243      	str	r3, [r0, #36]	; 0x24
}
    3e3e:	4770      	bx	lr
    3e40:	0000b838 	.word	0x0000b838

00003e44 <_ZN8GAPClass24setAdvertisedServiceUuidEPKc>:

void GAPClass::setAdvertisedServiceUuid(const char* advertisedServiceUuid)
{
  _advertisedServiceUuid = advertisedServiceUuid;
    3e44:	6081      	str	r1, [r0, #8]
}
    3e46:	4770      	bx	lr

00003e48 <_ZN8GAPClass12setLocalNameEPKc>:
  _manufacturerDataLength = manufacturerDataLength;
}

void GAPClass::setLocalName(const char *localName)
{
  _localName = localName;
    3e48:	6141      	str	r1, [r0, #20]
}
    3e4a:	4770      	bx	lr

00003e4c <_ZN8GAPClass11advertisingEv>:

bool GAPClass::advertising()
{
  return _advertising;
    3e4c:	7900      	ldrb	r0, [r0, #4]
}
    3e4e:	4770      	bx	lr

00003e50 <_ZN8GAPClass9advertiseEv>:

int GAPClass::advertise()
{
    3e50:	b5f0      	push	{r4, r5, r6, r7, lr}
    3e52:	b09b      	sub	sp, #108	; 0x6c
    3e54:	0004      	movs	r4, r0
  uint8_t directBdaddr[6] = {0x00, 0x00, 0x00, 0x00, 0x00, 0x00};
    3e56:	ad08      	add	r5, sp, #32
    3e58:	2206      	movs	r2, #6
    3e5a:	2100      	movs	r1, #0
    3e5c:	0028      	movs	r0, r5
    3e5e:	f005 fac1 	bl	93e4 <memset>
    3e62:	2200      	movs	r2, #0

  uint8_t type = (_connectable) ? 0x00 : (_localName ? 0x02 : 0x03);
    3e64:	7ea1      	ldrb	r1, [r4, #26]
    3e66:	0013      	movs	r3, r2
    3e68:	4291      	cmp	r1, r2
    3e6a:	d103      	bne.n	3e74 <_ZN8GAPClass9advertiseEv+0x24>
    3e6c:	6963      	ldr	r3, [r4, #20]
    3e6e:	4259      	negs	r1, r3
    3e70:	414b      	adcs	r3, r1
    3e72:	3302      	adds	r3, #2

  _advertising = false;

  if (HCI.leSetAdvertisingParameters(_advertisingInterval, _advertisingInterval, type, 0x00, 0x00, directBdaddr, 0x07, 0) != 0) {
    3e74:	2007      	movs	r0, #7
    3e76:	8b21      	ldrh	r1, [r4, #24]
  _advertising = false;
    3e78:	7122      	strb	r2, [r4, #4]
  if (HCI.leSetAdvertisingParameters(_advertisingInterval, _advertisingInterval, type, 0x00, 0x00, directBdaddr, 0x07, 0) != 0) {
    3e7a:	9204      	str	r2, [sp, #16]
    3e7c:	9003      	str	r0, [sp, #12]
    3e7e:	9201      	str	r2, [sp, #4]
    3e80:	9200      	str	r2, [sp, #0]
    3e82:	9502      	str	r5, [sp, #8]
    3e84:	000a      	movs	r2, r1
    3e86:	4849      	ldr	r0, [pc, #292]	; (3fac <_ZN8GAPClass9advertiseEv+0x15c>)
    3e88:	f000 fc78 	bl	477c <_ZN8HCIClass26leSetAdvertisingParametersEtthhhPhhh>
    3e8c:	2800      	cmp	r0, #0
    3e8e:	d002      	beq.n	3e96 <_ZN8GAPClass9advertiseEv+0x46>
    return 0;
    3e90:	2000      	movs	r0, #0
  }

  _advertising = false;

  return 1;
}
    3e92:	b01b      	add	sp, #108	; 0x6c
    3e94:	bdf0      	pop	{r4, r5, r6, r7, pc}
  advertisingData[0] = 0x02;
    3e96:	2302      	movs	r3, #2
    3e98:	ae0a      	add	r6, sp, #40	; 0x28
    3e9a:	7033      	strb	r3, [r6, #0]
  advertisingData[2] = 0x06;
    3e9c:	2706      	movs	r7, #6
  advertisingData[1] = 0x01;
    3e9e:	2301      	movs	r3, #1
  if (_advertisedServiceUuid) {
    3ea0:	68a1      	ldr	r1, [r4, #8]
  advertisingData[1] = 0x01;
    3ea2:	7073      	strb	r3, [r6, #1]
  advertisingData[2] = 0x06;
    3ea4:	70b7      	strb	r7, [r6, #2]
  if (_advertisedServiceUuid) {
    3ea6:	2900      	cmp	r1, #0
    3ea8:	d06f      	beq.n	3f8a <_ZN8GAPClass9advertiseEv+0x13a>
    BLEUuid uuid(_advertisedServiceUuid);
    3eaa:	a812      	add	r0, sp, #72	; 0x48
    3eac:	f7fe fb8e 	bl	25cc <_ZN7BLEUuidC1EPKc>
    int uuidLen = uuid.length();
    3eb0:	a812      	add	r0, sp, #72	; 0x48
    3eb2:	f7fe fbc9 	bl	2648 <_ZNK7BLEUuid6lengthEv>
    advertisingData[3] = 1 + uuidLen;
    3eb6:	1c43      	adds	r3, r0, #1
    int uuidLen = uuid.length();
    3eb8:	0005      	movs	r5, r0
    advertisingData[3] = 1 + uuidLen;
    3eba:	70f3      	strb	r3, [r6, #3]
    advertisingData[4] = (uuidLen > 2) ? 0x06 : 0x02;
    3ebc:	2802      	cmp	r0, #2
    3ebe:	dc00      	bgt.n	3ec2 <_ZN8GAPClass9advertiseEv+0x72>
    3ec0:	3f04      	subs	r7, #4
    memcpy(&advertisingData[5], uuid.data(), uuidLen);
    3ec2:	a812      	add	r0, sp, #72	; 0x48
    advertisingData[4] = (uuidLen > 2) ? 0x06 : 0x02;
    3ec4:	7137      	strb	r7, [r6, #4]
    memcpy(&advertisingData[5], uuid.data(), uuidLen);
    3ec6:	f7fe fbbd 	bl	2644 <_ZNK7BLEUuid4dataEv>
    3eca:	002a      	movs	r2, r5
    3ecc:	0001      	movs	r1, r0
    memcpy(&advertisingData[5], _manufacturerData, _manufacturerDataLength);
    3ece:	2025      	movs	r0, #37	; 0x25
    3ed0:	ab02      	add	r3, sp, #8
    3ed2:	18c0      	adds	r0, r0, r3
    3ed4:	f005 fa6b 	bl	93ae <memcpy>
    advertisingDataLen += (2 + _manufacturerDataLength);
    3ed8:	3505      	adds	r5, #5
    3eda:	b2ed      	uxtb	r5, r5
  if (_serviceData && _serviceDataLength > 0 && advertisingDataLen >= (_serviceDataLength + 4)) {
    3edc:	6a23      	ldr	r3, [r4, #32]
    3ede:	9306      	str	r3, [sp, #24]
    3ee0:	2b00      	cmp	r3, #0
    3ee2:	d01f      	beq.n	3f24 <_ZN8GAPClass9advertiseEv+0xd4>
    3ee4:	6a67      	ldr	r7, [r4, #36]	; 0x24
    3ee6:	2f00      	cmp	r7, #0
    3ee8:	dd1c      	ble.n	3f24 <_ZN8GAPClass9advertiseEv+0xd4>
    3eea:	1cfb      	adds	r3, r7, #3
    3eec:	42ab      	cmp	r3, r5
    3eee:	da19      	bge.n	3f24 <_ZN8GAPClass9advertiseEv+0xd4>
    advertisingData[advertisingDataLen++] = 0x16;
    3ef0:	2216      	movs	r2, #22
    memcpy(&advertisingData[advertisingDataLen], &_serviceDataUuid, sizeof(_serviceDataUuid));
    3ef2:	0021      	movs	r1, r4
    advertisingData[advertisingDataLen++] = _serviceDataLength + 3;
    3ef4:	b2fb      	uxtb	r3, r7
    3ef6:	9307      	str	r3, [sp, #28]
    3ef8:	3303      	adds	r3, #3
    3efa:	5573      	strb	r3, [r6, r5]
    advertisingData[advertisingDataLen++] = 0x16;
    3efc:	1ca8      	adds	r0, r5, #2
    advertisingData[advertisingDataLen++] = _serviceDataLength + 3;
    3efe:	1c6b      	adds	r3, r5, #1
    advertisingData[advertisingDataLen++] = 0x16;
    3f00:	b2db      	uxtb	r3, r3
    memcpy(&advertisingData[advertisingDataLen], &_serviceDataUuid, sizeof(_serviceDataUuid));
    3f02:	b2c0      	uxtb	r0, r0
    advertisingDataLen += sizeof(_serviceDataUuid);
    3f04:	3504      	adds	r5, #4
    advertisingData[advertisingDataLen++] = 0x16;
    3f06:	54f2      	strb	r2, [r6, r3]
    memcpy(&advertisingData[advertisingDataLen], &_serviceDataUuid, sizeof(_serviceDataUuid));
    3f08:	311c      	adds	r1, #28
    3f0a:	3a14      	subs	r2, #20
    advertisingDataLen += sizeof(_serviceDataUuid);
    3f0c:	b2ed      	uxtb	r5, r5
    memcpy(&advertisingData[advertisingDataLen], &_serviceDataUuid, sizeof(_serviceDataUuid));
    3f0e:	1830      	adds	r0, r6, r0
    3f10:	f005 fa4d 	bl	93ae <memcpy>
    memcpy(&advertisingData[advertisingDataLen],_serviceData, _serviceDataLength);
    3f14:	1970      	adds	r0, r6, r5
    3f16:	003a      	movs	r2, r7
    3f18:	9906      	ldr	r1, [sp, #24]
    3f1a:	f005 fa48 	bl	93ae <memcpy>
    advertisingDataLen += _serviceDataLength;
    3f1e:	9b07      	ldr	r3, [sp, #28]
    3f20:	195d      	adds	r5, r3, r5
    3f22:	b2ed      	uxtb	r5, r5
  if (HCI.leSetAdvertisingData(advertisingDataLen, advertisingData) != 0) {
    3f24:	4f21      	ldr	r7, [pc, #132]	; (3fac <_ZN8GAPClass9advertiseEv+0x15c>)
    3f26:	aa0a      	add	r2, sp, #40	; 0x28
    3f28:	0029      	movs	r1, r5
    3f2a:	0038      	movs	r0, r7
    3f2c:	f000 fc4a 	bl	47c4 <_ZN8HCIClass20leSetAdvertisingDataEhPh>
    3f30:	2800      	cmp	r0, #0
    3f32:	d1ad      	bne.n	3e90 <_ZN8GAPClass9advertiseEv+0x40>
  if (_localName) {
    3f34:	6965      	ldr	r5, [r4, #20]
    3f36:	ae12      	add	r6, sp, #72	; 0x48
  uint8_t scanResponseDataLen = 0;
    3f38:	1e29      	subs	r1, r5, #0
  if (_localName) {
    3f3a:	d015      	beq.n	3f68 <_ZN8GAPClass9advertiseEv+0x118>
    int localNameLen = strlen(_localName);
    3f3c:	0028      	movs	r0, r5
    3f3e:	f005 ffb7 	bl	9eb0 <strlen>
    3f42:	0002      	movs	r2, r0
    if (localNameLen > 29) {
    3f44:	281d      	cmp	r0, #29
    3f46:	dd2d      	ble.n	3fa4 <_ZN8GAPClass9advertiseEv+0x154>
      scanResponseData[1] = 0x08;
    3f48:	2308      	movs	r3, #8
      localNameLen = 29;
    3f4a:	221d      	movs	r2, #29
      scanResponseData[1] = 0x08;
    3f4c:	7073      	strb	r3, [r6, #1]
    memcpy(&scanResponseData[2], _localName, localNameLen);
    3f4e:	2042      	movs	r0, #66	; 0x42
    scanResponseData[0] = 1 + localNameLen;
    3f50:	b2d3      	uxtb	r3, r2
    3f52:	9306      	str	r3, [sp, #24]
    3f54:	3301      	adds	r3, #1
    3f56:	7033      	strb	r3, [r6, #0]
    memcpy(&scanResponseData[2], _localName, localNameLen);
    3f58:	ab02      	add	r3, sp, #8
    3f5a:	0029      	movs	r1, r5
    3f5c:	18c0      	adds	r0, r0, r3
    3f5e:	f005 fa26 	bl	93ae <memcpy>
    scanResponseDataLen += (2 + localNameLen);
    3f62:	9b06      	ldr	r3, [sp, #24]
    3f64:	1c9d      	adds	r5, r3, #2
    3f66:	b2e9      	uxtb	r1, r5
  if (HCI.leSetScanResponseData(scanResponseDataLen, scanResponseData) != 0) {
    3f68:	0032      	movs	r2, r6
    3f6a:	0038      	movs	r0, r7
    3f6c:	f000 fc46 	bl	47fc <_ZN8HCIClass21leSetScanResponseDataEhPh>
    3f70:	2800      	cmp	r0, #0
    3f72:	d000      	beq.n	3f76 <_ZN8GAPClass9advertiseEv+0x126>
    3f74:	e78c      	b.n	3e90 <_ZN8GAPClass9advertiseEv+0x40>
  if (HCI.leSetAdvertiseEnable(0x01) != 0) {
    3f76:	2101      	movs	r1, #1
    3f78:	0038      	movs	r0, r7
    3f7a:	f000 fc5b 	bl	4834 <_ZN8HCIClass20leSetAdvertiseEnableEh>
    3f7e:	2800      	cmp	r0, #0
    3f80:	d000      	beq.n	3f84 <_ZN8GAPClass9advertiseEv+0x134>
    3f82:	e785      	b.n	3e90 <_ZN8GAPClass9advertiseEv+0x40>
  _advertising = false;
    3f84:	7120      	strb	r0, [r4, #4]
  return 1;
    3f86:	3001      	adds	r0, #1
    3f88:	e783      	b.n	3e92 <_ZN8GAPClass9advertiseEv+0x42>
  } else if (_manufacturerData && _manufacturerDataLength) {
    3f8a:	68e1      	ldr	r1, [r4, #12]
  advertisingDataLen += 3;
    3f8c:	2503      	movs	r5, #3
  } else if (_manufacturerData && _manufacturerDataLength) {
    3f8e:	2900      	cmp	r1, #0
    3f90:	d0a4      	beq.n	3edc <_ZN8GAPClass9advertiseEv+0x8c>
    3f92:	6922      	ldr	r2, [r4, #16]
    3f94:	2a00      	cmp	r2, #0
    3f96:	d0a1      	beq.n	3edc <_ZN8GAPClass9advertiseEv+0x8c>
    advertisingData[3] = 1 + _manufacturerDataLength;
    3f98:	b2d5      	uxtb	r5, r2
    3f9a:	1c6b      	adds	r3, r5, #1
    3f9c:	70f3      	strb	r3, [r6, #3]
    advertisingData[4] = 0xff;
    3f9e:	23ff      	movs	r3, #255	; 0xff
    3fa0:	7133      	strb	r3, [r6, #4]
    3fa2:	e794      	b.n	3ece <_ZN8GAPClass9advertiseEv+0x7e>
      scanResponseData[1] = 0x09;
    3fa4:	2309      	movs	r3, #9
    3fa6:	7073      	strb	r3, [r6, #1]
    3fa8:	e7d1      	b.n	3f4e <_ZN8GAPClass9advertiseEv+0xfe>
    3faa:	46c0      	nop			; (mov r8, r8)
    3fac:	20000490 	.word	0x20000490

00003fb0 <_ZN8GAPClass24setAdvertisedServiceDataEtPKhi>:
  _connectable = connectable;
}

void GAPClass::setAdvertisedServiceData(uint16_t uuid, const uint8_t data[], int length)
{
  _serviceDataUuid = uuid;
    3fb0:	8381      	strh	r1, [r0, #28]
  _serviceData = data;
    3fb2:	6202      	str	r2, [r0, #32]
  _serviceDataLength = length;
    3fb4:	6243      	str	r3, [r0, #36]	; 0x24
}
    3fb6:	4770      	bx	lr

00003fb8 <_GLOBAL__sub_I__ZN8GAPClassC2Ev>:

GAPClass GAP;
    3fb8:	b510      	push	{r4, lr}
    3fba:	4c05      	ldr	r4, [pc, #20]	; (3fd0 <_GLOBAL__sub_I__ZN8GAPClassC2Ev+0x18>)
    3fbc:	0020      	movs	r0, r4
    3fbe:	f7ff ff2f 	bl	3e20 <_ZN8GAPClassC1Ev>
    3fc2:	4a04      	ldr	r2, [pc, #16]	; (3fd4 <_GLOBAL__sub_I__ZN8GAPClassC2Ev+0x1c>)
    3fc4:	4904      	ldr	r1, [pc, #16]	; (3fd8 <_GLOBAL__sub_I__ZN8GAPClassC2Ev+0x20>)
    3fc6:	0020      	movs	r0, r4
    3fc8:	f003 fa3c 	bl	7444 <__aeabi_atexit>
    3fcc:	bd10      	pop	{r4, pc}
    3fce:	46c0      	nop			; (mov r8, r8)
    3fd0:	200002fc 	.word	0x200002fc
    3fd4:	20000000 	.word	0x20000000
    3fd8:	00003e11 	.word	0x00003e11

00003fdc <_ZN9GATTClassC1Ev>:

#include "BLEProperty.h"

#include "GATT.h"

GATTClass::GATTClass() :
    3fdc:	b5f0      	push	{r4, r5, r6, r7, lr}
  _genericAccessService("1800"),
  _deviceNameCharacteristic("2a00", BLERead, 20),
  _appearanceCharacteristic("2a01", BLERead, 2),
  _genericAttributeService("1801"),
  _servicesChangedCharacteristic("2a05", BLEIndicate, 4)
    3fde:	0004      	movs	r4, r0
  _last(NULL)
    3fe0:	2700      	movs	r7, #0
GATTClass::GATTClass() :
    3fe2:	0006      	movs	r6, r0
  _servicesChangedCharacteristic("2a05", BLEIndicate, 4)
    3fe4:	4b22      	ldr	r3, [pc, #136]	; (4070 <_ZN9GATTClassC1Ev+0x94>)
    3fe6:	3410      	adds	r4, #16
    3fe8:	3308      	adds	r3, #8
GATTClass::GATTClass() :
    3fea:	b087      	sub	sp, #28
  _servicesChangedCharacteristic("2a05", BLEIndicate, 4)
    3fec:	6003      	str	r3, [r0, #0]
    3fee:	6047      	str	r7, [r0, #4]
    3ff0:	6087      	str	r7, [r0, #8]
    3ff2:	60c7      	str	r7, [r0, #12]
    3ff4:	491f      	ldr	r1, [pc, #124]	; (4074 <_ZN9GATTClassC1Ev+0x98>)
    3ff6:	0020      	movs	r0, r4
    3ff8:	f7fe fe4e 	bl	2c98 <_ZN15BLELocalServiceC1EPKc>
    3ffc:	0033      	movs	r3, r6
    3ffe:	3340      	adds	r3, #64	; 0x40
    4000:	9303      	str	r3, [sp, #12]
    4002:	9700      	str	r7, [sp, #0]
    4004:	2314      	movs	r3, #20
    4006:	2202      	movs	r2, #2
    4008:	491b      	ldr	r1, [pc, #108]	; (4078 <_ZN9GATTClassC1Ev+0x9c>)
    400a:	9803      	ldr	r0, [sp, #12]
    400c:	f7fe fbc0 	bl	2790 <_ZN22BLELocalCharacteristicC1EPKchib>
    4010:	0033      	movs	r3, r6
    4012:	3394      	adds	r3, #148	; 0x94
    4014:	9304      	str	r3, [sp, #16]
    4016:	0035      	movs	r5, r6
    4018:	2302      	movs	r3, #2
    401a:	35e8      	adds	r5, #232	; 0xe8
    401c:	001a      	movs	r2, r3
    401e:	9700      	str	r7, [sp, #0]
    4020:	4916      	ldr	r1, [pc, #88]	; (407c <_ZN9GATTClassC1Ev+0xa0>)
    4022:	9804      	ldr	r0, [sp, #16]
    4024:	f7fe fbb4 	bl	2790 <_ZN22BLELocalCharacteristicC1EPKchib>
    4028:	4915      	ldr	r1, [pc, #84]	; (4080 <_ZN9GATTClassC1Ev+0xa4>)
    402a:	0028      	movs	r0, r5
    402c:	f7fe fe34 	bl	2c98 <_ZN15BLELocalServiceC1EPKc>
    4030:	0033      	movs	r3, r6
    4032:	3319      	adds	r3, #25
    4034:	33ff      	adds	r3, #255	; 0xff
    4036:	9305      	str	r3, [sp, #20]
    4038:	2220      	movs	r2, #32
    403a:	2304      	movs	r3, #4
    403c:	4911      	ldr	r1, [pc, #68]	; (4084 <_ZN9GATTClassC1Ev+0xa8>)
    403e:	9700      	str	r7, [sp, #0]
    4040:	9805      	ldr	r0, [sp, #20]
    4042:	f7fe fba5 	bl	2790 <_ZN22BLELocalCharacteristicC1EPKchib>
{
  _genericAccessService.retain();
    4046:	0020      	movs	r0, r4
    4048:	f7fe f88b 	bl	2162 <_ZN12BLEAttribute6retainEv>
  _genericAttributeService.retain();
    404c:	0028      	movs	r0, r5
    404e:	f7fe f888 	bl	2162 <_ZN12BLEAttribute6retainEv>

  _genericAccessService.addCharacteristic(&_deviceNameCharacteristic);
    4052:	9903      	ldr	r1, [sp, #12]
    4054:	0020      	movs	r0, r4
    4056:	f7fe fe48 	bl	2cea <_ZN15BLELocalService17addCharacteristicEP22BLELocalCharacteristic>
  _genericAccessService.addCharacteristic(&_appearanceCharacteristic);
    405a:	9904      	ldr	r1, [sp, #16]
    405c:	0020      	movs	r0, r4
    405e:	f7fe fe44 	bl	2cea <_ZN15BLELocalService17addCharacteristicEP22BLELocalCharacteristic>

  _genericAttributeService.addCharacteristic(&_servicesChangedCharacteristic);
    4062:	0028      	movs	r0, r5
    4064:	9905      	ldr	r1, [sp, #20]
    4066:	f7fe fe40 	bl	2cea <_ZN15BLELocalService17addCharacteristicEP22BLELocalCharacteristic>
}
    406a:	0030      	movs	r0, r6
    406c:	b007      	add	sp, #28
    406e:	bdf0      	pop	{r4, r5, r6, r7, pc}
    4070:	0000b86c 	.word	0x0000b86c
    4074:	0000b850 	.word	0x0000b850
    4078:	0000b855 	.word	0x0000b855
    407c:	0000b85a 	.word	0x0000b85a
    4080:	0000b85f 	.word	0x0000b85f
    4084:	0000b864 	.word	0x0000b864

00004088 <_ZN9GATTClass13setAppearanceEt>:
{
  _deviceNameCharacteristic.writeValue(deviceName);
}

void GATTClass::setAppearance(uint16_t appearance)
{
    4088:	b507      	push	{r0, r1, r2, lr}
    408a:	466b      	mov	r3, sp
    408c:	80d9      	strh	r1, [r3, #6]
    408e:	3306      	adds	r3, #6
  _appearanceCharacteristic.writeValue((uint8_t*)&appearance, sizeof(appearance));
    4090:	3094      	adds	r0, #148	; 0x94
    4092:	2202      	movs	r2, #2
    4094:	0019      	movs	r1, r3
    4096:	f7fe fae7 	bl	2668 <_ZN22BLELocalCharacteristic10writeValueEPKhi>
}
    409a:	bd07      	pop	{r0, r1, r2, pc}

0000409c <_ZNK9GATTClass14attributeCountEv>:
  }
}

unsigned int GATTClass::attributeCount() const
{
  return _attributes.size();
    409c:	6840      	ldr	r0, [r0, #4]
}
    409e:	4770      	bx	lr

000040a0 <_ZN13BLELinkedListIP12BLEAttributeE5clearEv>:
template <typename T> void BLELinkedList<T>::clear()
    40a0:	b570      	push	{r4, r5, r6, lr}
  for (unsigned int i = 0; i < _size; i++) {
    40a2:	2500      	movs	r5, #0
template <typename T> void BLELinkedList<T>::clear()
    40a4:	0004      	movs	r4, r0
  BLELinkedListNode<T>* itemNode = _root;
    40a6:	6840      	ldr	r0, [r0, #4]
  for (unsigned int i = 0; i < _size; i++) {
    40a8:	6823      	ldr	r3, [r4, #0]
    40aa:	429d      	cmp	r5, r3
    40ac:	d205      	bcs.n	40ba <_ZN13BLELinkedListIP12BLEAttributeE5clearEv+0x1a>
    itemNode = itemNode->next;
    40ae:	6846      	ldr	r6, [r0, #4]
  for (unsigned int i = 0; i < _size; i++) {
    40b0:	3501      	adds	r5, #1
    delete n;
    40b2:	f001 f9f3 	bl	549c <_ZdlPv>
    itemNode = itemNode->next;
    40b6:	0030      	movs	r0, r6
  for (unsigned int i = 0; i < _size; i++) {
    40b8:	e7f6      	b.n	40a8 <_ZN13BLELinkedListIP12BLEAttributeE5clearEv+0x8>
  _size = 0;
    40ba:	2300      	movs	r3, #0
    40bc:	6023      	str	r3, [r4, #0]
  _root = NULL;
    40be:	6063      	str	r3, [r4, #4]
  _last = NULL;
    40c0:	60a3      	str	r3, [r4, #8]
}
    40c2:	bd70      	pop	{r4, r5, r6, pc}

000040c4 <_ZN9GATTClass3endEv>:
{
    40c4:	b510      	push	{r4, lr}
  _attributes.clear();
    40c6:	3004      	adds	r0, #4
    40c8:	f7ff ffea 	bl	40a0 <_ZN13BLELinkedListIP12BLEAttributeE5clearEv>
}
    40cc:	bd10      	pop	{r4, pc}

000040ce <_ZNK13BLELinkedListIP12BLEAttributeE3getEj>:
  if (index >= _size) {
    40ce:	6802      	ldr	r2, [r0, #0]
    return T();
    40d0:	2300      	movs	r3, #0
  if (index >= _size) {
    40d2:	428a      	cmp	r2, r1
    40d4:	d907      	bls.n	40e6 <_ZNK13BLELinkedListIP12BLEAttributeE3getEj+0x18>
  for (unsigned int i = 0; i < index; i++) {
    40d6:	2200      	movs	r2, #0
  BLELinkedListNode<T>* itemNode = _root;
    40d8:	6843      	ldr	r3, [r0, #4]
  for (unsigned int i = 0; i < index; i++) {
    40da:	428a      	cmp	r2, r1
    40dc:	d002      	beq.n	40e4 <_ZNK13BLELinkedListIP12BLEAttributeE3getEj+0x16>
    itemNode = itemNode->next;
    40de:	685b      	ldr	r3, [r3, #4]
  for (unsigned int i = 0; i < index; i++) {
    40e0:	3201      	adds	r2, #1
    40e2:	e7fa      	b.n	40da <_ZNK13BLELinkedListIP12BLEAttributeE3getEj+0xc>
  return itemNode->data;
    40e4:	681b      	ldr	r3, [r3, #0]
}
    40e6:	0018      	movs	r0, r3
    40e8:	4770      	bx	lr

000040ea <_ZNK9GATTClass9attributeEj>:

BLEAttribute* GATTClass::attribute(unsigned int index) const
{
    40ea:	b510      	push	{r4, lr}
  return _attributes.get(index);
    40ec:	3004      	adds	r0, #4
    40ee:	f7ff ffee 	bl	40ce <_ZNK13BLELinkedListIP12BLEAttributeE3getEj>
}
    40f2:	bd10      	pop	{r4, pc}

000040f4 <_ZNK9GATTClass28serviceUuidForCharacteristicEP22BLELocalCharacteristic>:

uint16_t GATTClass::serviceUuidForCharacteristic(BLELocalCharacteristic* characteristic) const
{
    40f4:	b5f7      	push	{r0, r1, r2, r4, r5, r6, r7, lr}
  uint16_t serviceUuid = 0x0000;

  BLELocalService* lastService = NULL;

  for (unsigned int i = 0; i < attributeCount(); i++) {
    40f6:	2500      	movs	r5, #0
{
    40f8:	0007      	movs	r7, r0
  BLELocalService* lastService = NULL;
    40fa:	002c      	movs	r4, r5
{
    40fc:	9101      	str	r1, [sp, #4]
  for (unsigned int i = 0; i < attributeCount(); i++) {
    40fe:	687b      	ldr	r3, [r7, #4]
    4100:	429d      	cmp	r5, r3
    4102:	d20e      	bcs.n	4122 <_ZNK9GATTClass28serviceUuidForCharacteristicEP22BLELocalCharacteristic+0x2e>
  return _attributes.get(index);
    4104:	0029      	movs	r1, r5
    4106:	1d38      	adds	r0, r7, #4
    4108:	f7ff ffe1 	bl	40ce <_ZNK13BLELinkedListIP12BLEAttributeE3getEj>
    BLEAttribute* a = attribute(i);
    uint16_t attributeType = a->type();
    410c:	6803      	ldr	r3, [r0, #0]
  return _attributes.get(index);
    410e:	0006      	movs	r6, r0
    uint16_t attributeType = a->type();
    4110:	689b      	ldr	r3, [r3, #8]
    4112:	4798      	blx	r3

    if (attributeType == BLETypeService) {
    4114:	23a0      	movs	r3, #160	; 0xa0
    4116:	019b      	lsls	r3, r3, #6
    4118:	4298      	cmp	r0, r3
    411a:	d00d      	beq.n	4138 <_ZNK9GATTClass28serviceUuidForCharacteristicEP22BLELocalCharacteristic+0x44>
      lastService = (BLELocalService*)a;
    } else if (a == characteristic) {
    411c:	9b01      	ldr	r3, [sp, #4]
    411e:	42b3      	cmp	r3, r6
    4120:	d10b      	bne.n	413a <_ZNK9GATTClass28serviceUuidForCharacteristicEP22BLELocalCharacteristic+0x46>
  uint16_t serviceUuid = 0x0000;
    4122:	1e20      	subs	r0, r4, #0
      break;
    }
  }

  if (lastService) {
    4124:	d007      	beq.n	4136 <_ZNK9GATTClass28serviceUuidForCharacteristicEP22BLELocalCharacteristic+0x42>
    if (lastService->uuidLength() == 2) {
    4126:	f7fe f817 	bl	2158 <_ZNK12BLEAttribute10uuidLengthEv>
    412a:	2802      	cmp	r0, #2
    412c:	d107      	bne.n	413e <_ZNK9GATTClass28serviceUuidForCharacteristicEP22BLELocalCharacteristic+0x4a>
      serviceUuid = *(uint16_t*)(lastService->uuidData());
    412e:	0020      	movs	r0, r4
    4130:	f7fe f80d 	bl	214e <_ZNK12BLEAttribute8uuidDataEv>
    4134:	8800      	ldrh	r0, [r0, #0]
      serviceUuid = *(uint16_t*)(lastService->uuidData() + 10);
    }
  }

  return serviceUuid;
}
    4136:	bdfe      	pop	{r1, r2, r3, r4, r5, r6, r7, pc}
    4138:	0034      	movs	r4, r6
  for (unsigned int i = 0; i < attributeCount(); i++) {
    413a:	3501      	adds	r5, #1
    413c:	e7df      	b.n	40fe <_ZNK9GATTClass28serviceUuidForCharacteristicEP22BLELocalCharacteristic+0xa>
      serviceUuid = *(uint16_t*)(lastService->uuidData() + 10);
    413e:	0020      	movs	r0, r4
    4140:	f7fe f805 	bl	214e <_ZNK12BLEAttribute8uuidDataEv>
    4144:	8940      	ldrh	r0, [r0, #10]
    4146:	e7f6      	b.n	4136 <_ZNK9GATTClass28serviceUuidForCharacteristicEP22BLELocalCharacteristic+0x42>

00004148 <_ZN9GATTClass15clearAttributesEv>:

  service->setHandles(startHandle, attributeCount());
}

void GATTClass::clearAttributes()
{
    4148:	b570      	push	{r4, r5, r6, lr}
    414a:	0006      	movs	r6, r0
  for (unsigned int i = 0; i < attributeCount(); i++) {
    414c:	2400      	movs	r4, #0
    414e:	6873      	ldr	r3, [r6, #4]
    4150:	1d30      	adds	r0, r6, #4
    4152:	429c      	cmp	r4, r3
    4154:	d20f      	bcs.n	4176 <_ZN9GATTClass15clearAttributesEv+0x2e>
  return _attributes.get(index);
    4156:	0021      	movs	r1, r4
    4158:	f7ff ffb9 	bl	40ce <_ZNK13BLELinkedListIP12BLEAttributeE3getEj>
    415c:	0005      	movs	r5, r0
    BLEAttribute* a = attribute(i);

    if (a->release() <= 0) {
    415e:	f7fe f805 	bl	216c <_ZN12BLEAttribute7releaseEv>
    4162:	2800      	cmp	r0, #0
    4164:	dc05      	bgt.n	4172 <_ZN9GATTClass15clearAttributesEv+0x2a>
      delete a;
    4166:	2d00      	cmp	r5, #0
    4168:	d003      	beq.n	4172 <_ZN9GATTClass15clearAttributesEv+0x2a>
    416a:	682b      	ldr	r3, [r5, #0]
    416c:	0028      	movs	r0, r5
    416e:	685b      	ldr	r3, [r3, #4]
    4170:	4798      	blx	r3
  for (unsigned int i = 0; i < attributeCount(); i++) {
    4172:	3401      	adds	r4, #1
    4174:	e7eb      	b.n	414e <_ZN9GATTClass15clearAttributesEv+0x6>
    }
  }

  _attributes.clear();
    4176:	f7ff ff93 	bl	40a0 <_ZN13BLELinkedListIP12BLEAttributeE5clearEv>
}
    417a:	bd70      	pop	{r4, r5, r6, pc}

0000417c <_ZN13BLELinkedListIP12BLEAttributeE3addES1_>:
template <typename T> void BLELinkedList<T>::add(T item)
    417c:	b570      	push	{r4, r5, r6, lr}
    417e:	0004      	movs	r4, r0
  BLELinkedListNode<T>* itemNode = new BLELinkedListNode<T>();
    4180:	2008      	movs	r0, #8
template <typename T> void BLELinkedList<T>::add(T item)
    4182:	000d      	movs	r5, r1
  BLELinkedListNode<T>* itemNode = new BLELinkedListNode<T>();
    4184:	f001 f986 	bl	5494 <_Znwj>
    4188:	2300      	movs	r3, #0
    418a:	6043      	str	r3, [r0, #4]
  if (_root == NULL) {
    418c:	6863      	ldr	r3, [r4, #4]
  itemNode->data = item;
    418e:	6005      	str	r5, [r0, #0]
  if (_root == NULL) {
    4190:	2b00      	cmp	r3, #0
    4192:	d105      	bne.n	41a0 <_ZN13BLELinkedListIP12BLEAttributeE3addES1_+0x24>
    _root = itemNode;
    4194:	6060      	str	r0, [r4, #4]
  _size++;
    4196:	6823      	ldr	r3, [r4, #0]
  _last = itemNode;
    4198:	60a0      	str	r0, [r4, #8]
  _size++;
    419a:	3301      	adds	r3, #1
    419c:	6023      	str	r3, [r4, #0]
}
    419e:	bd70      	pop	{r4, r5, r6, pc}
    _last->next = itemNode;
    41a0:	68a3      	ldr	r3, [r4, #8]
    41a2:	6058      	str	r0, [r3, #4]
    41a4:	e7f7      	b.n	4196 <_ZN13BLELinkedListIP12BLEAttributeE3addES1_+0x1a>

000041a6 <_ZN9GATTClass10addServiceEP15BLELocalService>:
{
    41a6:	b5f0      	push	{r4, r5, r6, r7, lr}
    41a8:	0006      	movs	r6, r0
    41aa:	000d      	movs	r5, r1
  for (unsigned int i = 0; i < service->characteristicCount(); i++) {
    41ac:	2700      	movs	r7, #0
{
    41ae:	b085      	sub	sp, #20
  service->retain();
    41b0:	0008      	movs	r0, r1
    41b2:	f7fd ffd6 	bl	2162 <_ZN12BLEAttribute6retainEv>
  _attributes.add(service);
    41b6:	1d33      	adds	r3, r6, #4
    41b8:	0018      	movs	r0, r3
    41ba:	0029      	movs	r1, r5
    41bc:	9301      	str	r3, [sp, #4]
    41be:	f7ff ffdd 	bl	417c <_ZN13BLELinkedListIP12BLEAttributeE3addES1_>
  uint16_t startHandle = attributeCount();
    41c2:	88b3      	ldrh	r3, [r6, #4]
    41c4:	9303      	str	r3, [sp, #12]
  for (unsigned int i = 0; i < service->characteristicCount(); i++) {
    41c6:	0028      	movs	r0, r5
    41c8:	f7fe fd7f 	bl	2cca <_ZNK15BLELocalService19characteristicCountEv>
    41cc:	4287      	cmp	r7, r0
    41ce:	d22e      	bcs.n	422e <_ZN9GATTClass10addServiceEP15BLELocalService+0x88>
    BLELocalCharacteristic* characteristic = service->characteristic(i);
    41d0:	0039      	movs	r1, r7
    41d2:	0028      	movs	r0, r5
    41d4:	f7fe fd7b 	bl	2cce <_ZNK15BLELocalService14characteristicEj>
    41d8:	0004      	movs	r4, r0
    characteristic->retain();
    41da:	f7fd ffc2 	bl	2162 <_ZN12BLEAttribute6retainEv>
    _attributes.add(characteristic);
    41de:	0021      	movs	r1, r4
    41e0:	9801      	ldr	r0, [sp, #4]
    41e2:	f7ff ffcb 	bl	417c <_ZN13BLELinkedListIP12BLEAttributeE3addES1_>
    characteristic->setHandle(attributeCount());
    41e6:	88b1      	ldrh	r1, [r6, #4]
    41e8:	0020      	movs	r0, r4
    41ea:	f7fe faa3 	bl	2734 <_ZN22BLELocalCharacteristic9setHandleEt>
    _attributes.add(characteristic);
    41ee:	0021      	movs	r1, r4
    41f0:	9801      	ldr	r0, [sp, #4]
    41f2:	f7ff ffc3 	bl	417c <_ZN13BLELinkedListIP12BLEAttributeE3addES1_>
    for (unsigned int j = 0; j < characteristic->descriptorCount(); j++) {
    41f6:	2300      	movs	r3, #0
    41f8:	0020      	movs	r0, r4
    41fa:	9300      	str	r3, [sp, #0]
    41fc:	f7fe faa2 	bl	2744 <_ZNK22BLELocalCharacteristic15descriptorCountEv>
    4200:	9b00      	ldr	r3, [sp, #0]
    4202:	4283      	cmp	r3, r0
    4204:	d211      	bcs.n	422a <_ZN9GATTClass10addServiceEP15BLELocalService+0x84>
      BLELocalDescriptor* descriptor = characteristic->descriptor(j);
    4206:	0019      	movs	r1, r3
    4208:	0020      	movs	r0, r4
    420a:	f7fe fa9d 	bl	2748 <_ZNK22BLELocalCharacteristic10descriptorEj>
    420e:	9002      	str	r0, [sp, #8]
      descriptor->retain();
    4210:	f7fd ffa7 	bl	2162 <_ZN12BLEAttribute6retainEv>
      _attributes.add(descriptor);
    4214:	9902      	ldr	r1, [sp, #8]
    4216:	9801      	ldr	r0, [sp, #4]
    4218:	f7ff ffb0 	bl	417c <_ZN13BLELinkedListIP12BLEAttributeE3addES1_>
      descriptor->setHandle(attributeCount());
    421c:	88b1      	ldrh	r1, [r6, #4]
    421e:	9802      	ldr	r0, [sp, #8]
    4220:	f7fe fc00 	bl	2a24 <_ZN18BLELocalDescriptor9setHandleEt>
    for (unsigned int j = 0; j < characteristic->descriptorCount(); j++) {
    4224:	9b00      	ldr	r3, [sp, #0]
    4226:	3301      	adds	r3, #1
    4228:	e7e6      	b.n	41f8 <_ZN9GATTClass10addServiceEP15BLELocalService+0x52>
  for (unsigned int i = 0; i < service->characteristicCount(); i++) {
    422a:	3701      	adds	r7, #1
    422c:	e7cb      	b.n	41c6 <_ZN9GATTClass10addServiceEP15BLELocalService+0x20>
  service->setHandles(startHandle, attributeCount());
    422e:	6872      	ldr	r2, [r6, #4]
    4230:	9903      	ldr	r1, [sp, #12]
    4232:	b292      	uxth	r2, r2
    4234:	0028      	movs	r0, r5
    4236:	f7fe fd41 	bl	2cbc <_ZN15BLELocalService10setHandlesEtt>
}
    423a:	b005      	add	sp, #20
    423c:	bdf0      	pop	{r4, r5, r6, r7, pc}
	...

00004240 <_ZN9GATTClass5beginEv>:
{
    4240:	b510      	push	{r4, lr}
    4242:	0004      	movs	r4, r0
  _deviceNameCharacteristic.writeValue(deviceName);
    4244:	490a      	ldr	r1, [pc, #40]	; (4270 <_ZN9GATTClass5beginEv+0x30>)
    4246:	3040      	adds	r0, #64	; 0x40
    4248:	f7fe fa68 	bl	271c <_ZN22BLELocalCharacteristic10writeValueEPKc>
  setAppearance(0x000);
    424c:	2100      	movs	r1, #0
    424e:	0020      	movs	r0, r4
    4250:	f7ff ff1a 	bl	4088 <_ZN9GATTClass13setAppearanceEt>
  clearAttributes();
    4254:	0020      	movs	r0, r4
    4256:	f7ff ff77 	bl	4148 <_ZN9GATTClass15clearAttributesEv>
  addService(&_genericAccessService);
    425a:	0021      	movs	r1, r4
    425c:	0020      	movs	r0, r4
    425e:	3110      	adds	r1, #16
    4260:	f7ff ffa1 	bl	41a6 <_ZN9GATTClass10addServiceEP15BLELocalService>
  addService(&_genericAttributeService);
    4264:	0021      	movs	r1, r4
    4266:	0020      	movs	r0, r4
    4268:	31e8      	adds	r1, #232	; 0xe8
    426a:	f7ff ff9c 	bl	41a6 <_ZN9GATTClass10addServiceEP15BLELocalService>
}
    426e:	bd10      	pop	{r4, pc}
    4270:	0000b848 	.word	0x0000b848

00004274 <_ZN9GATTClass10addServiceER10BLEService>:
{
    4274:	b510      	push	{r4, lr}
    4276:	0004      	movs	r4, r0
  BLELocalService* localService = service.local();
    4278:	0008      	movs	r0, r1
    427a:	f7fe f8ea 	bl	2452 <_ZN10BLEService5localEv>
    427e:	1e01      	subs	r1, r0, #0
  if (localService) {
    4280:	d002      	beq.n	4288 <_ZN9GATTClass10addServiceER10BLEService+0x14>
    addService(localService);
    4282:	0020      	movs	r0, r4
    4284:	f7ff ff8f 	bl	41a6 <_ZN9GATTClass10addServiceEP15BLELocalService>
}
    4288:	bd10      	pop	{r4, pc}
	...

0000428c <_GLOBAL__sub_I__ZN9GATTClassC2Ev>:

GATTClass GATT;
    428c:	b510      	push	{r4, lr}
    428e:	4c05      	ldr	r4, [pc, #20]	; (42a4 <_GLOBAL__sub_I__ZN9GATTClassC2Ev+0x18>)
    4290:	0020      	movs	r0, r4
    4292:	f7ff fea3 	bl	3fdc <_ZN9GATTClassC1Ev>
    4296:	4a04      	ldr	r2, [pc, #16]	; (42a8 <_GLOBAL__sub_I__ZN9GATTClassC2Ev+0x1c>)
    4298:	4904      	ldr	r1, [pc, #16]	; (42ac <_GLOBAL__sub_I__ZN9GATTClassC2Ev+0x20>)
    429a:	0020      	movs	r0, r4
    429c:	f003 f8d2 	bl	7444 <__aeabi_atexit>
    42a0:	bd10      	pop	{r4, pc}
    42a2:	46c0      	nop			; (mov r8, r8)
    42a4:	20000324 	.word	0x20000324
    42a8:	20000000 	.word	0x20000000
    42ac:	000042b1 	.word	0x000042b1

000042b0 <_ZN9GATTClassD1Ev>:
GATTClass::~GATTClass()
    42b0:	b510      	push	{r4, lr}
    42b2:	0004      	movs	r4, r0
    42b4:	4b0f      	ldr	r3, [pc, #60]	; (42f4 <_ZN9GATTClassD1Ev+0x44>)
    42b6:	3308      	adds	r3, #8
    42b8:	6003      	str	r3, [r0, #0]
  clearAttributes();
    42ba:	f7ff ff45 	bl	4148 <_ZN9GATTClass15clearAttributesEv>
GATTClass::~GATTClass()
    42be:	0020      	movs	r0, r4
    42c0:	3019      	adds	r0, #25
    42c2:	30ff      	adds	r0, #255	; 0xff
    42c4:	f7fe fab8 	bl	2838 <_ZN22BLELocalCharacteristicD1Ev>
    42c8:	0020      	movs	r0, r4
    42ca:	30e8      	adds	r0, #232	; 0xe8
    42cc:	f7fe fd42 	bl	2d54 <_ZN15BLELocalServiceD1Ev>
    42d0:	0020      	movs	r0, r4
    42d2:	3094      	adds	r0, #148	; 0x94
    42d4:	f7fe fab0 	bl	2838 <_ZN22BLELocalCharacteristicD1Ev>
    42d8:	0020      	movs	r0, r4
    42da:	3040      	adds	r0, #64	; 0x40
    42dc:	f7fe faac 	bl	2838 <_ZN22BLELocalCharacteristicD1Ev>
    42e0:	0020      	movs	r0, r4
    42e2:	3010      	adds	r0, #16
    42e4:	f7fe fd36 	bl	2d54 <_ZN15BLELocalServiceD1Ev>
    42e8:	1d20      	adds	r0, r4, #4
  clear();
    42ea:	f7ff fed9 	bl	40a0 <_ZN13BLELinkedListIP12BLEAttributeE5clearEv>
}
    42ee:	0020      	movs	r0, r4
    42f0:	bd10      	pop	{r4, pc}
    42f2:	46c0      	nop			; (mov r8, r8)
    42f4:	0000b86c 	.word	0x0000b86c

000042f8 <_ZN9GATTClassD0Ev>:
GATTClass::~GATTClass()
    42f8:	b510      	push	{r4, lr}
    42fa:	0004      	movs	r4, r0
}
    42fc:	f7ff ffd8 	bl	42b0 <_ZN9GATTClassD1Ev>
    4300:	0020      	movs	r0, r4
    4302:	f001 f8cb 	bl	549c <_ZdlPv>
    4306:	0020      	movs	r0, r4
    4308:	bd10      	pop	{r4, pc}

0000430a <_ZN8HCIClassD1Ev>:
{
}

HCIClass::~HCIClass()
{
}
    430a:	4770      	bx	lr

0000430c <_ZN8HCIClassD0Ev>:
HCIClass::~HCIClass()
    430c:	b510      	push	{r4, lr}
    430e:	0004      	movs	r4, r0
}
    4310:	f001 f8c4 	bl	549c <_ZdlPv>
    4314:	0020      	movs	r0, r4
    4316:	bd10      	pop	{r4, pc}

00004318 <_ZN8HCIClass5beginEv>:

int HCIClass::begin()
{
  _recvIndex = 0;
    4318:	2300      	movs	r3, #0
{
    431a:	b510      	push	{r4, lr}
  _recvIndex = 0;
    431c:	6083      	str	r3, [r0, #8]

  return HCITransport.begin();
    431e:	4b03      	ldr	r3, [pc, #12]	; (432c <_ZN8HCIClass5beginEv+0x14>)
    4320:	6818      	ldr	r0, [r3, #0]
    4322:	6803      	ldr	r3, [r0, #0]
    4324:	681b      	ldr	r3, [r3, #0]
    4326:	4798      	blx	r3
}
    4328:	bd10      	pop	{r4, pc}
    432a:	46c0      	nop			; (mov r8, r8)
    432c:	0000b8d8 	.word	0x0000b8d8

00004330 <_ZN8HCIClass3endEv>:

void HCIClass::end()
{
  HCITransport.end();
    4330:	4b03      	ldr	r3, [pc, #12]	; (4340 <_ZN8HCIClass3endEv+0x10>)
{
    4332:	b510      	push	{r4, lr}
  HCITransport.end();
    4334:	6818      	ldr	r0, [r3, #0]
    4336:	6803      	ldr	r3, [r0, #0]
    4338:	685b      	ldr	r3, [r3, #4]
    433a:	4798      	blx	r3
}
    433c:	bd10      	pop	{r4, pc}
    433e:	46c0      	nop			; (mov r8, r8)
    4340:	0000b8d8 	.word	0x0000b8d8

00004344 <_ZN8HCIClass17handleNumCompPktsEtt>:
    sendAclPkt(aclHdr->handle & 0x0fff, 0x0005, sizeof(l2capRejectCid), &l2capRejectCid);
  }
}

void HCIClass::handleNumCompPkts(uint16_t /*handle*/, uint16_t numPkts)
{
    4344:	30ff      	adds	r0, #255	; 0xff
  if (numPkts && _pendingPkt > numPkts) {
    4346:	2a00      	cmp	r2, #0
    4348:	d005      	beq.n	4356 <_ZN8HCIClass17handleNumCompPktsEtt+0x12>
    434a:	7f83      	ldrb	r3, [r0, #30]
    434c:	4293      	cmp	r3, r2
    434e:	dd02      	ble.n	4356 <_ZN8HCIClass17handleNumCompPktsEtt+0x12>
    _pendingPkt -= numPkts;
    4350:	1a9b      	subs	r3, r3, r2
  } else {
    _pendingPkt = 0;
    4352:	7783      	strb	r3, [r0, #30]
  }
}
    4354:	4770      	bx	lr
    _pendingPkt = 0;
    4356:	2300      	movs	r3, #0
    4358:	e7fb      	b.n	4352 <_ZN8HCIClass17handleNumCompPktsEtt+0xe>
	...

0000435c <_ZN8HCIClass7dumpPktEPKchPh>:
    }
  }
}

void HCIClass::dumpPkt(const char* prefix, uint8_t plen, uint8_t pdata[])
{
    435c:	b5f7      	push	{r0, r1, r2, r4, r5, r6, r7, lr}
    435e:	0005      	movs	r5, r0
  if (_debug) {
    4360:	6840      	ldr	r0, [r0, #4]
{
    4362:	0017      	movs	r7, r2
    4364:	9301      	str	r3, [sp, #4]
  if (_debug) {
    4366:	2800      	cmp	r0, #0
    4368:	d01b      	beq.n	43a2 <_ZN8HCIClass7dumpPktEPKchPh+0x46>
    _debug->print(prefix);
    436a:	f001 f8c4 	bl	54f6 <_ZN5Print5printEPKc>

    for (uint8_t i = 0; i < plen; i++) {
    436e:	2400      	movs	r4, #0
    4370:	42bc      	cmp	r4, r7
    4372:	da0f      	bge.n	4394 <_ZN8HCIClass7dumpPktEPKchPh+0x38>
      byte b = pdata[i];
    4374:	9b01      	ldr	r3, [sp, #4]
    4376:	5d1e      	ldrb	r6, [r3, r4]

      if (b < 16) {
    4378:	2e0f      	cmp	r6, #15
    437a:	dc03      	bgt.n	4384 <_ZN8HCIClass7dumpPktEPKchPh+0x28>
        _debug->print("0");
    437c:	4909      	ldr	r1, [pc, #36]	; (43a4 <_ZN8HCIClass7dumpPktEPKchPh+0x48>)
    437e:	6868      	ldr	r0, [r5, #4]
    4380:	f001 f8b9 	bl	54f6 <_ZN5Print5printEPKc>
      }

      _debug->print(b, HEX);
    4384:	2210      	movs	r2, #16
    4386:	0031      	movs	r1, r6
    4388:	6868      	ldr	r0, [r5, #4]
    for (uint8_t i = 0; i < plen; i++) {
    438a:	3401      	adds	r4, #1
      _debug->print(b, HEX);
    438c:	f001 f90b 	bl	55a6 <_ZN5Print5printEhi>
    for (uint8_t i = 0; i < plen; i++) {
    4390:	b2e4      	uxtb	r4, r4
    4392:	e7ed      	b.n	4370 <_ZN8HCIClass7dumpPktEPKchPh+0x14>
    }

    _debug->println();
    4394:	6868      	ldr	r0, [r5, #4]
    4396:	f001 f8b3 	bl	5500 <_ZN5Print7printlnEv>
    _debug->flush();
    439a:	6868      	ldr	r0, [r5, #4]
    439c:	6803      	ldr	r3, [r0, #0]
    439e:	68db      	ldr	r3, [r3, #12]
    43a0:	4798      	blx	r3
  }
}
    43a2:	bdf7      	pop	{r0, r1, r2, r4, r5, r6, r7, pc}
    43a4:	0000b853 	.word	0x0000b853

000043a8 <_ZN8HCIClass10sendAclPktEthhPv>:
{
    43a8:	b5f0      	push	{r4, r5, r6, r7, lr}
    43aa:	0004      	movs	r4, r0
    43ac:	001d      	movs	r5, r3
    43ae:	b085      	sub	sp, #20
    43b0:	af00      	add	r7, sp, #0
    43b2:	60b9      	str	r1, [r7, #8]
    43b4:	607a      	str	r2, [r7, #4]
  while (_pendingPkt >= _maxPkt) {
    43b6:	0023      	movs	r3, r4
    43b8:	33ff      	adds	r3, #255	; 0xff
    43ba:	7f9a      	ldrb	r2, [r3, #30]
    43bc:	7f5b      	ldrb	r3, [r3, #29]
    43be:	429a      	cmp	r2, r3
    43c0:	db03      	blt.n	43ca <_ZN8HCIClass10sendAclPktEthhPv+0x22>
    poll();
    43c2:	0020      	movs	r0, r4
    43c4:	f000 f8f6 	bl	45b4 <_ZN8HCIClass4pollEv>
  while (_pendingPkt >= _maxPkt) {
    43c8:	e7f5      	b.n	43b6 <_ZN8HCIClass10sendAclPktEthhPv+0xe>
  uint8_t txBuffer[sizeof(aclHdr) + plen];
    43ca:	002b      	movs	r3, r5
    43cc:	466a      	mov	r2, sp
    43ce:	3310      	adds	r3, #16
    43d0:	08db      	lsrs	r3, r3, #3
    43d2:	00db      	lsls	r3, r3, #3
    43d4:	1ad3      	subs	r3, r2, r3
    43d6:	469d      	mov	sp, r3
    43d8:	60fb      	str	r3, [r7, #12]
  memcpy(txBuffer, &aclHdr, sizeof(aclHdr));
    43da:	466a      	mov	r2, sp
    43dc:	2302      	movs	r3, #2
    43de:	7013      	strb	r3, [r2, #0]
    43e0:	7a3b      	ldrb	r3, [r7, #8]
    43e2:	3201      	adds	r2, #1
    43e4:	7013      	strb	r3, [r2, #0]
    43e6:	68bb      	ldr	r3, [r7, #8]
  memcpy(&txBuffer[sizeof(aclHdr)], data, plen);
    43e8:	2009      	movs	r0, #9
  memcpy(txBuffer, &aclHdr, sizeof(aclHdr));
    43ea:	0a1b      	lsrs	r3, r3, #8
    43ec:	7053      	strb	r3, [r2, #1]
    43ee:	466a      	mov	r2, sp
  } aclHdr = { HCI_ACLDATA_PKT, handle, uint8_t(plen + 4), plen, cid };
    43f0:	1d2b      	adds	r3, r5, #4
  memcpy(txBuffer, &aclHdr, sizeof(aclHdr));
    43f2:	b2db      	uxtb	r3, r3
    43f4:	70d3      	strb	r3, [r2, #3]
    43f6:	2300      	movs	r3, #0
    43f8:	7113      	strb	r3, [r2, #4]
    43fa:	466b      	mov	r3, sp
    43fc:	b2aa      	uxth	r2, r5
    43fe:	715a      	strb	r2, [r3, #5]
    4400:	2200      	movs	r2, #0
    4402:	719a      	strb	r2, [r3, #6]
    4404:	466b      	mov	r3, sp
    4406:	1dda      	adds	r2, r3, #7
    4408:	88bb      	ldrh	r3, [r7, #4]
  uint8_t txBuffer[sizeof(aclHdr) + plen];
    440a:	002e      	movs	r6, r5
  memcpy(txBuffer, &aclHdr, sizeof(aclHdr));
    440c:	7013      	strb	r3, [r2, #0]
    440e:	2300      	movs	r3, #0
  memcpy(&txBuffer[sizeof(aclHdr)], data, plen);
    4410:	4468      	add	r0, sp
  memcpy(txBuffer, &aclHdr, sizeof(aclHdr));
    4412:	7053      	strb	r3, [r2, #1]
  memcpy(&txBuffer[sizeof(aclHdr)], data, plen);
    4414:	6ab9      	ldr	r1, [r7, #40]	; 0x28
    4416:	002a      	movs	r2, r5
    4418:	f004 ffc9 	bl	93ae <memcpy>
  if (_debug) {
    441c:	6863      	ldr	r3, [r4, #4]
  uint8_t txBuffer[sizeof(aclHdr) + plen];
    441e:	3609      	adds	r6, #9
  if (_debug) {
    4420:	2b00      	cmp	r3, #0
    4422:	d005      	beq.n	4430 <_ZN8HCIClass10sendAclPktEthhPv+0x88>
    dumpPkt("HCI ACLDATA TX -> ", sizeof(aclHdr) + plen, txBuffer);
    4424:	b2f2      	uxtb	r2, r6
    4426:	466b      	mov	r3, sp
    4428:	4909      	ldr	r1, [pc, #36]	; (4450 <_ZN8HCIClass10sendAclPktEthhPv+0xa8>)
    442a:	0020      	movs	r0, r4
    442c:	f7ff ff96 	bl	435c <_ZN8HCIClass7dumpPktEPKchPh>
  _pendingPkt++;
    4430:	34ff      	adds	r4, #255	; 0xff
    4432:	7fa3      	ldrb	r3, [r4, #30]
  HCITransport.write(txBuffer, sizeof(aclHdr) + plen);
    4434:	0032      	movs	r2, r6
  _pendingPkt++;
    4436:	3301      	adds	r3, #1
    4438:	77a3      	strb	r3, [r4, #30]
  HCITransport.write(txBuffer, sizeof(aclHdr) + plen);
    443a:	4b06      	ldr	r3, [pc, #24]	; (4454 <_ZN8HCIClass10sendAclPktEthhPv+0xac>)
    443c:	68f9      	ldr	r1, [r7, #12]
    443e:	6818      	ldr	r0, [r3, #0]
    4440:	6803      	ldr	r3, [r0, #0]
    4442:	699b      	ldr	r3, [r3, #24]
    4444:	4798      	blx	r3
}
    4446:	2000      	movs	r0, #0
    4448:	46bd      	mov	sp, r7
    444a:	b005      	add	sp, #20
    444c:	bdf0      	pop	{r4, r5, r6, r7, pc}
    444e:	46c0      	nop			; (mov r8, r8)
    4450:	0000b87c 	.word	0x0000b87c
    4454:	0000b8d8 	.word	0x0000b8d8

00004458 <_ZN8HCIClass16handleAclDataPktEhPh>:
{
    4458:	b5f0      	push	{r4, r5, r6, r7, lr}
  if (aclHdr->cid == ATT_CID) {
    445a:	79d7      	ldrb	r7, [r2, #7]
    445c:	7993      	ldrb	r3, [r2, #6]
    445e:	023f      	lsls	r7, r7, #8
{
    4460:	b087      	sub	sp, #28
    4462:	0005      	movs	r5, r0
    4464:	0014      	movs	r4, r2
  if (aclHdr->cid == ATT_CID) {
    4466:	431f      	orrs	r7, r3
    4468:	2f04      	cmp	r7, #4
    446a:	d10d      	bne.n	4488 <_ZN8HCIClass16handleAclDataPktEhPh+0x30>
    ATT.handleData(aclHdr->handle & 0x0fff, aclHdr->len, &_recvBuffer[1 + sizeof(HCIACLHdr)]);
    446c:	0003      	movs	r3, r0
    446e:	7861      	ldrb	r1, [r4, #1]
    4470:	7820      	ldrb	r0, [r4, #0]
    4472:	0209      	lsls	r1, r1, #8
    4474:	4301      	orrs	r1, r0
    4476:	0509      	lsls	r1, r1, #20
    4478:	3315      	adds	r3, #21
    447a:	7912      	ldrb	r2, [r2, #4]
    447c:	0d09      	lsrs	r1, r1, #20
    447e:	4817      	ldr	r0, [pc, #92]	; (44dc <_ZN8HCIClass16handleAclDataPktEhPh+0x84>)
    4480:	f7ff fc60 	bl	3d44 <_ZN8ATTClass10handleDataEthPh>
}
    4484:	b007      	add	sp, #28
    4486:	bdf0      	pop	{r4, r5, r6, r7, pc}
  } else if (aclHdr->cid == SIGNALING_CID) {
    4488:	2f05      	cmp	r7, #5
    448a:	d10c      	bne.n	44a6 <_ZN8HCIClass16handleAclDataPktEhPh+0x4e>
    L2CAPSignaling.handleData(aclHdr->handle & 0x0fff, aclHdr->len, &_recvBuffer[1 + sizeof(HCIACLHdr)]);
    448c:	0003      	movs	r3, r0
    448e:	7861      	ldrb	r1, [r4, #1]
    4490:	7820      	ldrb	r0, [r4, #0]
    4492:	0209      	lsls	r1, r1, #8
    4494:	4301      	orrs	r1, r0
    4496:	0509      	lsls	r1, r1, #20
    4498:	3315      	adds	r3, #21
    449a:	7912      	ldrb	r2, [r2, #4]
    449c:	0d09      	lsrs	r1, r1, #20
    449e:	4810      	ldr	r0, [pc, #64]	; (44e0 <_ZN8HCIClass16handleAclDataPktEhPh+0x88>)
    44a0:	f000 fb82 	bl	4ba8 <_ZN19L2CAPSignalingClass10handleDataEthPh>
    44a4:	e7ee      	b.n	4484 <_ZN8HCIClass16handleAclDataPktEhPh+0x2c>
    } l2capRejectCid= { 0x01, 0x00, 0x006, 0x0002, aclHdr->cid, 0x0000 };
    44a6:	ae03      	add	r6, sp, #12
    44a8:	220a      	movs	r2, #10
    44aa:	2100      	movs	r1, #0
    44ac:	0030      	movs	r0, r6
    44ae:	f004 ff99 	bl	93e4 <memset>
    44b2:	2301      	movs	r3, #1
    44b4:	7033      	strb	r3, [r6, #0]
    44b6:	3305      	adds	r3, #5
    44b8:	8073      	strh	r3, [r6, #2]
    sendAclPkt(aclHdr->handle & 0x0fff, 0x0005, sizeof(l2capRejectCid), &l2capRejectCid);
    44ba:	7861      	ldrb	r1, [r4, #1]
    } l2capRejectCid= { 0x01, 0x00, 0x006, 0x0002, aclHdr->cid, 0x0000 };
    44bc:	3b04      	subs	r3, #4
    44be:	80b3      	strh	r3, [r6, #4]
    sendAclPkt(aclHdr->handle & 0x0fff, 0x0005, sizeof(l2capRejectCid), &l2capRejectCid);
    44c0:	7823      	ldrb	r3, [r4, #0]
    44c2:	0209      	lsls	r1, r1, #8
    44c4:	4319      	orrs	r1, r3
    44c6:	0509      	lsls	r1, r1, #20
    } l2capRejectCid= { 0x01, 0x00, 0x006, 0x0002, aclHdr->cid, 0x0000 };
    44c8:	80f7      	strh	r7, [r6, #6]
    sendAclPkt(aclHdr->handle & 0x0fff, 0x0005, sizeof(l2capRejectCid), &l2capRejectCid);
    44ca:	0d09      	lsrs	r1, r1, #20
    44cc:	9600      	str	r6, [sp, #0]
    44ce:	230a      	movs	r3, #10
    44d0:	2205      	movs	r2, #5
    44d2:	0028      	movs	r0, r5
    44d4:	f7ff ff68 	bl	43a8 <_ZN8HCIClass10sendAclPktEthhPv>
}
    44d8:	e7d4      	b.n	4484 <_ZN8HCIClass16handleAclDataPktEhPh+0x2c>
    44da:	46c0      	nop			; (mov r8, r8)
    44dc:	200002d8 	.word	0x200002d8
    44e0:	200005bc 	.word	0x200005bc

000044e4 <_ZN8HCIClass4pollEm>:
{
    44e4:	b570      	push	{r4, r5, r6, lr}
    44e6:	0004      	movs	r4, r0
    44e8:	4d2f      	ldr	r5, [pc, #188]	; (45a8 <_ZN8HCIClass4pollEm+0xc4>)
  if (timeout) {
    44ea:	2900      	cmp	r1, #0
    44ec:	d003      	beq.n	44f6 <_ZN8HCIClass4pollEm+0x12>
    HCITransport.wait(timeout);
    44ee:	6828      	ldr	r0, [r5, #0]
    44f0:	6803      	ldr	r3, [r0, #0]
    44f2:	689b      	ldr	r3, [r3, #8]
    44f4:	4798      	blx	r3
  while (HCITransport.available()) {
    44f6:	682e      	ldr	r6, [r5, #0]
    44f8:	6833      	ldr	r3, [r6, #0]
    44fa:	0030      	movs	r0, r6
    44fc:	68db      	ldr	r3, [r3, #12]
    44fe:	4798      	blx	r3
    4500:	2800      	cmp	r0, #0
    4502:	d050      	beq.n	45a6 <_ZN8HCIClass4pollEm+0xc2>
    byte b = HCITransport.read();
    4504:	6833      	ldr	r3, [r6, #0]
    4506:	0030      	movs	r0, r6
    4508:	695b      	ldr	r3, [r3, #20]
    450a:	4798      	blx	r3
    _recvBuffer[_recvIndex++] = b;
    450c:	68a3      	ldr	r3, [r4, #8]
    byte b = HCITransport.read();
    450e:	b2c1      	uxtb	r1, r0
    _recvBuffer[_recvIndex++] = b;
    4510:	1c5a      	adds	r2, r3, #1
    4512:	18e3      	adds	r3, r4, r3
    4514:	60a2      	str	r2, [r4, #8]
    4516:	7319      	strb	r1, [r3, #12]
    if (_recvBuffer[0] == HCI_ACLDATA_PKT) {
    4518:	7b23      	ldrb	r3, [r4, #12]
    451a:	2b02      	cmp	r3, #2
    451c:	d11d      	bne.n	455a <_ZN8HCIClass4pollEm+0x76>
      if (_recvIndex > 5 && _recvIndex >= (5 + (_recvBuffer[3] + (_recvBuffer[4] << 8)))) {
    451e:	2a05      	cmp	r2, #5
    4520:	dde9      	ble.n	44f6 <_ZN8HCIClass4pollEm+0x12>
    4522:	7c23      	ldrb	r3, [r4, #16]
    4524:	7be1      	ldrb	r1, [r4, #15]
    4526:	021b      	lsls	r3, r3, #8
    4528:	185b      	adds	r3, r3, r1
    452a:	3304      	adds	r3, #4
    452c:	429a      	cmp	r2, r3
    452e:	dde2      	ble.n	44f6 <_ZN8HCIClass4pollEm+0x12>
        if (_debug) {
    4530:	6863      	ldr	r3, [r4, #4]
    4532:	2b00      	cmp	r3, #0
    4534:	d006      	beq.n	4544 <_ZN8HCIClass4pollEm+0x60>
          dumpPkt("HCI ACLDATA RX <- ", _recvIndex, _recvBuffer);
    4536:	0023      	movs	r3, r4
    4538:	b2d2      	uxtb	r2, r2
    453a:	330c      	adds	r3, #12
    453c:	491b      	ldr	r1, [pc, #108]	; (45ac <_ZN8HCIClass4pollEm+0xc8>)
    453e:	0020      	movs	r0, r4
    4540:	f7ff ff0c 	bl	435c <_ZN8HCIClass7dumpPktEPKchPh>
        int pktLen = _recvIndex - 1;
    4544:	68a3      	ldr	r3, [r4, #8]
        handleAclDataPkt(pktLen, &_recvBuffer[1]);
    4546:	0022      	movs	r2, r4
        int pktLen = _recvIndex - 1;
    4548:	1e59      	subs	r1, r3, #1
        _recvIndex = 0;
    454a:	2300      	movs	r3, #0
        handleAclDataPkt(pktLen, &_recvBuffer[1]);
    454c:	b2c9      	uxtb	r1, r1
        _recvIndex = 0;
    454e:	60a3      	str	r3, [r4, #8]
        handleAclDataPkt(pktLen, &_recvBuffer[1]);
    4550:	320d      	adds	r2, #13
    4552:	0020      	movs	r0, r4
    4554:	f7ff ff80 	bl	4458 <_ZN8HCIClass16handleAclDataPktEhPh>
    4558:	e7cd      	b.n	44f6 <_ZN8HCIClass4pollEm+0x12>
    } else if (_recvBuffer[0] == HCI_EVENT_PKT) {
    455a:	2b04      	cmp	r3, #4
    455c:	d11a      	bne.n	4594 <_ZN8HCIClass4pollEm+0xb0>
      if (_recvIndex > 3 && _recvIndex >= (3 + _recvBuffer[2])) {
    455e:	2a03      	cmp	r2, #3
    4560:	ddc9      	ble.n	44f6 <_ZN8HCIClass4pollEm+0x12>
    4562:	7ba3      	ldrb	r3, [r4, #14]
    4564:	3302      	adds	r3, #2
    4566:	429a      	cmp	r2, r3
    4568:	ddc5      	ble.n	44f6 <_ZN8HCIClass4pollEm+0x12>
        if (_debug) {
    456a:	6863      	ldr	r3, [r4, #4]
    456c:	2b00      	cmp	r3, #0
    456e:	d006      	beq.n	457e <_ZN8HCIClass4pollEm+0x9a>
          dumpPkt("HCI EVENT RX <- ", _recvIndex, _recvBuffer);
    4570:	0023      	movs	r3, r4
    4572:	b2d2      	uxtb	r2, r2
    4574:	330c      	adds	r3, #12
    4576:	490e      	ldr	r1, [pc, #56]	; (45b0 <_ZN8HCIClass4pollEm+0xcc>)
    4578:	0020      	movs	r0, r4
    457a:	f7ff feef 	bl	435c <_ZN8HCIClass7dumpPktEPKchPh>
        int pktLen = _recvIndex - 1;
    457e:	68a3      	ldr	r3, [r4, #8]
        handleEventPkt(pktLen, &_recvBuffer[1]);
    4580:	0022      	movs	r2, r4
        int pktLen = _recvIndex - 1;
    4582:	1e59      	subs	r1, r3, #1
        _recvIndex = 0;
    4584:	2300      	movs	r3, #0
        handleEventPkt(pktLen, &_recvBuffer[1]);
    4586:	b2c9      	uxtb	r1, r1
        _recvIndex = 0;
    4588:	60a3      	str	r3, [r4, #8]
        handleEventPkt(pktLen, &_recvBuffer[1]);
    458a:	320d      	adds	r2, #13
    458c:	0020      	movs	r0, r4
    458e:	f000 f95d 	bl	484c <_ZN8HCIClass14handleEventPktEhPh>
    4592:	e7b0      	b.n	44f6 <_ZN8HCIClass4pollEm+0x12>
      _recvIndex = 0;
    4594:	2300      	movs	r3, #0
      if (_debug) {
    4596:	6860      	ldr	r0, [r4, #4]
      _recvIndex = 0;
    4598:	60a3      	str	r3, [r4, #8]
      if (_debug) {
    459a:	4298      	cmp	r0, r3
    459c:	d0ab      	beq.n	44f6 <_ZN8HCIClass4pollEm+0x12>
        _debug->println(b, HEX);
    459e:	2210      	movs	r2, #16
    45a0:	f001 f805 	bl	55ae <_ZN5Print7printlnEhi>
    45a4:	e7a7      	b.n	44f6 <_ZN8HCIClass4pollEm+0x12>
}
    45a6:	bd70      	pop	{r4, r5, r6, pc}
    45a8:	0000b8d8 	.word	0x0000b8d8
    45ac:	0000b8a2 	.word	0x0000b8a2
    45b0:	0000b8b5 	.word	0x0000b8b5

000045b4 <_ZN8HCIClass4pollEv>:
{
    45b4:	b510      	push	{r4, lr}
  poll(0);
    45b6:	2100      	movs	r1, #0
    45b8:	f7ff ff94 	bl	44e4 <_ZN8HCIClass4pollEm>
}
    45bc:	bd10      	pop	{r4, pc}
	...

000045c0 <_ZN8HCIClass11sendCommandEthPv>:
{
    45c0:	b5f7      	push	{r0, r1, r2, r4, r5, r6, r7, lr}
    45c2:	0004      	movs	r4, r0
  uint8_t txBuffer[sizeof(pktHdr) + plen];
    45c4:	0010      	movs	r0, r2
{
    45c6:	000d      	movs	r5, r1
  uint8_t txBuffer[sizeof(pktHdr) + plen];
    45c8:	4669      	mov	r1, sp
    45ca:	300b      	adds	r0, #11
    45cc:	08c0      	lsrs	r0, r0, #3
    45ce:	00c0      	lsls	r0, r0, #3
    45d0:	1a09      	subs	r1, r1, r0
{
    45d2:	af00      	add	r7, sp, #0
  uint8_t txBuffer[sizeof(pktHdr) + plen];
    45d4:	468d      	mov	sp, r1
    45d6:	6079      	str	r1, [r7, #4]
  memcpy(txBuffer, &pktHdr, sizeof(pktHdr));
    45d8:	4668      	mov	r0, sp
    45da:	2101      	movs	r1, #1
    45dc:	7001      	strb	r1, [r0, #0]
    45de:	4669      	mov	r1, sp
    45e0:	7045      	strb	r5, [r0, #1]
    45e2:	0a28      	lsrs	r0, r5, #8
    45e4:	7088      	strb	r0, [r1, #2]
    45e6:	4669      	mov	r1, sp
  memcpy(&txBuffer[sizeof(pktHdr)], parameters, plen);
    45e8:	a801      	add	r0, sp, #4
  memcpy(txBuffer, &pktHdr, sizeof(pktHdr));
    45ea:	70ca      	strb	r2, [r1, #3]
  memcpy(&txBuffer[sizeof(pktHdr)], parameters, plen);
    45ec:	0019      	movs	r1, r3
  uint8_t txBuffer[sizeof(pktHdr) + plen];
    45ee:	1d16      	adds	r6, r2, #4
  memcpy(&txBuffer[sizeof(pktHdr)], parameters, plen);
    45f0:	f004 fedd 	bl	93ae <memcpy>
  if (_debug) {
    45f4:	6863      	ldr	r3, [r4, #4]
    45f6:	2b00      	cmp	r3, #0
    45f8:	d005      	beq.n	4606 <_ZN8HCIClass11sendCommandEthPv+0x46>
    dumpPkt("HCI COMMAND TX -> ", sizeof(pktHdr) + plen, txBuffer);
    45fa:	b2f2      	uxtb	r2, r6
    45fc:	466b      	mov	r3, sp
    45fe:	4915      	ldr	r1, [pc, #84]	; (4654 <_ZN8HCIClass11sendCommandEthPv+0x94>)
    4600:	0020      	movs	r0, r4
    4602:	f7ff feab 	bl	435c <_ZN8HCIClass7dumpPktEPKchPh>
  HCITransport.write(txBuffer, sizeof(pktHdr) + plen);
    4606:	4b14      	ldr	r3, [pc, #80]	; (4658 <_ZN8HCIClass11sendCommandEthPv+0x98>)
    4608:	0032      	movs	r2, r6
    460a:	6818      	ldr	r0, [r3, #0]
    460c:	6879      	ldr	r1, [r7, #4]
    460e:	6803      	ldr	r3, [r0, #0]
  _cmdCompleteStatus = -1;
    4610:	0026      	movs	r6, r4
  HCITransport.write(txBuffer, sizeof(pktHdr) + plen);
    4612:	699b      	ldr	r3, [r3, #24]
    4614:	4798      	blx	r3
  _cmdCompleteOpcode = 0xffff;
    4616:	0023      	movs	r3, r4
    4618:	33fe      	adds	r3, #254	; 0xfe
    461a:	607b      	str	r3, [r7, #4]
    461c:	2301      	movs	r3, #1
    461e:	687a      	ldr	r2, [r7, #4]
    4620:	425b      	negs	r3, r3
  _cmdCompleteStatus = -1;
    4622:	36fc      	adds	r6, #252	; 0xfc
  _cmdCompleteOpcode = 0xffff;
    4624:	8213      	strh	r3, [r2, #16]
  _cmdCompleteStatus = -1;
    4626:	6173      	str	r3, [r6, #20]
  for (unsigned long start = millis(); _cmdCompleteOpcode != opcode && millis() < (start + 1000);) {
    4628:	f000 feb8 	bl	539c <millis>
    462c:	6038      	str	r0, [r7, #0]
    462e:	687b      	ldr	r3, [r7, #4]
    4630:	8a1b      	ldrh	r3, [r3, #16]
    4632:	42ab      	cmp	r3, r5
    4634:	d00b      	beq.n	464e <_ZN8HCIClass11sendCommandEthPv+0x8e>
    4636:	f000 feb1 	bl	539c <millis>
    463a:	22fa      	movs	r2, #250	; 0xfa
    463c:	683b      	ldr	r3, [r7, #0]
    463e:	0092      	lsls	r2, r2, #2
    4640:	189b      	adds	r3, r3, r2
    4642:	4298      	cmp	r0, r3
    4644:	d203      	bcs.n	464e <_ZN8HCIClass11sendCommandEthPv+0x8e>
    poll();
    4646:	0020      	movs	r0, r4
    4648:	f7ff ffb4 	bl	45b4 <_ZN8HCIClass4pollEv>
  for (unsigned long start = millis(); _cmdCompleteOpcode != opcode && millis() < (start + 1000);) {
    464c:	e7ef      	b.n	462e <_ZN8HCIClass11sendCommandEthPv+0x6e>
}
    464e:	46bd      	mov	sp, r7
  return _cmdCompleteStatus;
    4650:	6970      	ldr	r0, [r6, #20]
}
    4652:	bdfe      	pop	{r1, r2, r3, r4, r5, r6, r7, pc}
    4654:	0000b88f 	.word	0x0000b88f
    4658:	0000b8d8 	.word	0x0000b8d8

0000465c <_ZN8HCIClass5resetEv>:
  return sendCommand(OGF_HOST_CTL << 10 | OCF_RESET);
    465c:	2300      	movs	r3, #0
{
    465e:	b510      	push	{r4, lr}
  return sendCommand(OGF_HOST_CTL << 10 | OCF_RESET);
    4660:	001a      	movs	r2, r3
    4662:	4902      	ldr	r1, [pc, #8]	; (466c <_ZN8HCIClass5resetEv+0x10>)
    4664:	f7ff ffac 	bl	45c0 <_ZN8HCIClass11sendCommandEthPv>
}
    4668:	bd10      	pop	{r4, pc}
    466a:	46c0      	nop			; (mov r8, r8)
    466c:	00000c03 	.word	0x00000c03

00004670 <_ZN8HCIClass16readLocalVersionERhRtS0_S1_S1_>:
{
    4670:	b5f8      	push	{r3, r4, r5, r6, r7, lr}
    4672:	001c      	movs	r4, r3
  int result = sendCommand(OGF_INFO_PARAM << 10 | OCF_READ_LOCAL_VERSION);
    4674:	2300      	movs	r3, #0
{
    4676:	000e      	movs	r6, r1
    4678:	0015      	movs	r5, r2
  int result = sendCommand(OGF_INFO_PARAM << 10 | OCF_READ_LOCAL_VERSION);
    467a:	490f      	ldr	r1, [pc, #60]	; (46b8 <_ZN8HCIClass16readLocalVersionERhRtS0_S1_S1_+0x48>)
    467c:	001a      	movs	r2, r3
{
    467e:	0007      	movs	r7, r0
  int result = sendCommand(OGF_INFO_PARAM << 10 | OCF_READ_LOCAL_VERSION);
    4680:	f7ff ff9e 	bl	45c0 <_ZN8HCIClass11sendCommandEthPv>
  if (result == 0) {
    4684:	2800      	cmp	r0, #0
    4686:	d116      	bne.n	46b6 <_ZN8HCIClass16readLocalVersionERhRtS0_S1_S1_+0x46>
    } *localVersion = (HCILocalVersion*)_cmdResponse;
    4688:	37fc      	adds	r7, #252	; 0xfc
    468a:	69fb      	ldr	r3, [r7, #28]
    hciVer = localVersion->hciVer;
    468c:	781a      	ldrb	r2, [r3, #0]
    468e:	7032      	strb	r2, [r6, #0]
    hciRev = localVersion->hciRev;
    4690:	789a      	ldrb	r2, [r3, #2]
    4692:	7859      	ldrb	r1, [r3, #1]
    4694:	0212      	lsls	r2, r2, #8
    4696:	430a      	orrs	r2, r1
    4698:	802a      	strh	r2, [r5, #0]
    lmpVer = localVersion->lmpVer;
    469a:	78da      	ldrb	r2, [r3, #3]
    469c:	7022      	strb	r2, [r4, #0]
    manufacturer = localVersion->manufacturer;
    469e:	795a      	ldrb	r2, [r3, #5]
    46a0:	7919      	ldrb	r1, [r3, #4]
    46a2:	0212      	lsls	r2, r2, #8
    46a4:	430a      	orrs	r2, r1
    46a6:	9906      	ldr	r1, [sp, #24]
    46a8:	800a      	strh	r2, [r1, #0]
    lmpSubVer = localVersion->lmpSubVer;
    46aa:	799a      	ldrb	r2, [r3, #6]
    46ac:	79db      	ldrb	r3, [r3, #7]
    46ae:	021b      	lsls	r3, r3, #8
    46b0:	4313      	orrs	r3, r2
    46b2:	9a07      	ldr	r2, [sp, #28]
    46b4:	8013      	strh	r3, [r2, #0]
}
    46b6:	bdf8      	pop	{r3, r4, r5, r6, r7, pc}
    46b8:	00001001 	.word	0x00001001

000046bc <_ZN8HCIClass10readBdAddrEPh>:
  int result = sendCommand(OGF_INFO_PARAM << 10 | OCF_READ_BD_ADDR);
    46bc:	2300      	movs	r3, #0
{
    46be:	b570      	push	{r4, r5, r6, lr}
  int result = sendCommand(OGF_INFO_PARAM << 10 | OCF_READ_BD_ADDR);
    46c0:	001a      	movs	r2, r3
{
    46c2:	000e      	movs	r6, r1
  int result = sendCommand(OGF_INFO_PARAM << 10 | OCF_READ_BD_ADDR);
    46c4:	4906      	ldr	r1, [pc, #24]	; (46e0 <_ZN8HCIClass10readBdAddrEPh+0x24>)
{
    46c6:	0004      	movs	r4, r0
  int result = sendCommand(OGF_INFO_PARAM << 10 | OCF_READ_BD_ADDR);
    46c8:	f7ff ff7a 	bl	45c0 <_ZN8HCIClass11sendCommandEthPv>
    46cc:	1e05      	subs	r5, r0, #0
  if (result == 0) {
    46ce:	d105      	bne.n	46dc <_ZN8HCIClass10readBdAddrEPh+0x20>
    memcpy(addr, _cmdResponse, 6);
    46d0:	34fc      	adds	r4, #252	; 0xfc
    46d2:	69e1      	ldr	r1, [r4, #28]
    46d4:	2206      	movs	r2, #6
    46d6:	0030      	movs	r0, r6
    46d8:	f004 fe69 	bl	93ae <memcpy>
}
    46dc:	0028      	movs	r0, r5
    46de:	bd70      	pop	{r4, r5, r6, pc}
    46e0:	00001009 	.word	0x00001009

000046e4 <_ZN8HCIClass8readRssiEt>:
{
    46e4:	b537      	push	{r0, r1, r2, r4, r5, lr}
    46e6:	466b      	mov	r3, sp
    46e8:	1d9d      	adds	r5, r3, #6
    46ea:	80d9      	strh	r1, [r3, #6]
  int result = sendCommand(OGF_STATUS_PARAM << 10 | OCF_READ_RSSI, sizeof(handle), &handle);
    46ec:	2202      	movs	r2, #2
    46ee:	490a      	ldr	r1, [pc, #40]	; (4718 <_ZN8HCIClass8readRssiEt+0x34>)
    46f0:	002b      	movs	r3, r5
{
    46f2:	0004      	movs	r4, r0
  int result = sendCommand(OGF_STATUS_PARAM << 10 | OCF_READ_RSSI, sizeof(handle), &handle);
    46f4:	f7ff ff64 	bl	45c0 <_ZN8HCIClass11sendCommandEthPv>
  int rssi = 127;
    46f8:	217f      	movs	r1, #127	; 0x7f
  if (result == 0) {
    46fa:	2800      	cmp	r0, #0
    46fc:	d10a      	bne.n	4714 <_ZN8HCIClass8readRssiEt+0x30>
    } *readRssi = (HCIReadRssi*)_cmdResponse;
    46fe:	34fc      	adds	r4, #252	; 0xfc
    4700:	69e2      	ldr	r2, [r4, #28]
    if (readRssi->handle == handle) {
    4702:	8828      	ldrh	r0, [r5, #0]
    4704:	7853      	ldrb	r3, [r2, #1]
    4706:	7814      	ldrb	r4, [r2, #0]
    4708:	021b      	lsls	r3, r3, #8
    470a:	4323      	orrs	r3, r4
    470c:	4298      	cmp	r0, r3
    470e:	d101      	bne.n	4714 <_ZN8HCIClass8readRssiEt+0x30>
      rssi = readRssi->rssi;
    4710:	2102      	movs	r1, #2
    4712:	5651      	ldrsb	r1, [r2, r1]
}
    4714:	0008      	movs	r0, r1
    4716:	bd3e      	pop	{r1, r2, r3, r4, r5, pc}
    4718:	00001405 	.word	0x00001405

0000471c <_ZN8HCIClass12setEventMaskEy>:
{
    471c:	b507      	push	{r0, r1, r2, lr}
  return sendCommand(OGF_HOST_CTL << 10 | OCF_SET_EVENT_MASK, sizeof(eventMask), &eventMask);
    471e:	4904      	ldr	r1, [pc, #16]	; (4730 <_ZN8HCIClass12setEventMaskEy+0x14>)
{
    4720:	9200      	str	r2, [sp, #0]
    4722:	9301      	str	r3, [sp, #4]
  return sendCommand(OGF_HOST_CTL << 10 | OCF_SET_EVENT_MASK, sizeof(eventMask), &eventMask);
    4724:	466b      	mov	r3, sp
    4726:	2208      	movs	r2, #8
    4728:	f7ff ff4a 	bl	45c0 <_ZN8HCIClass11sendCommandEthPv>
}
    472c:	bd0e      	pop	{r1, r2, r3, pc}
    472e:	46c0      	nop			; (mov r8, r8)
    4730:	00000c01 	.word	0x00000c01

00004734 <_ZN8HCIClass16readLeBufferSizeERtRh>:
{
    4734:	b5f8      	push	{r3, r4, r5, r6, r7, lr}
  int result = sendCommand(OGF_LE_CTL << 10 | OCF_LE_READ_BUFFER_SIZE);
    4736:	2300      	movs	r3, #0
{
    4738:	000e      	movs	r6, r1
    473a:	0017      	movs	r7, r2
  int result = sendCommand(OGF_LE_CTL << 10 | OCF_LE_READ_BUFFER_SIZE);
    473c:	490d      	ldr	r1, [pc, #52]	; (4774 <_ZN8HCIClass16readLeBufferSizeERtRh+0x40>)
    473e:	001a      	movs	r2, r3
{
    4740:	0005      	movs	r5, r0
  int result = sendCommand(OGF_LE_CTL << 10 | OCF_LE_READ_BUFFER_SIZE);
    4742:	f7ff ff3d 	bl	45c0 <_ZN8HCIClass11sendCommandEthPv>
    4746:	1e04      	subs	r4, r0, #0
  if (result == 0) {
    4748:	d111      	bne.n	476e <_ZN8HCIClass16readLeBufferSizeERtRh+0x3a>
    } *leBufferSize = (HCILeBufferSize*)_cmdResponse;
    474a:	002b      	movs	r3, r5
    474c:	33fc      	adds	r3, #252	; 0xfc
    474e:	69da      	ldr	r2, [r3, #28]
    _maxPkt = maxPkt = leBufferSize->maxPkt;
    4750:	35ff      	adds	r5, #255	; 0xff
    pktLen = leBufferSize->pktLen;
    4752:	7853      	ldrb	r3, [r2, #1]
    4754:	7811      	ldrb	r1, [r2, #0]
    4756:	021b      	lsls	r3, r3, #8
    4758:	430b      	orrs	r3, r1
    475a:	8033      	strh	r3, [r6, #0]
    _maxPkt = maxPkt = leBufferSize->maxPkt;
    475c:	7893      	ldrb	r3, [r2, #2]
    ATT.setMaxMtu(pktLen - 9); // max pkt len - ACL header size
    475e:	4806      	ldr	r0, [pc, #24]	; (4778 <_ZN8HCIClass16readLeBufferSizeERtRh+0x44>)
    _maxPkt = maxPkt = leBufferSize->maxPkt;
    4760:	703b      	strb	r3, [r7, #0]
    4762:	776b      	strb	r3, [r5, #29]
    ATT.setMaxMtu(pktLen - 9); // max pkt len - ACL header size
    4764:	8831      	ldrh	r1, [r6, #0]
    4766:	3909      	subs	r1, #9
    4768:	b289      	uxth	r1, r1
    476a:	f7fe fb81 	bl	2e70 <_ZN8ATTClass9setMaxMtuEt>
}
    476e:	0020      	movs	r0, r4
    4770:	bdf8      	pop	{r3, r4, r5, r6, r7, pc}
    4772:	46c0      	nop			; (mov r8, r8)
    4774:	00002002 	.word	0x00002002
    4778:	200002d8 	.word	0x200002d8

0000477c <_ZN8HCIClass26leSetAdvertisingParametersEtthhhPhhh>:
{
    477c:	b5f0      	push	{r4, r5, r6, r7, lr}
    477e:	b085      	sub	sp, #20
    4780:	469c      	mov	ip, r3
  leAdvertisingParamters.minInterval = minInterval;
    4782:	466b      	mov	r3, sp
  leAdvertisingParamters.maxInterval = maxInterval;
    4784:	805a      	strh	r2, [r3, #2]
  leAdvertisingParamters.advType = advType;
    4786:	4662      	mov	r2, ip
{
    4788:	0004      	movs	r4, r0
    478a:	a80a      	add	r0, sp, #40	; 0x28
    478c:	7807      	ldrb	r7, [r0, #0]
    478e:	a80b      	add	r0, sp, #44	; 0x2c
    4790:	7800      	ldrb	r0, [r0, #0]
    4792:	ad0d      	add	r5, sp, #52	; 0x34
    4794:	782e      	ldrb	r6, [r5, #0]
  leAdvertisingParamters.minInterval = minInterval;
    4796:	8019      	strh	r1, [r3, #0]
  leAdvertisingParamters.advType = advType;
    4798:	711a      	strb	r2, [r3, #4]
  leAdvertisingParamters.directBdaddrType = directBdaddrType;
    479a:	7198      	strb	r0, [r3, #6]
  memcpy(leAdvertisingParamters.directBdaddr, directBdaddr, 6);
    479c:	990c      	ldr	r1, [sp, #48]	; 0x30
{
    479e:	ad0e      	add	r5, sp, #56	; 0x38
  memcpy(leAdvertisingParamters.directBdaddr, directBdaddr, 6);
    47a0:	2206      	movs	r2, #6
    47a2:	1dd8      	adds	r0, r3, #7
{
    47a4:	782d      	ldrb	r5, [r5, #0]
  leAdvertisingParamters.ownBdaddrType = ownBdaddrType;
    47a6:	715f      	strb	r7, [r3, #5]
  memcpy(leAdvertisingParamters.directBdaddr, directBdaddr, 6);
    47a8:	f004 fe01 	bl	93ae <memcpy>
  leAdvertisingParamters.chanMap = chanMap;
    47ac:	466b      	mov	r3, sp
  return sendCommand(OGF_LE_CTL << 10 | OCF_LE_SET_ADVERTISING_PARAMETERS, sizeof(leAdvertisingParamters), &leAdvertisingParamters);
    47ae:	220f      	movs	r2, #15
    47b0:	4903      	ldr	r1, [pc, #12]	; (47c0 <_ZN8HCIClass26leSetAdvertisingParametersEtthhhPhhh+0x44>)
    47b2:	0020      	movs	r0, r4
  leAdvertisingParamters.chanMap = chanMap;
    47b4:	735e      	strb	r6, [r3, #13]
  leAdvertisingParamters.filter = filter;
    47b6:	739d      	strb	r5, [r3, #14]
  return sendCommand(OGF_LE_CTL << 10 | OCF_LE_SET_ADVERTISING_PARAMETERS, sizeof(leAdvertisingParamters), &leAdvertisingParamters);
    47b8:	f7ff ff02 	bl	45c0 <_ZN8HCIClass11sendCommandEthPv>
}
    47bc:	b005      	add	sp, #20
    47be:	bdf0      	pop	{r4, r5, r6, r7, pc}
    47c0:	00002006 	.word	0x00002006

000047c4 <_ZN8HCIClass20leSetAdvertisingDataEhPh>:
{
    47c4:	b5f0      	push	{r4, r5, r6, r7, lr}
  memset(&leAdvertisingData, 0, sizeof(leAdvertisingData));
    47c6:	2420      	movs	r4, #32
{
    47c8:	b089      	sub	sp, #36	; 0x24
    47ca:	000d      	movs	r5, r1
    47cc:	0006      	movs	r6, r0
    47ce:	0017      	movs	r7, r2
  memset(&leAdvertisingData, 0, sizeof(leAdvertisingData));
    47d0:	2100      	movs	r1, #0
    47d2:	0022      	movs	r2, r4
    47d4:	4668      	mov	r0, sp
    47d6:	f004 fe05 	bl	93e4 <memset>
  leAdvertisingData.length = length;
    47da:	466b      	mov	r3, sp
  memcpy(leAdvertisingData.data, data, length);
    47dc:	002a      	movs	r2, r5
    47de:	0039      	movs	r1, r7
    47e0:	1c58      	adds	r0, r3, #1
  leAdvertisingData.length = length;
    47e2:	701d      	strb	r5, [r3, #0]
  memcpy(leAdvertisingData.data, data, length);
    47e4:	f004 fde3 	bl	93ae <memcpy>
  return sendCommand(OGF_LE_CTL << 10 | OCF_LE_SET_ADVERTISING_DATA, sizeof(leAdvertisingData), &leAdvertisingData);
    47e8:	466b      	mov	r3, sp
    47ea:	0022      	movs	r2, r4
    47ec:	4902      	ldr	r1, [pc, #8]	; (47f8 <_ZN8HCIClass20leSetAdvertisingDataEhPh+0x34>)
    47ee:	0030      	movs	r0, r6
    47f0:	f7ff fee6 	bl	45c0 <_ZN8HCIClass11sendCommandEthPv>
}
    47f4:	b009      	add	sp, #36	; 0x24
    47f6:	bdf0      	pop	{r4, r5, r6, r7, pc}
    47f8:	00002008 	.word	0x00002008

000047fc <_ZN8HCIClass21leSetScanResponseDataEhPh>:
{
    47fc:	b5f0      	push	{r4, r5, r6, r7, lr}
  memset(&leScanResponseData, 0, sizeof(leScanResponseData));
    47fe:	2420      	movs	r4, #32
{
    4800:	b089      	sub	sp, #36	; 0x24
    4802:	000d      	movs	r5, r1
    4804:	0006      	movs	r6, r0
    4806:	0017      	movs	r7, r2
  memset(&leScanResponseData, 0, sizeof(leScanResponseData));
    4808:	2100      	movs	r1, #0
    480a:	0022      	movs	r2, r4
    480c:	4668      	mov	r0, sp
    480e:	f004 fde9 	bl	93e4 <memset>
  leScanResponseData.length = length;
    4812:	466b      	mov	r3, sp
  memcpy(leScanResponseData.data, data, length);
    4814:	002a      	movs	r2, r5
    4816:	0039      	movs	r1, r7
    4818:	1c58      	adds	r0, r3, #1
  leScanResponseData.length = length;
    481a:	701d      	strb	r5, [r3, #0]
  memcpy(leScanResponseData.data, data, length);
    481c:	f004 fdc7 	bl	93ae <memcpy>
  return sendCommand(OGF_LE_CTL << 10 | OCF_LE_SET_SCAN_RESPONSE_DATA, sizeof(leScanResponseData), &leScanResponseData);
    4820:	466b      	mov	r3, sp
    4822:	0022      	movs	r2, r4
    4824:	4902      	ldr	r1, [pc, #8]	; (4830 <_ZN8HCIClass21leSetScanResponseDataEhPh+0x34>)
    4826:	0030      	movs	r0, r6
    4828:	f7ff feca 	bl	45c0 <_ZN8HCIClass11sendCommandEthPv>
}
    482c:	b009      	add	sp, #36	; 0x24
    482e:	bdf0      	pop	{r4, r5, r6, r7, pc}
    4830:	00002009 	.word	0x00002009

00004834 <_ZN8HCIClass20leSetAdvertiseEnableEh>:
{
    4834:	b507      	push	{r0, r1, r2, lr}
    4836:	466b      	mov	r3, sp
    4838:	3307      	adds	r3, #7
    483a:	7019      	strb	r1, [r3, #0]
  return sendCommand(OGF_LE_CTL << 10 | OCF_LE_SET_ADVERTISE_ENABLE, sizeof(enable), &enable);
    483c:	2201      	movs	r2, #1
    483e:	4902      	ldr	r1, [pc, #8]	; (4848 <_ZN8HCIClass20leSetAdvertiseEnableEh+0x14>)
    4840:	f7ff febe 	bl	45c0 <_ZN8HCIClass11sendCommandEthPv>
}
    4844:	bd0e      	pop	{r1, r2, r3, pc}
    4846:	46c0      	nop			; (mov r8, r8)
    4848:	0000200a 	.word	0x0000200a

0000484c <_ZN8HCIClass14handleEventPktEhPh>:
{
    484c:	b5f0      	push	{r4, r5, r6, r7, lr}
  if (eventHdr->evt == EVT_DISCONN_COMPLETE) {
    484e:	7813      	ldrb	r3, [r2, #0]
{
    4850:	b087      	sub	sp, #28
    4852:	0004      	movs	r4, r0
  if (eventHdr->evt == EVT_DISCONN_COMPLETE) {
    4854:	2b05      	cmp	r3, #5
    4856:	d110      	bne.n	487a <_ZN8HCIClass14handleEventPktEhPh+0x2e>
    ATT.removeConnection(disconnComplete->handle, disconnComplete->reason);
    4858:	1c94      	adds	r4, r2, #2
    485a:	7861      	ldrb	r1, [r4, #1]
    485c:	7952      	ldrb	r2, [r2, #5]
    485e:	4839      	ldr	r0, [pc, #228]	; (4944 <_ZN8HCIClass14handleEventPktEhPh+0xf8>)
    4860:	f7fe fb26 	bl	2eb0 <_ZN8ATTClass16removeConnectionEht>
    L2CAPSignaling.removeConnection(disconnComplete->handle, disconnComplete->reason);
    4864:	7861      	ldrb	r1, [r4, #1]
    4866:	4838      	ldr	r0, [pc, #224]	; (4948 <_ZN8HCIClass14handleEventPktEhPh+0xfc>)
    4868:	78e2      	ldrb	r2, [r4, #3]
    486a:	f000 f94d 	bl	4b08 <_ZN19L2CAPSignalingClass16removeConnectionEht>
    HCI.leSetAdvertiseEnable(0x01);
    486e:	2101      	movs	r1, #1
    4870:	4836      	ldr	r0, [pc, #216]	; (494c <_ZN8HCIClass14handleEventPktEhPh+0x100>)
    4872:	f7ff ffdf 	bl	4834 <_ZN8HCIClass20leSetAdvertiseEnableEh>
}
    4876:	b007      	add	sp, #28
    4878:	bdf0      	pop	{r4, r5, r6, r7, pc}
  } else if (eventHdr->evt == EVT_CMD_COMPLETE) {
    487a:	2b0e      	cmp	r3, #14
    487c:	d110      	bne.n	48a0 <_ZN8HCIClass14handleEventPktEhPh+0x54>
    _cmdCompleteOpcode = cmdCompleteHeader->opcode;
    487e:	7913      	ldrb	r3, [r2, #4]
    4880:	78d0      	ldrb	r0, [r2, #3]
    4882:	021b      	lsls	r3, r3, #8
    4884:	4303      	orrs	r3, r0
    4886:	0020      	movs	r0, r4
    4888:	30fe      	adds	r0, #254	; 0xfe
    488a:	8203      	strh	r3, [r0, #16]
    _cmdCompleteStatus = cmdCompleteHeader->status;
    488c:	7953      	ldrb	r3, [r2, #5]
    488e:	3802      	subs	r0, #2
    4890:	6143      	str	r3, [r0, #20]
    _cmdResponseLen = pdata[1] - sizeof(CmdComplete);
    4892:	7853      	ldrb	r3, [r2, #1]
    4894:	34ff      	adds	r4, #255	; 0xff
    4896:	3b04      	subs	r3, #4
    _cmdResponse = &pdata[sizeof(HCIEventHdr) + sizeof(CmdComplete)];
    4898:	3206      	adds	r2, #6
    _cmdResponseLen = pdata[1] - sizeof(CmdComplete);
    489a:	7563      	strb	r3, [r4, #21]
    _cmdResponse = &pdata[sizeof(HCIEventHdr) + sizeof(CmdComplete)];
    489c:	61c2      	str	r2, [r0, #28]
    489e:	e7ea      	b.n	4876 <_ZN8HCIClass14handleEventPktEhPh+0x2a>
  } else if (eventHdr->evt == EVT_NUM_COMP_PKTS) {
    48a0:	2b13      	cmp	r3, #19
    48a2:	d10d      	bne.n	48c0 <_ZN8HCIClass14handleEventPktEhPh+0x74>
    for (uint8_t i = 0; i < numHandles; i++) {
    48a4:	2500      	movs	r5, #0
    uint8_t numHandles = pdata[sizeof(HCIEventHdr)];
    48a6:	7896      	ldrb	r6, [r2, #2]
    uint16_t* data = (uint16_t*)&pdata[sizeof(HCIEventHdr) + sizeof(numHandles)];
    48a8:	1cd7      	adds	r7, r2, #3
    for (uint8_t i = 0; i < numHandles; i++) {
    48aa:	42b5      	cmp	r5, r6
    48ac:	dae3      	bge.n	4876 <_ZN8HCIClass14handleEventPktEhPh+0x2a>
      handleNumCompPkts(data[0], data[1]);
    48ae:	887a      	ldrh	r2, [r7, #2]
    48b0:	8839      	ldrh	r1, [r7, #0]
    48b2:	0020      	movs	r0, r4
    for (uint8_t i = 0; i < numHandles; i++) {
    48b4:	3501      	adds	r5, #1
      handleNumCompPkts(data[0], data[1]);
    48b6:	f7ff fd45 	bl	4344 <_ZN8HCIClass17handleNumCompPktsEtt>
      data += 2;
    48ba:	3704      	adds	r7, #4
    for (uint8_t i = 0; i < numHandles; i++) {
    48bc:	b2ed      	uxtb	r5, r5
    48be:	e7f4      	b.n	48aa <_ZN8HCIClass14handleEventPktEhPh+0x5e>
  } else if (eventHdr->evt == EVT_LE_META_EVENT) {
    48c0:	2b3e      	cmp	r3, #62	; 0x3e
    48c2:	d1d8      	bne.n	4876 <_ZN8HCIClass14handleEventPktEhPh+0x2a>
    if (leMetaHeader->subevent == EVT_LE_CONN_COMPLETE) {
    48c4:	7893      	ldrb	r3, [r2, #2]
    48c6:	2b01      	cmp	r3, #1
    48c8:	d1d5      	bne.n	4876 <_ZN8HCIClass14handleEventPktEhPh+0x2a>
      if (leConnectionComplete->status == 0x00) {
    48ca:	78d3      	ldrb	r3, [r2, #3]
    48cc:	1cd5      	adds	r5, r2, #3
    48ce:	2b00      	cmp	r3, #0
    48d0:	d1d1      	bne.n	4876 <_ZN8HCIClass14handleEventPktEhPh+0x2a>
        ATT.addConnection(leConnectionComplete->handle,
    48d2:	3208      	adds	r2, #8
    48d4:	0014      	movs	r4, r2
    48d6:	78a9      	ldrb	r1, [r5, #2]
    48d8:	7868      	ldrb	r0, [r5, #1]
    48da:	0209      	lsls	r1, r1, #8
                          leConnectionComplete->masterClockAccuracy);
    48dc:	4301      	orrs	r1, r0
    48de:	7c68      	ldrb	r0, [r5, #17]
    48e0:	792b      	ldrb	r3, [r5, #4]
    48e2:	78ea      	ldrb	r2, [r5, #3]
    48e4:	9004      	str	r0, [sp, #16]
        ATT.addConnection(leConnectionComplete->handle,
    48e6:	7c28      	ldrb	r0, [r5, #16]
    48e8:	7bee      	ldrb	r6, [r5, #15]
    48ea:	0200      	lsls	r0, r0, #8
                          leConnectionComplete->masterClockAccuracy);
    48ec:	4330      	orrs	r0, r6
    48ee:	9003      	str	r0, [sp, #12]
        ATT.addConnection(leConnectionComplete->handle,
    48f0:	7ba8      	ldrb	r0, [r5, #14]
    48f2:	7b6e      	ldrb	r6, [r5, #13]
    48f4:	0200      	lsls	r0, r0, #8
                          leConnectionComplete->masterClockAccuracy);
    48f6:	4330      	orrs	r0, r6
    48f8:	9002      	str	r0, [sp, #8]
        ATT.addConnection(leConnectionComplete->handle,
    48fa:	7b28      	ldrb	r0, [r5, #12]
    48fc:	7aee      	ldrb	r6, [r5, #11]
    48fe:	0200      	lsls	r0, r0, #8
                          leConnectionComplete->masterClockAccuracy);
    4900:	4330      	orrs	r0, r6
    4902:	9001      	str	r0, [sp, #4]
    4904:	9400      	str	r4, [sp, #0]
    4906:	480f      	ldr	r0, [pc, #60]	; (4944 <_ZN8HCIClass14handleEventPktEhPh+0xf8>)
    4908:	f7fe fab4 	bl	2e74 <_ZN8ATTClass13addConnectionEthhPhttth>
        L2CAPSignaling.addConnection(leConnectionComplete->handle,
    490c:	78a9      	ldrb	r1, [r5, #2]
    490e:	7868      	ldrb	r0, [r5, #1]
    4910:	0209      	lsls	r1, r1, #8
                              leConnectionComplete->masterClockAccuracy);
    4912:	4301      	orrs	r1, r0
    4914:	7c68      	ldrb	r0, [r5, #17]
    4916:	792b      	ldrb	r3, [r5, #4]
    4918:	78ea      	ldrb	r2, [r5, #3]
    491a:	9004      	str	r0, [sp, #16]
        L2CAPSignaling.addConnection(leConnectionComplete->handle,
    491c:	7c28      	ldrb	r0, [r5, #16]
    491e:	7bee      	ldrb	r6, [r5, #15]
    4920:	0200      	lsls	r0, r0, #8
                              leConnectionComplete->masterClockAccuracy);
    4922:	4330      	orrs	r0, r6
    4924:	9003      	str	r0, [sp, #12]
        L2CAPSignaling.addConnection(leConnectionComplete->handle,
    4926:	7ba8      	ldrb	r0, [r5, #14]
    4928:	7b6e      	ldrb	r6, [r5, #13]
    492a:	0200      	lsls	r0, r0, #8
                              leConnectionComplete->masterClockAccuracy);
    492c:	4330      	orrs	r0, r6
    492e:	9002      	str	r0, [sp, #8]
        L2CAPSignaling.addConnection(leConnectionComplete->handle,
    4930:	7b28      	ldrb	r0, [r5, #12]
    4932:	7aee      	ldrb	r6, [r5, #11]
    4934:	0200      	lsls	r0, r0, #8
                              leConnectionComplete->masterClockAccuracy);
    4936:	4330      	orrs	r0, r6
    4938:	9001      	str	r0, [sp, #4]
    493a:	9400      	str	r4, [sp, #0]
    493c:	4802      	ldr	r0, [pc, #8]	; (4948 <_ZN8HCIClass14handleEventPktEhPh+0xfc>)
    493e:	f000 f8b7 	bl	4ab0 <_ZN19L2CAPSignalingClass13addConnectionEthhPhttth>
}
    4942:	e798      	b.n	4876 <_ZN8HCIClass14handleEventPktEhPh+0x2a>
    4944:	200002d8 	.word	0x200002d8
    4948:	200005bc 	.word	0x200005bc
    494c:	20000490 	.word	0x20000490

00004950 <_ZN8HCIClass12leConnUpdateEttttt>:
{
    4950:	b57f      	push	{r0, r1, r2, r3, r4, r5, r6, lr}
  leConnUpdateData.handle = handle;
    4952:	466e      	mov	r6, sp
  leConnUpdateData.maxInterval = maxInterval;
    4954:	80b3      	strh	r3, [r6, #4]
  leConnUpdateData.minCeLength = 0x0004;
    4956:	2304      	movs	r3, #4
{
    4958:	ac08      	add	r4, sp, #32
    495a:	8825      	ldrh	r5, [r4, #0]
    495c:	ac09      	add	r4, sp, #36	; 0x24
    495e:	8824      	ldrh	r4, [r4, #0]
  leConnUpdateData.minCeLength = 0x0004;
    4960:	8173      	strh	r3, [r6, #10]
  leConnUpdateData.maxCeLength = 0x0006;
    4962:	3302      	adds	r3, #2
  leConnUpdateData.handle = handle;
    4964:	8031      	strh	r1, [r6, #0]
  leConnUpdateData.minInterval = minInterval;
    4966:	8072      	strh	r2, [r6, #2]
  leConnUpdateData.maxCeLength = 0x0006;
    4968:	81b3      	strh	r3, [r6, #12]
  return sendCommand(OGF_LE_CTL << 10 | OCF_LE_CONN_UPDATE, sizeof(leConnUpdateData), &leConnUpdateData);
    496a:	220e      	movs	r2, #14
    496c:	466b      	mov	r3, sp
    496e:	4903      	ldr	r1, [pc, #12]	; (497c <_ZN8HCIClass12leConnUpdateEttttt+0x2c>)
  leConnUpdateData.latency = latency;
    4970:	80f5      	strh	r5, [r6, #6]
  leConnUpdateData.supervisionTimeout = supervisionTimeout;
    4972:	8134      	strh	r4, [r6, #8]
  return sendCommand(OGF_LE_CTL << 10 | OCF_LE_CONN_UPDATE, sizeof(leConnUpdateData), &leConnUpdateData);
    4974:	f7ff fe24 	bl	45c0 <_ZN8HCIClass11sendCommandEthPv>
}
    4978:	b004      	add	sp, #16
    497a:	bd70      	pop	{r4, r5, r6, pc}
    497c:	00002013 	.word	0x00002013

00004980 <_ZN8HCIClass10disconnectEt>:
{
    4980:	b5f7      	push	{r0, r1, r2, r4, r5, r6, r7, lr}
  } disconnectData = { handle, HCI_OE_USER_ENDED_CONNECTION };
    4982:	2503      	movs	r5, #3
    4984:	ac01      	add	r4, sp, #4
{
    4986:	0006      	movs	r6, r0
    4988:	000f      	movs	r7, r1
  } disconnectData = { handle, HCI_OE_USER_ENDED_CONNECTION };
    498a:	002a      	movs	r2, r5
    498c:	2100      	movs	r1, #0
    498e:	0020      	movs	r0, r4
    4990:	f004 fd28 	bl	93e4 <memset>
    4994:	2313      	movs	r3, #19
  return sendCommand(OGF_LINK_CTL << 10 | OCF_DISCONNECT, sizeof(disconnectData), &disconnectData);
    4996:	002a      	movs	r2, r5
  } disconnectData = { handle, HCI_OE_USER_ENDED_CONNECTION };
    4998:	70a3      	strb	r3, [r4, #2]
  return sendCommand(OGF_LINK_CTL << 10 | OCF_DISCONNECT, sizeof(disconnectData), &disconnectData);
    499a:	0030      	movs	r0, r6
    499c:	0023      	movs	r3, r4
    499e:	4902      	ldr	r1, [pc, #8]	; (49a8 <_ZN8HCIClass10disconnectEt+0x28>)
  } disconnectData = { handle, HCI_OE_USER_ENDED_CONNECTION };
    49a0:	8027      	strh	r7, [r4, #0]
  return sendCommand(OGF_LINK_CTL << 10 | OCF_DISCONNECT, sizeof(disconnectData), &disconnectData);
    49a2:	f7ff fe0d 	bl	45c0 <_ZN8HCIClass11sendCommandEthPv>
}
    49a6:	bdfe      	pop	{r1, r2, r3, r4, r5, r6, r7, pc}
    49a8:	00000406 	.word	0x00000406

000049ac <_GLOBAL__sub_I__ZN8HCIClassC2Ev>:
  _pendingPkt(0)
    49ac:	4807      	ldr	r0, [pc, #28]	; (49cc <_GLOBAL__sub_I__ZN8HCIClassC2Ev+0x20>)
    49ae:	4b08      	ldr	r3, [pc, #32]	; (49d0 <_GLOBAL__sub_I__ZN8HCIClassC2Ev+0x24>)
    49b0:	0002      	movs	r2, r0
    49b2:	3308      	adds	r3, #8

HCIClass HCI;
    49b4:	b510      	push	{r4, lr}
  _pendingPkt(0)
    49b6:	6003      	str	r3, [r0, #0]
    49b8:	2300      	movs	r3, #0
    49ba:	32ff      	adds	r2, #255	; 0xff
    49bc:	7793      	strb	r3, [r2, #30]
HCIClass HCI;
    49be:	4905      	ldr	r1, [pc, #20]	; (49d4 <_GLOBAL__sub_I__ZN8HCIClassC2Ev+0x28>)
    49c0:	4a05      	ldr	r2, [pc, #20]	; (49d8 <_GLOBAL__sub_I__ZN8HCIClassC2Ev+0x2c>)
  _pendingPkt(0)
    49c2:	6043      	str	r3, [r0, #4]
    49c4:	6083      	str	r3, [r0, #8]
HCIClass HCI;
    49c6:	f002 fd3d 	bl	7444 <__aeabi_atexit>
    49ca:	bd10      	pop	{r4, pc}
    49cc:	20000490 	.word	0x20000490
    49d0:	0000b8c8 	.word	0x0000b8c8
    49d4:	0000430b 	.word	0x0000430b
    49d8:	20000000 	.word	0x20000000

000049dc <_ZN21HCIUartTransportClassD1Ev>:
{
}

HCIUartTransportClass::~HCIUartTransportClass()
{
}
    49dc:	4770      	bx	lr

000049de <_ZN21HCIUartTransportClass5beginEv>:

int HCIUartTransportClass::begin()
{
  _uart->begin(_baudrate);
    49de:	6843      	ldr	r3, [r0, #4]
{
    49e0:	b510      	push	{r4, lr}
  _uart->begin(_baudrate);
    49e2:	681a      	ldr	r2, [r3, #0]
    49e4:	6881      	ldr	r1, [r0, #8]
    49e6:	69d2      	ldr	r2, [r2, #28]
    49e8:	0018      	movs	r0, r3
    49ea:	4790      	blx	r2

  return 1;
}
    49ec:	2001      	movs	r0, #1
    49ee:	bd10      	pop	{r4, pc}

000049f0 <_ZN21HCIUartTransportClass3endEv>:

void HCIUartTransportClass::end()
{
    49f0:	b510      	push	{r4, lr}
  _uart->end();
    49f2:	6840      	ldr	r0, [r0, #4]
    49f4:	6803      	ldr	r3, [r0, #0]
    49f6:	6a5b      	ldr	r3, [r3, #36]	; 0x24
    49f8:	4798      	blx	r3
}
    49fa:	bd10      	pop	{r4, pc}

000049fc <_ZN21HCIUartTransportClass9availableEv>:
    }
  }
}

int HCIUartTransportClass::available()
{
    49fc:	b510      	push	{r4, lr}
  return _uart->available();
    49fe:	6840      	ldr	r0, [r0, #4]
    4a00:	6803      	ldr	r3, [r0, #0]
    4a02:	691b      	ldr	r3, [r3, #16]
    4a04:	4798      	blx	r3
}
    4a06:	bd10      	pop	{r4, pc}

00004a08 <_ZN21HCIUartTransportClass4peekEv>:

int HCIUartTransportClass::peek()
{
    4a08:	b510      	push	{r4, lr}
  return _uart->peek();
    4a0a:	6840      	ldr	r0, [r0, #4]
    4a0c:	6803      	ldr	r3, [r0, #0]
    4a0e:	699b      	ldr	r3, [r3, #24]
    4a10:	4798      	blx	r3
}
    4a12:	bd10      	pop	{r4, pc}

00004a14 <_ZN21HCIUartTransportClass4readEv>:

int HCIUartTransportClass::read()
{
    4a14:	b510      	push	{r4, lr}
  return _uart->read();
    4a16:	6840      	ldr	r0, [r0, #4]
    4a18:	6803      	ldr	r3, [r0, #0]
    4a1a:	695b      	ldr	r3, [r3, #20]
    4a1c:	4798      	blx	r3
}
    4a1e:	bd10      	pop	{r4, pc}

00004a20 <_ZN21HCIUartTransportClass5writeEPKhj>:

size_t HCIUartTransportClass::write(const uint8_t* data, size_t length)
{
    4a20:	b570      	push	{r4, r5, r6, lr}
    4a22:	0004      	movs	r4, r0
#ifdef ARDUINO_AVR_UNO_WIFI_REV2
  // wait while the CTS pin is low
  while (digitalRead(NINA_CTS) == HIGH);
#endif

  size_t result = _uart->write(data, length);
    4a24:	6840      	ldr	r0, [r0, #4]
    4a26:	6803      	ldr	r3, [r0, #0]
    4a28:	685b      	ldr	r3, [r3, #4]
    4a2a:	4798      	blx	r3
    4a2c:	0005      	movs	r5, r0

  _uart->flush();
    4a2e:	6860      	ldr	r0, [r4, #4]
    4a30:	6803      	ldr	r3, [r0, #0]
    4a32:	68db      	ldr	r3, [r3, #12]
    4a34:	4798      	blx	r3

  return result;
}
    4a36:	0028      	movs	r0, r5
    4a38:	bd70      	pop	{r4, r5, r6, pc}

00004a3a <_ZN21HCIUartTransportClassD0Ev>:
HCIUartTransportClass::~HCIUartTransportClass()
    4a3a:	b510      	push	{r4, lr}
    4a3c:	0004      	movs	r4, r0
}
    4a3e:	f000 fd2d 	bl	549c <_ZdlPv>
    4a42:	0020      	movs	r0, r4
    4a44:	bd10      	pop	{r4, pc}

00004a46 <_ZN21HCIUartTransportClass4waitEm>:
{
    4a46:	b570      	push	{r4, r5, r6, lr}
    4a48:	0004      	movs	r4, r0
    4a4a:	000e      	movs	r6, r1
  for (unsigned long start = millis(); (millis() - start) < timeout;) {
    4a4c:	f000 fca6 	bl	539c <millis>
    4a50:	0005      	movs	r5, r0
    4a52:	f000 fca3 	bl	539c <millis>
    4a56:	1b40      	subs	r0, r0, r5
    4a58:	42b0      	cmp	r0, r6
    4a5a:	d205      	bcs.n	4a68 <_ZN21HCIUartTransportClass4waitEm+0x22>
    if (available()) {
    4a5c:	6823      	ldr	r3, [r4, #0]
    4a5e:	0020      	movs	r0, r4
    4a60:	68db      	ldr	r3, [r3, #12]
    4a62:	4798      	blx	r3
    4a64:	2800      	cmp	r0, #0
    4a66:	d0f4      	beq.n	4a52 <_ZN21HCIUartTransportClass4waitEm+0xc>
}
    4a68:	bd70      	pop	{r4, r5, r6, pc}
	...

00004a6c <_GLOBAL__sub_I__ZN21HCIUartTransportClassC2ER14HardwareSerialm>:
  _baudrate(baudrate)
    4a6c:	4b06      	ldr	r3, [pc, #24]	; (4a88 <_GLOBAL__sub_I__ZN21HCIUartTransportClassC2ER14HardwareSerialm+0x1c>)
    4a6e:	4807      	ldr	r0, [pc, #28]	; (4a8c <_GLOBAL__sub_I__ZN21HCIUartTransportClassC2ER14HardwareSerialm+0x20>)
#ifdef ARDUINO_AVR_UNO_WIFI_REV2
HCIUartTransportClass HCIUartTransport(SerialHCI, 119600);
#else
HCIUartTransportClass HCIUartTransport(SerialHCI, 912600);
#endif
HCITransportInterface& HCITransport = HCIUartTransport;
    4a70:	b510      	push	{r4, lr}
  _baudrate(baudrate)
    4a72:	3308      	adds	r3, #8
    4a74:	6003      	str	r3, [r0, #0]
    4a76:	4b06      	ldr	r3, [pc, #24]	; (4a90 <_GLOBAL__sub_I__ZN21HCIUartTransportClassC2ER14HardwareSerialm+0x24>)
HCIUartTransportClass HCIUartTransport(SerialHCI, 912600);
    4a78:	4a06      	ldr	r2, [pc, #24]	; (4a94 <_GLOBAL__sub_I__ZN21HCIUartTransportClassC2ER14HardwareSerialm+0x28>)
  _baudrate(baudrate)
    4a7a:	6043      	str	r3, [r0, #4]
    4a7c:	4b06      	ldr	r3, [pc, #24]	; (4a98 <_GLOBAL__sub_I__ZN21HCIUartTransportClassC2ER14HardwareSerialm+0x2c>)
HCIUartTransportClass HCIUartTransport(SerialHCI, 912600);
    4a7e:	4907      	ldr	r1, [pc, #28]	; (4a9c <_GLOBAL__sub_I__ZN21HCIUartTransportClassC2ER14HardwareSerialm+0x30>)
  _baudrate(baudrate)
    4a80:	6083      	str	r3, [r0, #8]
HCIUartTransportClass HCIUartTransport(SerialHCI, 912600);
    4a82:	f002 fcdf 	bl	7444 <__aeabi_atexit>
HCITransportInterface& HCITransport = HCIUartTransport;
    4a86:	bd10      	pop	{r4, pc}
    4a88:	0000b8dc 	.word	0x0000b8dc
    4a8c:	200005b0 	.word	0x200005b0
    4a90:	20000e58 	.word	0x20000e58
    4a94:	20000000 	.word	0x20000000
    4a98:	000decd8 	.word	0x000decd8
    4a9c:	000049dd 	.word	0x000049dd

00004aa0 <_ZN19L2CAPSignalingClassD1Ev>:
{
}

L2CAPSignalingClass::~L2CAPSignalingClass()
{
}
    4aa0:	4770      	bx	lr

00004aa2 <_ZN19L2CAPSignalingClassD0Ev>:
L2CAPSignalingClass::~L2CAPSignalingClass()
    4aa2:	b510      	push	{r4, lr}
    4aa4:	0004      	movs	r4, r0
}
    4aa6:	f000 fcf9 	bl	549c <_ZdlPv>
    4aaa:	0020      	movs	r0, r4
    4aac:	bd10      	pop	{r4, pc}
	...

00004ab0 <_ZN19L2CAPSignalingClass13addConnectionEthhPhttth>:

void L2CAPSignalingClass::addConnection(uint16_t handle, uint8_t role, uint8_t /*peerBdaddrType*/,
                                        uint8_t /*peerBdaddr*/[6], uint16_t interval,
                                        uint16_t /*latency*/, uint16_t /*supervisionTimeout*/,
                                        uint8_t /*masterClockAccuracy*/)
{
    4ab0:	b5f0      	push	{r4, r5, r6, r7, lr}
    4ab2:	b087      	sub	sp, #28
    4ab4:	ab0d      	add	r3, sp, #52	; 0x34
    4ab6:	000f      	movs	r7, r1
    4ab8:	881b      	ldrh	r3, [r3, #0]
  if (role != 1) {
    4aba:	2a01      	cmp	r2, #1
    4abc:	d120      	bne.n	4b00 <_ZN19L2CAPSignalingClass13addConnectionEthhPhttth+0x50>
    // ignore
    return;
  }

  if (!_minInterval || !_maxInterval) {
    4abe:	8886      	ldrh	r6, [r0, #4]
    4ac0:	2e00      	cmp	r6, #0
    4ac2:	d01d      	beq.n	4b00 <_ZN19L2CAPSignalingClass13addConnectionEthhPhttth+0x50>
    4ac4:	88c5      	ldrh	r5, [r0, #6]
    4ac6:	2d00      	cmp	r5, #0
    4ac8:	d01a      	beq.n	4b00 <_ZN19L2CAPSignalingClass13addConnectionEthhPhttth+0x50>
    // no connection intervale to request
    return;
  }

  if (interval >= _minInterval && interval <= _maxInterval) {
    4aca:	42b3      	cmp	r3, r6
    4acc:	db01      	blt.n	4ad2 <_ZN19L2CAPSignalingClass13addConnectionEthhPhttth+0x22>
    4ace:	42ab      	cmp	r3, r5
    4ad0:	dd16      	ble.n	4b00 <_ZN19L2CAPSignalingClass13addConnectionEthhPhttth+0x50>
    uint16_t minInterval;
    uint16_t maxInterval;
    uint16_t latency;
    uint16_t supervisionTimeout;
  } request = { CONNECTION_PARAMETER_UPDATE_REQUEST, 0x01, 8,
                _minInterval, _maxInterval, 0x0000, 0x00c8 };
    4ad2:	ac03      	add	r4, sp, #12
    4ad4:	220c      	movs	r2, #12
    4ad6:	2100      	movs	r1, #0
    4ad8:	0020      	movs	r0, r4
    4ada:	f004 fc83 	bl	93e4 <memset>
    4ade:	2312      	movs	r3, #18
    4ae0:	7023      	strb	r3, [r4, #0]
    4ae2:	3b11      	subs	r3, #17
    4ae4:	7063      	strb	r3, [r4, #1]
    4ae6:	3307      	adds	r3, #7
    4ae8:	8063      	strh	r3, [r4, #2]
    4aea:	33c0      	adds	r3, #192	; 0xc0
    4aec:	8163      	strh	r3, [r4, #10]
    4aee:	80a6      	strh	r6, [r4, #4]
    4af0:	80e5      	strh	r5, [r4, #6]

  HCI.sendAclPkt(handle, SIGNALING_CID, sizeof(request), &request);
    4af2:	3bbc      	subs	r3, #188	; 0xbc
    4af4:	9400      	str	r4, [sp, #0]
    4af6:	2205      	movs	r2, #5
    4af8:	0039      	movs	r1, r7
    4afa:	4802      	ldr	r0, [pc, #8]	; (4b04 <_ZN19L2CAPSignalingClass13addConnectionEthhPhttth+0x54>)
    4afc:	f7ff fc54 	bl	43a8 <_ZN8HCIClass10sendAclPktEthhPv>
}
    4b00:	b007      	add	sp, #28
    4b02:	bdf0      	pop	{r4, r5, r6, r7, pc}
    4b04:	20000490 	.word	0x20000490

00004b08 <_ZN19L2CAPSignalingClass16removeConnectionEht>:
  }
}

void L2CAPSignalingClass::removeConnection(uint8_t /*handle*/, uint16_t /*reason*/)
{
}
    4b08:	4770      	bx	lr
	...

00004b0c <_ZN19L2CAPSignalingClass32connectionParameterUpdateRequestEthhPh>:
  _minInterval = minInterval;
  _maxInterval = maxInterval;
}

void L2CAPSignalingClass::connectionParameterUpdateRequest(uint16_t handle, uint8_t identifier, uint8_t dlen, uint8_t data[])
{
    4b0c:	b5f0      	push	{r4, r5, r6, r7, lr}
    4b0e:	b087      	sub	sp, #28
    4b10:	0007      	movs	r7, r0
    4b12:	000e      	movs	r6, r1
    4b14:	9203      	str	r2, [sp, #12]
    4b16:	9c0c      	ldr	r4, [sp, #48]	; 0x30
    uint16_t maxInterval;
    uint16_t latency;
    uint16_t supervisionTimeout;
  } *request = (L2CAPConnectionParameterUpdateRequest*)data;

  if (dlen < sizeof(L2CAPConnectionParameterUpdateRequest)) {
    4b18:	2b07      	cmp	r3, #7
    4b1a:	d941      	bls.n	4ba0 <_ZN19L2CAPSignalingClass32connectionParameterUpdateRequestEthhPh+0x94>
  struct __attribute__ ((packed)) L2CAPConnectionParameterUpdateResponse {
    uint8_t code;
    uint8_t identifier;
    uint16_t length;
    uint16_t value;
  } response = { CONNECTION_PARAMETER_UPDATE_RESPONSE, identifier, 2, 0x0000 };
    4b1c:	ad04      	add	r5, sp, #16
    4b1e:	2100      	movs	r1, #0
    4b20:	2206      	movs	r2, #6
    4b22:	0028      	movs	r0, r5
    4b24:	f004 fc5e 	bl	93e4 <memset>
    4b28:	2313      	movs	r3, #19
    4b2a:	702b      	strb	r3, [r5, #0]
    4b2c:	3b11      	subs	r3, #17
    4b2e:	806b      	strh	r3, [r5, #2]
    4b30:	466b      	mov	r3, sp
    4b32:	7b1b      	ldrb	r3, [r3, #12]
    4b34:	706b      	strb	r3, [r5, #1]

  if (_minInterval && _maxInterval) {
    4b36:	88b9      	ldrh	r1, [r7, #4]
    4b38:	2900      	cmp	r1, #0
    4b3a:	d010      	beq.n	4b5e <_ZN19L2CAPSignalingClass32connectionParameterUpdateRequestEthhPh+0x52>
    4b3c:	88fa      	ldrh	r2, [r7, #6]
    4b3e:	2a00      	cmp	r2, #0
    4b40:	d00d      	beq.n	4b5e <_ZN19L2CAPSignalingClass32connectionParameterUpdateRequestEthhPh+0x52>
    if (request->minInterval < _minInterval || request->maxInterval > _maxInterval) {
    4b42:	7863      	ldrb	r3, [r4, #1]
    4b44:	7820      	ldrb	r0, [r4, #0]
    4b46:	021b      	lsls	r3, r3, #8
    4b48:	4303      	orrs	r3, r0
    4b4a:	428b      	cmp	r3, r1
    4b4c:	db05      	blt.n	4b5a <_ZN19L2CAPSignalingClass32connectionParameterUpdateRequestEthhPh+0x4e>
    4b4e:	78e3      	ldrb	r3, [r4, #3]
    4b50:	78a1      	ldrb	r1, [r4, #2]
    4b52:	021b      	lsls	r3, r3, #8
    4b54:	430b      	orrs	r3, r1
    4b56:	4293      	cmp	r3, r2
    4b58:	dd01      	ble.n	4b5e <_ZN19L2CAPSignalingClass32connectionParameterUpdateRequestEthhPh+0x52>
      response.value = 0x0001; // reject
    4b5a:	2301      	movs	r3, #1
    4b5c:	80ab      	strh	r3, [r5, #4]
    }
  }

  HCI.sendAclPkt(handle, SIGNALING_CID, sizeof(response), &response);
    4b5e:	4f11      	ldr	r7, [pc, #68]	; (4ba4 <_ZN19L2CAPSignalingClass32connectionParameterUpdateRequestEthhPh+0x98>)
    4b60:	2306      	movs	r3, #6
    4b62:	9500      	str	r5, [sp, #0]
    4b64:	2205      	movs	r2, #5
    4b66:	0031      	movs	r1, r6
    4b68:	0038      	movs	r0, r7
    4b6a:	f7ff fc1d 	bl	43a8 <_ZN8HCIClass10sendAclPktEthhPv>

  if (response.value == 0x0000) {
    4b6e:	88ab      	ldrh	r3, [r5, #4]
    4b70:	2b00      	cmp	r3, #0
    4b72:	d115      	bne.n	4ba0 <_ZN19L2CAPSignalingClass32connectionParameterUpdateRequestEthhPh+0x94>
    HCI.leConnUpdate(handle, request->minInterval, request->maxInterval, request->latency, request->supervisionTimeout);
    4b74:	78e3      	ldrb	r3, [r4, #3]
    4b76:	78a2      	ldrb	r2, [r4, #2]
    4b78:	021b      	lsls	r3, r3, #8
    4b7a:	4313      	orrs	r3, r2
    4b7c:	7862      	ldrb	r2, [r4, #1]
    4b7e:	7821      	ldrb	r1, [r4, #0]
    4b80:	0212      	lsls	r2, r2, #8
    4b82:	430a      	orrs	r2, r1
    4b84:	79e1      	ldrb	r1, [r4, #7]
    4b86:	79a0      	ldrb	r0, [r4, #6]
    4b88:	0209      	lsls	r1, r1, #8
    4b8a:	4301      	orrs	r1, r0
    4b8c:	9101      	str	r1, [sp, #4]
    4b8e:	7961      	ldrb	r1, [r4, #5]
    4b90:	7920      	ldrb	r0, [r4, #4]
    4b92:	0209      	lsls	r1, r1, #8
    4b94:	4301      	orrs	r1, r0
    4b96:	9100      	str	r1, [sp, #0]
    4b98:	0038      	movs	r0, r7
    4b9a:	0031      	movs	r1, r6
    4b9c:	f7ff fed8 	bl	4950 <_ZN8HCIClass12leConnUpdateEttttt>
  }
}
    4ba0:	b007      	add	sp, #28
    4ba2:	bdf0      	pop	{r4, r5, r6, r7, pc}
    4ba4:	20000490 	.word	0x20000490

00004ba8 <_ZN19L2CAPSignalingClass10handleDataEthPh>:
{
    4ba8:	b537      	push	{r0, r1, r2, r4, r5, lr}
  if (dlen < sizeof(L2CAPSignalingHdr)) {
    4baa:	2a03      	cmp	r2, #3
    4bac:	d910      	bls.n	4bd0 <_ZN19L2CAPSignalingClass10handleDataEthPh+0x28>
  if (dlen != (sizeof(L2CAPSignalingHdr) + l2capSignalingHdr->length)) {
    4bae:	78dc      	ldrb	r4, [r3, #3]
    4bb0:	789d      	ldrb	r5, [r3, #2]
    4bb2:	0224      	lsls	r4, r4, #8
    4bb4:	432c      	orrs	r4, r5
    4bb6:	1d25      	adds	r5, r4, #4
    4bb8:	42aa      	cmp	r2, r5
    4bba:	d109      	bne.n	4bd0 <_ZN19L2CAPSignalingClass10handleDataEthPh+0x28>
  if (code == CONNECTION_PARAMETER_UPDATE_REQUEST) {
    4bbc:	781a      	ldrb	r2, [r3, #0]
    4bbe:	2a12      	cmp	r2, #18
    4bc0:	d106      	bne.n	4bd0 <_ZN19L2CAPSignalingClass10handleDataEthPh+0x28>
    connectionParameterUpdateRequest(connectionHandle, identifier, length, data);
    4bc2:	785a      	ldrb	r2, [r3, #1]
    4bc4:	b2e4      	uxtb	r4, r4
  data = &data[sizeof(L2CAPSignalingHdr)];
    4bc6:	3304      	adds	r3, #4
    connectionParameterUpdateRequest(connectionHandle, identifier, length, data);
    4bc8:	9300      	str	r3, [sp, #0]
    4bca:	0023      	movs	r3, r4
    4bcc:	f7ff ff9e 	bl	4b0c <_ZN19L2CAPSignalingClass32connectionParameterUpdateRequestEthhPh>
}
    4bd0:	bd37      	pop	{r0, r1, r2, r4, r5, pc}
	...

00004bd4 <_GLOBAL__sub_I__ZN19L2CAPSignalingClassC2Ev>:
  _maxInterval(0)
    4bd4:	4b06      	ldr	r3, [pc, #24]	; (4bf0 <_GLOBAL__sub_I__ZN19L2CAPSignalingClassC2Ev+0x1c>)
    4bd6:	4807      	ldr	r0, [pc, #28]	; (4bf4 <_GLOBAL__sub_I__ZN19L2CAPSignalingClassC2Ev+0x20>)
    4bd8:	3308      	adds	r3, #8

void L2CAPSignalingClass::connectionParameterUpdateResponse(uint16_t /*handle*/, uint8_t /*identifier*/, uint8_t /*dlen*/, uint8_t /*data*/[])
{
}

L2CAPSignalingClass L2CAPSignaling;
    4bda:	b510      	push	{r4, lr}
  _maxInterval(0)
    4bdc:	6003      	str	r3, [r0, #0]
    4bde:	2300      	movs	r3, #0
L2CAPSignalingClass L2CAPSignaling;
    4be0:	4a05      	ldr	r2, [pc, #20]	; (4bf8 <_GLOBAL__sub_I__ZN19L2CAPSignalingClassC2Ev+0x24>)
    4be2:	4906      	ldr	r1, [pc, #24]	; (4bfc <_GLOBAL__sub_I__ZN19L2CAPSignalingClassC2Ev+0x28>)
  _maxInterval(0)
    4be4:	8083      	strh	r3, [r0, #4]
    4be6:	80c3      	strh	r3, [r0, #6]
L2CAPSignalingClass L2CAPSignaling;
    4be8:	f002 fc2c 	bl	7444 <__aeabi_atexit>
    4bec:	bd10      	pop	{r4, pc}
    4bee:	46c0      	nop			; (mov r8, r8)
    4bf0:	0000b908 	.word	0x0000b908
    4bf4:	200005bc 	.word	0x200005bc
    4bf8:	20000000 	.word	0x20000000
    4bfc:	00004aa1 	.word	0x00004aa1

00004c00 <setup>:
#include "DIService.h"
#include "CSCService.h"

void setup()
{
    Serial.begin(9600);
    4c00:	2196      	movs	r1, #150	; 0x96
{
    4c02:	b570      	push	{r4, r5, r6, lr}
    Serial.begin(9600);
    4c04:	4c11      	ldr	r4, [pc, #68]	; (4c4c <setup+0x4c>)
    4c06:	0189      	lsls	r1, r1, #6
    4c08:	0020      	movs	r0, r4
    4c0a:	f000 fe67 	bl	58dc <_ZN7Serial_5beginEm>
    while (!Serial);
    4c0e:	0020      	movs	r0, r4
    4c10:	f000 fe66 	bl	58e0 <_ZN7Serial_cvbEv>
    4c14:	2800      	cmp	r0, #0
    4c16:	d0fa      	beq.n	4c0e <setup+0xe>

    if (!BLE.begin()) {
    4c18:	4d0d      	ldr	r5, [pc, #52]	; (4c50 <setup+0x50>)
    4c1a:	0028      	movs	r0, r5
    4c1c:	f7fd ff7c 	bl	2b18 <_ZN14BLELocalDevice5beginEv>
    4c20:	2800      	cmp	r0, #0
    4c22:	d104      	bne.n	4c2e <setup+0x2e>
        Serial.println("starting BLE failed!");
    4c24:	490b      	ldr	r1, [pc, #44]	; (4c54 <setup+0x54>)
    4c26:	0020      	movs	r0, r4
    4c28:	f000 fc7c 	bl	5524 <_ZN5Print7printlnEPKc>
    4c2c:	e7fe      	b.n	4c2c <setup+0x2c>
        while (1);
    }
    
    BLE.setLocalName("K-Roller");
    4c2e:	490a      	ldr	r1, [pc, #40]	; (4c58 <setup+0x58>)
    4c30:	0028      	movs	r0, r5
    4c32:	f7fd ffdb 	bl	2bec <_ZN14BLELocalDevice12setLocalNameEPKc>
    x_cscService.setup();
    4c36:	4809      	ldr	r0, [pc, #36]	; (4c5c <setup+0x5c>)
    4c38:	f000 f8d4 	bl	4de4 <_ZN10CSCService5setupEv>
    x_diService.setup();
    4c3c:	4808      	ldr	r0, [pc, #32]	; (4c60 <setup+0x60>)
    4c3e:	f000 f9b1 	bl	4fa4 <_ZN9DIService5setupEv>
    //x_batteryService.setup();
    //x_ledService.setup();
    
    Serial.println("waiting for BLE connection");
    4c42:	4908      	ldr	r1, [pc, #32]	; (4c64 <setup+0x64>)
    4c44:	0020      	movs	r0, r4
    4c46:	f000 fc6d 	bl	5524 <_ZN5Print7printlnEPKc>
}
    4c4a:	bd70      	pop	{r4, r5, r6, pc}
    4c4c:	20000644 	.word	0x20000644
    4c50:	200002cc 	.word	0x200002cc
    4c54:	0000b94b 	.word	0x0000b94b
    4c58:	0000b960 	.word	0x0000b960
    4c5c:	200005dc 	.word	0x200005dc
    4c60:	20000608 	.word	0x20000608
    4c64:	0000b969 	.word	0x0000b969

00004c68 <loop>:
uint32_t x_speed = 0;
uint32_t x_distance = 0;
uint32_t x_wheel = 2;

void loop()
{
    4c68:	b570      	push	{r4, r5, r6, lr}
    4c6a:	b086      	sub	sp, #24
    BLEDevice central = BLE.central();
    4c6c:	4668      	mov	r0, sp
    4c6e:	492e      	ldr	r1, [pc, #184]	; (4d28 <loop+0xc0>)
    4c70:	f7fd ffd4 	bl	2c1c <_ZN14BLELocalDevice7centralEv>
    if (central) {
    4c74:	4668      	mov	r0, sp
    4c76:	f7fd fb29 	bl	22cc <_ZNK9BLEDevicecvbEv>
    4c7a:	2800      	cmp	r0, #0
    4c7c:	d04f      	beq.n	4d1e <loop+0xb6>
        Serial.print("connected to central: ");
    4c7e:	4c2b      	ldr	r4, [pc, #172]	; (4d2c <loop+0xc4>)
    4c80:	492b      	ldr	r1, [pc, #172]	; (4d30 <loop+0xc8>)
    4c82:	0020      	movs	r0, r4
    4c84:	f000 fc37 	bl	54f6 <_ZN5Print5printEPKc>
        Serial.println(central.address());
    4c88:	4669      	mov	r1, sp
    4c8a:	a803      	add	r0, sp, #12
    4c8c:	f7fd faf6 	bl	227c <_ZNK9BLEDevice7addressEv>
    4c90:	a903      	add	r1, sp, #12
    4c92:	0020      	movs	r0, r4
    4c94:	f000 fc3c 	bl	5510 <_ZN5Print7printlnERK6String>
    4c98:	a803      	add	r0, sp, #12
    4c9a:	f001 ff39 	bl	6b10 <_ZN6StringD1Ev>
            //x_ledService.runService();
            
            if (Serial.available()) 
            {
                char c = Serial.read();
                switch (c) {
    4c9e:	25ff      	movs	r5, #255	; 0xff
                    case 'x':
                        x_speed++;
                        if (x_speed > 11) x_speed = 11;
    4ca0:	260b      	movs	r6, #11
        while (central.connected())
    4ca2:	4668      	mov	r0, sp
    4ca4:	f7fd fb3a 	bl	231c <_ZNK9BLEDevice9connectedEv>
    4ca8:	2800      	cmp	r0, #0
    4caa:	d029      	beq.n	4d00 <loop+0x98>
            x_cscService.runService();
    4cac:	4821      	ldr	r0, [pc, #132]	; (4d34 <loop+0xcc>)
    4cae:	f000 f955 	bl	4f5c <_ZN10CSCService10runServiceEv>
            x_diService.runService();
    4cb2:	4821      	ldr	r0, [pc, #132]	; (4d38 <loop+0xd0>)
    4cb4:	f000 fa1c 	bl	50f0 <_ZN9DIService10runServiceEv>
            if (Serial.available()) 
    4cb8:	0020      	movs	r0, r4
    4cba:	f000 fd89 	bl	57d0 <_ZN7Serial_9availableEv>
    4cbe:	2800      	cmp	r0, #0
    4cc0:	d0ef      	beq.n	4ca2 <loop+0x3a>
                char c = Serial.read();
    4cc2:	0020      	movs	r0, r4
    4cc4:	f000 fdac 	bl	5820 <_ZN7Serial_4readEv>
    4cc8:	b2c1      	uxtb	r1, r0
                switch (c) {
    4cca:	4028      	ands	r0, r5
    4ccc:	2878      	cmp	r0, #120	; 0x78
    4cce:	d007      	beq.n	4ce0 <loop+0x78>
    4cd0:	287a      	cmp	r0, #122	; 0x7a
    4cd2:	d011      	beq.n	4cf8 <loop+0x90>
    4cd4:	2863      	cmp	r0, #99	; 0x63
    4cd6:	d10b      	bne.n	4cf0 <loop+0x88>
                    case 'z':
                        x_speed--;
                        if (x_speed <  0) x_speed = 0;
                        break;
                    case 'c':
                        x_speed = 0;
    4cd8:	2200      	movs	r2, #0
    4cda:	4b18      	ldr	r3, [pc, #96]	; (4d3c <loop+0xd4>)
    4cdc:	601a      	str	r2, [r3, #0]
                        break;
    4cde:	e007      	b.n	4cf0 <loop+0x88>
                        x_speed++;
    4ce0:	4a16      	ldr	r2, [pc, #88]	; (4d3c <loop+0xd4>)
    4ce2:	6813      	ldr	r3, [r2, #0]
    4ce4:	3301      	adds	r3, #1
                        if (x_speed > 11) x_speed = 11;
    4ce6:	2b0b      	cmp	r3, #11
    4ce8:	d801      	bhi.n	4cee <loop+0x86>
                        x_speed--;
    4cea:	6013      	str	r3, [r2, #0]
                        break;
    4cec:	e000      	b.n	4cf0 <loop+0x88>
                        if (x_speed > 11) x_speed = 11;
    4cee:	6016      	str	r6, [r2, #0]
                }
                Serial.write(c);
    4cf0:	0020      	movs	r0, r4
    4cf2:	f000 fd63 	bl	57bc <_ZN7Serial_5writeEh>
    4cf6:	e7d4      	b.n	4ca2 <loop+0x3a>
                        x_speed--;
    4cf8:	4a10      	ldr	r2, [pc, #64]	; (4d3c <loop+0xd4>)
    4cfa:	6813      	ldr	r3, [r2, #0]
    4cfc:	3b01      	subs	r3, #1
    4cfe:	e7f4      	b.n	4cea <loop+0x82>
            }
        }
        
        Serial.print("disconnected from central: ");
    4d00:	490f      	ldr	r1, [pc, #60]	; (4d40 <loop+0xd8>)
    4d02:	0020      	movs	r0, r4
    4d04:	f000 fbf7 	bl	54f6 <_ZN5Print5printEPKc>
        Serial.println(central.address());
    4d08:	4669      	mov	r1, sp
    4d0a:	a803      	add	r0, sp, #12
    4d0c:	f7fd fab6 	bl	227c <_ZNK9BLEDevice7addressEv>
    4d10:	a903      	add	r1, sp, #12
    4d12:	0020      	movs	r0, r4
    4d14:	f000 fbfc 	bl	5510 <_ZN5Print7printlnERK6String>
    4d18:	a803      	add	r0, sp, #12
    4d1a:	f001 fef9 	bl	6b10 <_ZN6StringD1Ev>
    BLEDevice central = BLE.central();
    4d1e:	4668      	mov	r0, sp
    4d20:	f7fd fa83 	bl	222a <_ZN9BLEDeviceD1Ev>
    }
}
    4d24:	b006      	add	sp, #24
    4d26:	bd70      	pop	{r4, r5, r6, pc}
    4d28:	200002cc 	.word	0x200002cc
    4d2c:	20000644 	.word	0x20000644
    4d30:	0000b918 	.word	0x0000b918
    4d34:	200005dc 	.word	0x200005dc
    4d38:	20000608 	.word	0x20000608
    4d3c:	200005c8 	.word	0x200005c8
    4d40:	0000b92f 	.word	0x0000b92f

00004d44 <_ZN14BatteryService3endEv>:
        }
    }
}

void BatteryService::end()
{
    4d44:	b510      	push	{r4, lr}
    4d46:	0004      	movs	r4, r0
    delete m_batteryService;
    4d48:	6880      	ldr	r0, [r0, #8]
    4d4a:	2800      	cmp	r0, #0
    4d4c:	d002      	beq.n	4d54 <_ZN14BatteryService3endEv+0x10>
    4d4e:	6803      	ldr	r3, [r0, #0]
    4d50:	685b      	ldr	r3, [r3, #4]
    4d52:	4798      	blx	r3
    delete m_batteryLevelCharacteristic;
    4d54:	68e0      	ldr	r0, [r4, #12]
    4d56:	2800      	cmp	r0, #0
    4d58:	d002      	beq.n	4d60 <_ZN14BatteryService3endEv+0x1c>
    4d5a:	6803      	ldr	r3, [r0, #0]
    4d5c:	685b      	ldr	r3, [r3, #4]
    4d5e:	4798      	blx	r3
}
    4d60:	bd10      	pop	{r4, pc}

00004d62 <_ZN14BatteryServiceD1Ev>:
BatteryService::~BatteryService()
    4d62:	b510      	push	{r4, lr}
    4d64:	0004      	movs	r4, r0
    end();
    4d66:	f7ff ffed 	bl	4d44 <_ZN14BatteryService3endEv>
}
    4d6a:	0020      	movs	r0, r4
    4d6c:	bd10      	pop	{r4, pc}
	...

00004d70 <_GLOBAL__sub_I__ZN14BatteryServiceC2Ev>:
BatteryService::BatteryService() : m_lastLevel(0), m_lastCheckTime(0)
    4d70:	2300      	movs	r3, #0

BatteryService x_batteryService;
    4d72:	b510      	push	{r4, lr}
BatteryService::BatteryService() : m_lastLevel(0), m_lastCheckTime(0)
    4d74:	4803      	ldr	r0, [pc, #12]	; (4d84 <_GLOBAL__sub_I__ZN14BatteryServiceC2Ev+0x14>)
BatteryService x_batteryService;
    4d76:	4a04      	ldr	r2, [pc, #16]	; (4d88 <_GLOBAL__sub_I__ZN14BatteryServiceC2Ev+0x18>)
    4d78:	4904      	ldr	r1, [pc, #16]	; (4d8c <_GLOBAL__sub_I__ZN14BatteryServiceC2Ev+0x1c>)
BatteryService::BatteryService() : m_lastLevel(0), m_lastCheckTime(0)
    4d7a:	6003      	str	r3, [r0, #0]
    4d7c:	6043      	str	r3, [r0, #4]
BatteryService x_batteryService;
    4d7e:	f002 fb61 	bl	7444 <__aeabi_atexit>
    4d82:	bd10      	pop	{r4, pc}
    4d84:	200005cc 	.word	0x200005cc
    4d88:	20000000 	.word	0x20000000
    4d8c:	00004d63 	.word	0x00004d63

00004d90 <_Z22handle_CSCNotificationv>:
// TIMER HANDLER
//
void handle_CSCNotification()
{
    //Serial.print("T");
    x_cscService.m_notify = true;
    4d90:	2201      	movs	r2, #1
    4d92:	4b01      	ldr	r3, [pc, #4]	; (4d98 <_Z22handle_CSCNotificationv+0x8>)
    4d94:	701a      	strb	r2, [r3, #0]
    //x_cscService.notifyMeasurementData();
}
    4d96:	4770      	bx	lr
    4d98:	200005dc 	.word	0x200005dc

00004d9c <_ZN10CSCServiceC1Ev>:
m_cumulativeCrankRevolution(0), m_lastCrankEventTime(0)
    4d9c:	2300      	movs	r3, #0
    x_tc5_tick.begin(1000); // 1 sec tick
    4d9e:	21fa      	movs	r1, #250	; 0xfa
CSCService::CSCService() : 
    4da0:	b510      	push	{r4, lr}
    4da2:	0004      	movs	r4, r0
m_cumulativeCrankRevolution(0), m_lastCrankEventTime(0)
    4da4:	7043      	strb	r3, [r0, #1]
    4da6:	6043      	str	r3, [r0, #4]
    4da8:	8103      	strh	r3, [r0, #8]
    4daa:	8143      	strh	r3, [r0, #10]
    4dac:	8183      	strh	r3, [r0, #12]
    m_notify = false;
    4dae:	7003      	strb	r3, [r0, #0]
    x_tc5_tick.begin(1000); // 1 sec tick
    4db0:	0089      	lsls	r1, r1, #2
    4db2:	4802      	ldr	r0, [pc, #8]	; (4dbc <_ZN10CSCServiceC1Ev+0x20>)
    4db4:	f000 fa28 	bl	5208 <_ZN8Tc5Timer5beginEm>
}
    4db8:	0020      	movs	r0, r4
    4dba:	bd10      	pop	{r4, pc}
    4dbc:	2000062c 	.word	0x2000062c

00004dc0 <_ZN10CSCService18setMeasurementDataEv>:
    m_data[0] = m_flags;
    4dc0:	7843      	ldrb	r3, [r0, #1]
    4dc2:	7383      	strb	r3, [r0, #14]
    m_data[1] = (m_cumulativeWheelRevolution >> 24) & 0xff;
    4dc4:	6843      	ldr	r3, [r0, #4]
    4dc6:	0e1a      	lsrs	r2, r3, #24
    4dc8:	73c2      	strb	r2, [r0, #15]
    m_data[2] = (m_cumulativeWheelRevolution >> 16) & 0xff;
    4dca:	0c1a      	lsrs	r2, r3, #16
    4dcc:	7402      	strb	r2, [r0, #16]
    m_data[4] = (m_cumulativeWheelRevolution) & 0xff;
    4dce:	7483      	strb	r3, [r0, #18]
    m_data[3] = (m_cumulativeWheelRevolution >> 8)  & 0xff;
    4dd0:	0a1a      	lsrs	r2, r3, #8
    m_data[5] = (m_lastWheelEventTime >> 8) & 0xff;
    4dd2:	8903      	ldrh	r3, [r0, #8]
    m_data[3] = (m_cumulativeWheelRevolution >> 8)  & 0xff;
    4dd4:	7442      	strb	r2, [r0, #17]
    m_data[6] = (m_lastWheelEventTime) & 0xff;
    4dd6:	7503      	strb	r3, [r0, #20]
    m_data[5] = (m_lastWheelEventTime >> 8) & 0xff;
    4dd8:	0a1a      	lsrs	r2, r3, #8
    m_data[7] = 0;
    4dda:	2300      	movs	r3, #0
    m_data[5] = (m_lastWheelEventTime >> 8) & 0xff;
    4ddc:	74c2      	strb	r2, [r0, #19]
    m_data[7] = 0;
    4dde:	7543      	strb	r3, [r0, #21]
}
    4de0:	4770      	bx	lr
	...

00004de4 <_ZN10CSCService5setupEv>:
{
    4de4:	b57f      	push	{r0, r1, r2, r3, r4, r5, r6, lr}
    4de6:	0004      	movs	r4, r0
    m_cscService = new BLEService("1816");
    4de8:	2008      	movs	r0, #8
    4dea:	f000 fb53 	bl	5494 <_Znwj>
    4dee:	0005      	movs	r5, r0
    4df0:	492a      	ldr	r1, [pc, #168]	; (4e9c <_ZN10CSCService5setupEv+0xb8>)
    4df2:	f7fd fb0b 	bl	240c <_ZN10BLEServiceC1EPKc>
    4df6:	61e5      	str	r5, [r4, #28]
    m_cscMeasurement = new BLECharacteristic("2A5B", BLENotify, 7, true); // 11 -> 7
    4df8:	2008      	movs	r0, #8
    4dfa:	f000 fb4b 	bl	5494 <_Znwj>
    4dfe:	2501      	movs	r5, #1
    4e00:	0006      	movs	r6, r0
    4e02:	2307      	movs	r3, #7
    4e04:	9500      	str	r5, [sp, #0]
    4e06:	2210      	movs	r2, #16
    4e08:	4925      	ldr	r1, [pc, #148]	; (4ea0 <_ZN10CSCService5setupEv+0xbc>)
    4e0a:	f7fd f9e5 	bl	21d8 <_ZN17BLECharacteristicC1EPKchib>
    4e0e:	6226      	str	r6, [r4, #32]
    m_cscFeature = new BLEWordCharacteristic("2A5C", BLERead);
    4e10:	2008      	movs	r0, #8
    4e12:	f000 fb3f 	bl	5494 <_Znwj>
    4e16:	0006      	movs	r6, r0
    4e18:	2202      	movs	r2, #2
    4e1a:	4922      	ldr	r1, [pc, #136]	; (4ea4 <_ZN10CSCService5setupEv+0xc0>)
    4e1c:	f7fd fbcc 	bl	25b8 <_ZN21BLEWordCharacteristicC1EPKch>
    4e20:	6266      	str	r6, [r4, #36]	; 0x24
    m_sensorLocation = new BLEByteCharacteristic("2A5D", BLERead);
    4e22:	2008      	movs	r0, #8
    4e24:	f000 fb36 	bl	5494 <_Znwj>
    4e28:	0006      	movs	r6, r0
    4e2a:	2202      	movs	r2, #2
    4e2c:	491e      	ldr	r1, [pc, #120]	; (4ea8 <_ZN10CSCService5setupEv+0xc4>)
    4e2e:	f7fd fba3 	bl	2578 <_ZN21BLEByteCharacteristicC1EPKch>
    4e32:	62a6      	str	r6, [r4, #40]	; 0x28
    BLE.setAdvertisedService(*m_cscService);
    4e34:	4e1d      	ldr	r6, [pc, #116]	; (4eac <_ZN10CSCService5setupEv+0xc8>)
    4e36:	69e1      	ldr	r1, [r4, #28]
    4e38:	0030      	movs	r0, r6
    4e3a:	f7fd fecb 	bl	2bd4 <_ZN14BLELocalDevice20setAdvertisedServiceERK10BLEService>
    m_cscService->addCharacteristic(*m_cscMeasurement);
    4e3e:	6a21      	ldr	r1, [r4, #32]
    4e40:	69e0      	ldr	r0, [r4, #28]
    4e42:	f7fd faff 	bl	2444 <_ZN10BLEService17addCharacteristicER17BLECharacteristic>
    m_cscService->addCharacteristic(*m_cscFeature);
    4e46:	6a61      	ldr	r1, [r4, #36]	; 0x24
    4e48:	69e0      	ldr	r0, [r4, #28]
    4e4a:	f7fd fafb 	bl	2444 <_ZN10BLEService17addCharacteristicER17BLECharacteristic>
    m_cscService->addCharacteristic(*m_sensorLocation);
    4e4e:	6aa1      	ldr	r1, [r4, #40]	; 0x28
    4e50:	69e0      	ldr	r0, [r4, #28]
    4e52:	f7fd faf7 	bl	2444 <_ZN10BLEService17addCharacteristicER17BLECharacteristic>
    BLE.addService(*m_cscService);
    4e56:	69e1      	ldr	r1, [r4, #28]
    4e58:	0030      	movs	r0, r6
    4e5a:	f7fd fecf 	bl	2bfc <_ZN14BLELocalDevice10addServiceER10BLEService>
    setMeasurementData();
    4e5e:	0020      	movs	r0, r4
    4e60:	f7ff ffae 	bl	4dc0 <_ZN10CSCService18setMeasurementDataEv>
    m_cscMeasurement->writeValue(m_data, 1); // 
    4e64:	0021      	movs	r1, r4
    4e66:	002a      	movs	r2, r5
    4e68:	310e      	adds	r1, #14
    4e6a:	6a20      	ldr	r0, [r4, #32]
    4e6c:	f7fd f9cd 	bl	220a <_ZN17BLECharacteristic10writeValueEPKhi>
  T result;
  unsigned char* src = (unsigned char*)&value;
  unsigned char* dst = (unsigned char*)&result;

  for (int i = 0; i < sizeof(T); i++) {
    dst[i] = src[sizeof(T) - i - 1];
    4e70:	210e      	movs	r1, #14
    4e72:	2300      	movs	r3, #0
    4e74:	4469      	add	r1, sp
    4e76:	704d      	strb	r5, [r1, #1]
    4e78:	700b      	strb	r3, [r1, #0]
  return BLECharacteristic::writeValue((uint8_t*)&value, sizeof(T));
    4e7a:	2202      	movs	r2, #2
    4e7c:	6a60      	ldr	r0, [r4, #36]	; 0x24
    4e7e:	f7fd f9c4 	bl	220a <_ZN17BLECharacteristic10writeValueEPKhi>
    4e82:	210d      	movs	r1, #13
    4e84:	230c      	movs	r3, #12
    4e86:	4469      	add	r1, sp
    4e88:	002a      	movs	r2, r5
    m_sensorLocation->writeValue(12); // rear wheel
    4e8a:	6aa0      	ldr	r0, [r4, #40]	; 0x28
    4e8c:	700b      	strb	r3, [r1, #0]
    4e8e:	f7fd f9bc 	bl	220a <_ZN17BLECharacteristic10writeValueEPKhi>
    BLE.advertise();
    4e92:	0030      	movs	r0, r6
    4e94:	f7fd feba 	bl	2c0c <_ZN14BLELocalDevice9advertiseEv>
}
    4e98:	bd7f      	pop	{r0, r1, r2, r3, r4, r5, r6, pc}
    4e9a:	46c0      	nop			; (mov r8, r8)
    4e9c:	0000b984 	.word	0x0000b984
    4ea0:	0000b989 	.word	0x0000b989
    4ea4:	0000b98e 	.word	0x0000b98e
    4ea8:	0000b993 	.word	0x0000b993
    4eac:	200002cc 	.word	0x200002cc

00004eb0 <_ZN10CSCService21notifyMeasurementDataEv>:
    x_distance += x_speed;
    4eb0:	4b0d      	ldr	r3, [pc, #52]	; (4ee8 <_ZN10CSCService21notifyMeasurementDataEv+0x38>)
    4eb2:	4a0e      	ldr	r2, [pc, #56]	; (4eec <_ZN10CSCService21notifyMeasurementDataEv+0x3c>)
{
    4eb4:	b510      	push	{r4, lr}
    4eb6:	0004      	movs	r4, r0
    x_distance += x_speed;
    4eb8:	6810      	ldr	r0, [r2, #0]
    4eba:	681a      	ldr	r2, [r3, #0]
    4ebc:	1810      	adds	r0, r2, r0
    4ebe:	6018      	str	r0, [r3, #0]
    m_cumulativeWheelRevolution = x_distance / x_wheel;
    4ec0:	4b0b      	ldr	r3, [pc, #44]	; (4ef0 <_ZN10CSCService21notifyMeasurementDataEv+0x40>)
    4ec2:	6819      	ldr	r1, [r3, #0]
    4ec4:	f002 fad0 	bl	7468 <__udivsi3>
    uint32_t time = m_lastWheelEventTime + 1024;
    4ec8:	2280      	movs	r2, #128	; 0x80
    4eca:	8923      	ldrh	r3, [r4, #8]
    4ecc:	00d2      	lsls	r2, r2, #3
    4ece:	189b      	adds	r3, r3, r2
    m_cumulativeWheelRevolution = x_distance / x_wheel;
    4ed0:	6060      	str	r0, [r4, #4]
    m_lastWheelEventTime = time % 65536; // rolls over every 64 seconds
    4ed2:	8123      	strh	r3, [r4, #8]
    setMeasurementData();
    4ed4:	0020      	movs	r0, r4
    4ed6:	f7ff ff73 	bl	4dc0 <_ZN10CSCService18setMeasurementDataEv>
    m_cscMeasurement->writeValue(m_data, 7);
    4eda:	0021      	movs	r1, r4
    4edc:	2207      	movs	r2, #7
    4ede:	310e      	adds	r1, #14
    4ee0:	6a20      	ldr	r0, [r4, #32]
    4ee2:	f7fd f992 	bl	220a <_ZN17BLECharacteristic10writeValueEPKhi>
}
    4ee6:	bd10      	pop	{r4, pc}
    4ee8:	200005c4 	.word	0x200005c4
    4eec:	200005c8 	.word	0x200005c8
    4ef0:	20000004 	.word	0x20000004

00004ef4 <_ZN10CSCService3endEv>:
{
    4ef4:	b510      	push	{r4, lr}
    4ef6:	0004      	movs	r4, r0
    delete m_cscService;
    4ef8:	69c0      	ldr	r0, [r0, #28]
    4efa:	2800      	cmp	r0, #0
    4efc:	d002      	beq.n	4f04 <_ZN10CSCService3endEv+0x10>
    4efe:	6803      	ldr	r3, [r0, #0]
    4f00:	685b      	ldr	r3, [r3, #4]
    4f02:	4798      	blx	r3
    delete m_cscMeasurement;
    4f04:	6a20      	ldr	r0, [r4, #32]
    4f06:	2800      	cmp	r0, #0
    4f08:	d002      	beq.n	4f10 <_ZN10CSCService3endEv+0x1c>
    4f0a:	6803      	ldr	r3, [r0, #0]
    4f0c:	685b      	ldr	r3, [r3, #4]
    4f0e:	4798      	blx	r3
    delete m_cscFeature;
    4f10:	6a60      	ldr	r0, [r4, #36]	; 0x24
    4f12:	2800      	cmp	r0, #0
    4f14:	d002      	beq.n	4f1c <_ZN10CSCService3endEv+0x28>
    4f16:	6803      	ldr	r3, [r0, #0]
    4f18:	685b      	ldr	r3, [r3, #4]
    4f1a:	4798      	blx	r3
    delete m_sensorLocation;
    4f1c:	6aa0      	ldr	r0, [r4, #40]	; 0x28
    4f1e:	2800      	cmp	r0, #0
    4f20:	d002      	beq.n	4f28 <_ZN10CSCService3endEv+0x34>
    4f22:	6803      	ldr	r3, [r0, #0]
    4f24:	685b      	ldr	r3, [r3, #4]
    4f26:	4798      	blx	r3
}
    4f28:	bd10      	pop	{r4, pc}

00004f2a <_ZN10CSCServiceD1Ev>:
CSCService::~CSCService()
    4f2a:	b510      	push	{r4, lr}
    4f2c:	0004      	movs	r4, r0
    end();
    4f2e:	f7ff ffe1 	bl	4ef4 <_ZN10CSCService3endEv>
}
    4f32:	0020      	movs	r0, r4
    4f34:	bd10      	pop	{r4, pc}
	...

00004f38 <_GLOBAL__sub_I__ZN10CSCServiceC2Ev>:
}
    4f38:	b510      	push	{r4, lr}
CSCService x_cscService;
    4f3a:	4c05      	ldr	r4, [pc, #20]	; (4f50 <_GLOBAL__sub_I__ZN10CSCServiceC2Ev+0x18>)
    4f3c:	0020      	movs	r0, r4
    4f3e:	f7ff ff2d 	bl	4d9c <_ZN10CSCServiceC1Ev>
    4f42:	4a04      	ldr	r2, [pc, #16]	; (4f54 <_GLOBAL__sub_I__ZN10CSCServiceC2Ev+0x1c>)
    4f44:	4904      	ldr	r1, [pc, #16]	; (4f58 <_GLOBAL__sub_I__ZN10CSCServiceC2Ev+0x20>)
    4f46:	0020      	movs	r0, r4
    4f48:	f002 fa7c 	bl	7444 <__aeabi_atexit>
}
    4f4c:	bd10      	pop	{r4, pc}
    4f4e:	46c0      	nop			; (mov r8, r8)
    4f50:	200005dc 	.word	0x200005dc
    4f54:	20000000 	.word	0x20000000
    4f58:	00004f2b 	.word	0x00004f2b

00004f5c <_ZN10CSCService10runServiceEv>:
{
    4f5c:	b570      	push	{r4, r5, r6, lr}
    if (m_flags == 0) {
    4f5e:	7843      	ldrb	r3, [r0, #1]
{
    4f60:	0004      	movs	r4, r0
    if (m_flags == 0) {
    4f62:	2b00      	cmp	r3, #0
    4f64:	d109      	bne.n	4f7a <_ZN10CSCService10runServiceEv+0x1e>
        x_tc5_tick.addCallback(&handle_CSCNotification);
    4f66:	4d0c      	ldr	r5, [pc, #48]	; (4f98 <_ZN10CSCService10runServiceEv+0x3c>)
        m_flags =  0x01; // wheel revolution data present
    4f68:	3301      	adds	r3, #1
    4f6a:	7043      	strb	r3, [r0, #1]
        x_tc5_tick.addCallback(&handle_CSCNotification);
    4f6c:	490b      	ldr	r1, [pc, #44]	; (4f9c <_ZN10CSCService10runServiceEv+0x40>)
    4f6e:	0028      	movs	r0, r5
    4f70:	f000 f902 	bl	5178 <_ZN8Tc5Timer11addCallbackEPFvvE>
        x_tc5_tick.start();
    4f74:	0028      	movs	r0, r5
    4f76:	f000 f991 	bl	529c <_ZN8Tc5Timer5startEv>
    BLE.poll();
    4f7a:	4809      	ldr	r0, [pc, #36]	; (4fa0 <_ZN10CSCService10runServiceEv+0x44>)
    4f7c:	f7fd f95c 	bl	2238 <_ZN9BLEDevice4pollEv>
   if (m_flags == 0x01 && m_notify) {
    4f80:	7863      	ldrb	r3, [r4, #1]
    4f82:	2b01      	cmp	r3, #1
    4f84:	d107      	bne.n	4f96 <_ZN10CSCService10runServiceEv+0x3a>
    4f86:	7823      	ldrb	r3, [r4, #0]
    4f88:	2b00      	cmp	r3, #0
    4f8a:	d004      	beq.n	4f96 <_ZN10CSCService10runServiceEv+0x3a>
       m_notify = false;
    4f8c:	2300      	movs	r3, #0
       notifyMeasurementData();
    4f8e:	0020      	movs	r0, r4
       m_notify = false;
    4f90:	7023      	strb	r3, [r4, #0]
       notifyMeasurementData();
    4f92:	f7ff ff8d 	bl	4eb0 <_ZN10CSCService21notifyMeasurementDataEv>
}
    4f96:	bd70      	pop	{r4, r5, r6, pc}
    4f98:	2000062c 	.word	0x2000062c
    4f9c:	00004d91 	.word	0x00004d91
    4fa0:	200002cc 	.word	0x200002cc

00004fa4 <_ZN9DIService5setupEv>:
{
    end();
}

void DIService::setup()
{
    4fa4:	b57f      	push	{r0, r1, r2, r3, r4, r5, r6, lr}
    4fa6:	0004      	movs	r4, r0
    m_diService = new BLEService("180A");
    4fa8:	2008      	movs	r0, #8
    4faa:	f000 fa73 	bl	5494 <_Znwj>
    4fae:	0005      	movs	r5, r0
    4fb0:	492f      	ldr	r1, [pc, #188]	; (5070 <_ZN9DIService5setupEv+0xcc>)
    4fb2:	f7fd fa2b 	bl	240c <_ZN10BLEServiceC1EPKc>
    4fb6:	6025      	str	r5, [r4, #0]
    m_manufacturerNameCharateristic = new BLEStringCharacteristic("2A29", BLERead, 14);
    4fb8:	2008      	movs	r0, #8
    4fba:	f000 fa6b 	bl	5494 <_Znwj>
    4fbe:	0005      	movs	r5, r0
    4fc0:	230e      	movs	r3, #14
    4fc2:	2202      	movs	r2, #2
    4fc4:	492b      	ldr	r1, [pc, #172]	; (5074 <_ZN9DIService5setupEv+0xd0>)
    4fc6:	f7fd fa5b 	bl	2480 <_ZN23BLEStringCharacteristicC1EPKchi>
    4fca:	6065      	str	r5, [r4, #4]
    m_modelNumberCharacteristic = new BLEStringCharacteristic("2A24", BLERead, 5);
    4fcc:	2008      	movs	r0, #8
    4fce:	f000 fa61 	bl	5494 <_Znwj>
    4fd2:	0005      	movs	r5, r0
    4fd4:	2305      	movs	r3, #5
    4fd6:	2202      	movs	r2, #2
    4fd8:	4927      	ldr	r1, [pc, #156]	; (5078 <_ZN9DIService5setupEv+0xd4>)
    4fda:	f7fd fa51 	bl	2480 <_ZN23BLEStringCharacteristicC1EPKchi>
    4fde:	60a5      	str	r5, [r4, #8]
    m_SerialNumberCharacteristic = new BLEStringCharacteristic("2A25", BLERead, 9);
    4fe0:	2008      	movs	r0, #8
    4fe2:	f000 fa57 	bl	5494 <_Znwj>
    4fe6:	0005      	movs	r5, r0
    4fe8:	2309      	movs	r3, #9
    4fea:	2202      	movs	r2, #2
    4fec:	4923      	ldr	r1, [pc, #140]	; (507c <_ZN9DIService5setupEv+0xd8>)
    4fee:	f7fd fa47 	bl	2480 <_ZN23BLEStringCharacteristicC1EPKchi>
    4ff2:	60e5      	str	r5, [r4, #12]
    //BLE.setLocalName("DeviceInformation");
    BLE.setAdvertisedService(*m_diService);
    4ff4:	4d22      	ldr	r5, [pc, #136]	; (5080 <_ZN9DIService5setupEv+0xdc>)
    4ff6:	6821      	ldr	r1, [r4, #0]
    4ff8:	0028      	movs	r0, r5
    4ffa:	f7fd fdeb 	bl	2bd4 <_ZN14BLELocalDevice20setAdvertisedServiceERK10BLEService>
    m_diService->addCharacteristic(*m_manufacturerNameCharateristic);
    4ffe:	6861      	ldr	r1, [r4, #4]
    5000:	6820      	ldr	r0, [r4, #0]
    5002:	f7fd fa1f 	bl	2444 <_ZN10BLEService17addCharacteristicER17BLECharacteristic>
    m_diService->addCharacteristic(*m_modelNumberCharacteristic);
    5006:	68a1      	ldr	r1, [r4, #8]
    5008:	6820      	ldr	r0, [r4, #0]
    500a:	f7fd fa1b 	bl	2444 <_ZN10BLEService17addCharacteristicER17BLECharacteristic>
    m_diService->addCharacteristic(*m_SerialNumberCharacteristic);
    500e:	68e1      	ldr	r1, [r4, #12]
    5010:	6820      	ldr	r0, [r4, #0]
    5012:	f7fd fa17 	bl	2444 <_ZN10BLEService17addCharacteristicER17BLECharacteristic>
    BLE.addService(*m_diService);
    5016:	0028      	movs	r0, r5
    5018:	6821      	ldr	r1, [r4, #0]
    501a:	f7fd fdef 	bl	2bfc <_ZN14BLELocalDevice10addServiceER10BLEService>
    m_manufacturerNameCharateristic->writeValue("ReadDesignTech");
    501e:	6866      	ldr	r6, [r4, #4]
    5020:	4918      	ldr	r1, [pc, #96]	; (5084 <_ZN9DIService5setupEv+0xe0>)
    5022:	a801      	add	r0, sp, #4
    5024:	f001 fdbc 	bl	6ba0 <_ZN6StringC1EPKc>
    5028:	a901      	add	r1, sp, #4
    502a:	0030      	movs	r0, r6
    502c:	f7fd fa36 	bl	249c <_ZN23BLEStringCharacteristic10writeValueERK6String>
    5030:	a801      	add	r0, sp, #4
    5032:	f001 fd6d 	bl	6b10 <_ZN6StringD1Ev>
    m_modelNumberCharacteristic->writeValue("RDT-1");
    5036:	68a6      	ldr	r6, [r4, #8]
    5038:	4913      	ldr	r1, [pc, #76]	; (5088 <_ZN9DIService5setupEv+0xe4>)
    503a:	a801      	add	r0, sp, #4
    503c:	f001 fdb0 	bl	6ba0 <_ZN6StringC1EPKc>
    5040:	a901      	add	r1, sp, #4
    5042:	0030      	movs	r0, r6
    5044:	f7fd fa2a 	bl	249c <_ZN23BLEStringCharacteristic10writeValueERK6String>
    5048:	a801      	add	r0, sp, #4
    504a:	f001 fd61 	bl	6b10 <_ZN6StringD1Ev>
    m_SerialNumberCharacteristic->writeValue("SN-000001");
    504e:	68e4      	ldr	r4, [r4, #12]
    5050:	490e      	ldr	r1, [pc, #56]	; (508c <_ZN9DIService5setupEv+0xe8>)
    5052:	a801      	add	r0, sp, #4
    5054:	f001 fda4 	bl	6ba0 <_ZN6StringC1EPKc>
    5058:	a901      	add	r1, sp, #4
    505a:	0020      	movs	r0, r4
    505c:	f7fd fa1e 	bl	249c <_ZN23BLEStringCharacteristic10writeValueERK6String>
    5060:	a801      	add	r0, sp, #4
    5062:	f001 fd55 	bl	6b10 <_ZN6StringD1Ev>
    BLE.advertise();
    5066:	0028      	movs	r0, r5
    5068:	f7fd fdd0 	bl	2c0c <_ZN14BLELocalDevice9advertiseEv>
}
    506c:	bd7f      	pop	{r0, r1, r2, r3, r4, r5, r6, pc}
    506e:	46c0      	nop			; (mov r8, r8)
    5070:	0000b998 	.word	0x0000b998
    5074:	0000b99d 	.word	0x0000b99d
    5078:	0000b9a2 	.word	0x0000b9a2
    507c:	0000b9a7 	.word	0x0000b9a7
    5080:	200002cc 	.word	0x200002cc
    5084:	0000b9ac 	.word	0x0000b9ac
    5088:	0000b9bb 	.word	0x0000b9bb
    508c:	0000b9c1 	.word	0x0000b9c1

00005090 <_ZN9DIService3endEv>:
{
    BLE.poll();
}

void DIService::end()
{
    5090:	b510      	push	{r4, lr}
    5092:	0004      	movs	r4, r0
    delete m_diService;
    5094:	6800      	ldr	r0, [r0, #0]
    5096:	2800      	cmp	r0, #0
    5098:	d002      	beq.n	50a0 <_ZN9DIService3endEv+0x10>
    509a:	6803      	ldr	r3, [r0, #0]
    509c:	685b      	ldr	r3, [r3, #4]
    509e:	4798      	blx	r3
    delete m_manufacturerNameCharateristic;
    50a0:	6860      	ldr	r0, [r4, #4]
    50a2:	2800      	cmp	r0, #0
    50a4:	d002      	beq.n	50ac <_ZN9DIService3endEv+0x1c>
    50a6:	6803      	ldr	r3, [r0, #0]
    50a8:	685b      	ldr	r3, [r3, #4]
    50aa:	4798      	blx	r3
    delete m_modelNumberCharacteristic;
    50ac:	68a0      	ldr	r0, [r4, #8]
    50ae:	2800      	cmp	r0, #0
    50b0:	d002      	beq.n	50b8 <_ZN9DIService3endEv+0x28>
    50b2:	6803      	ldr	r3, [r0, #0]
    50b4:	685b      	ldr	r3, [r3, #4]
    50b6:	4798      	blx	r3
    delete m_SerialNumberCharacteristic;
    50b8:	68e0      	ldr	r0, [r4, #12]
    50ba:	2800      	cmp	r0, #0
    50bc:	d002      	beq.n	50c4 <_ZN9DIService3endEv+0x34>
    50be:	6803      	ldr	r3, [r0, #0]
    50c0:	685b      	ldr	r3, [r3, #4]
    50c2:	4798      	blx	r3
}
    50c4:	bd10      	pop	{r4, pc}

000050c6 <_ZN9DIServiceD1Ev>:
DIService::~DIService()
    50c6:	b510      	push	{r4, lr}
    50c8:	0004      	movs	r4, r0
    end();
    50ca:	f7ff ffe1 	bl	5090 <_ZN9DIService3endEv>
}
    50ce:	0020      	movs	r0, r4
    50d0:	bd10      	pop	{r4, pc}
	...

000050d4 <_GLOBAL__sub_I__ZN9DIServiceC2Ev>:

DIService x_diService;
    50d4:	b510      	push	{r4, lr}
    50d6:	4a03      	ldr	r2, [pc, #12]	; (50e4 <_GLOBAL__sub_I__ZN9DIServiceC2Ev+0x10>)
    50d8:	4903      	ldr	r1, [pc, #12]	; (50e8 <_GLOBAL__sub_I__ZN9DIServiceC2Ev+0x14>)
    50da:	4804      	ldr	r0, [pc, #16]	; (50ec <_GLOBAL__sub_I__ZN9DIServiceC2Ev+0x18>)
    50dc:	f002 f9b2 	bl	7444 <__aeabi_atexit>
    50e0:	bd10      	pop	{r4, pc}
    50e2:	46c0      	nop			; (mov r8, r8)
    50e4:	20000000 	.word	0x20000000
    50e8:	000050c7 	.word	0x000050c7
    50ec:	20000608 	.word	0x20000608

000050f0 <_ZN9DIService10runServiceEv>:
{
    50f0:	b510      	push	{r4, lr}
    BLE.poll();
    50f2:	4802      	ldr	r0, [pc, #8]	; (50fc <_ZN9DIService10runServiceEv+0xc>)
    50f4:	f7fd f8a0 	bl	2238 <_ZN9BLEDevice4pollEv>
}
    50f8:	bd10      	pop	{r4, pc}
    50fa:	46c0      	nop			; (mov r8, r8)
    50fc:	200002cc 	.word	0x200002cc

00005100 <_ZN10LedServiceC1Ev>:
 *  Author: kong
 */

#include "LedService.h"

LedService::LedService() : m_ledPin(LED_BUILTIN), m_buttonPin(4) // pin 4
    5100:	b510      	push	{r4, lr}
    5102:	2304      	movs	r3, #4
    5104:	0004      	movs	r4, r0
    5106:	2006      	movs	r0, #6
    5108:	6063      	str	r3, [r4, #4]
    510a:	6020      	str	r0, [r4, #0]
{
    pinMode(m_ledPin, OUTPUT);
    510c:	2101      	movs	r1, #1
    510e:	f001 fc29 	bl	6964 <pinMode>
    pinMode(m_buttonPin, INPUT);
    5112:	6860      	ldr	r0, [r4, #4]
    5114:	2100      	movs	r1, #0
    5116:	f001 fc25 	bl	6964 <pinMode>
}
    511a:	0020      	movs	r0, r4
    511c:	bd10      	pop	{r4, pc}

0000511e <_ZN10LedService3endEv>:
        }
    }
}

void LedService::end()
{
    511e:	b510      	push	{r4, lr}
    5120:	0004      	movs	r4, r0
    delete m_ledService;
    5122:	6880      	ldr	r0, [r0, #8]
    5124:	2800      	cmp	r0, #0
    5126:	d002      	beq.n	512e <_ZN10LedService3endEv+0x10>
    5128:	6803      	ldr	r3, [r0, #0]
    512a:	685b      	ldr	r3, [r3, #4]
    512c:	4798      	blx	r3
    delete m_ledControlCharacteristic;
    512e:	68e0      	ldr	r0, [r4, #12]
    5130:	2800      	cmp	r0, #0
    5132:	d002      	beq.n	513a <_ZN10LedService3endEv+0x1c>
    5134:	6803      	ldr	r3, [r0, #0]
    5136:	685b      	ldr	r3, [r3, #4]
    5138:	4798      	blx	r3
    delete m_buttonStateCharacteristic;
    513a:	6920      	ldr	r0, [r4, #16]
    513c:	2800      	cmp	r0, #0
    513e:	d002      	beq.n	5146 <_ZN10LedService3endEv+0x28>
    5140:	6803      	ldr	r3, [r0, #0]
    5142:	685b      	ldr	r3, [r3, #4]
    5144:	4798      	blx	r3
}
    5146:	bd10      	pop	{r4, pc}

00005148 <_ZN10LedServiceD1Ev>:
LedService::~LedService()
    5148:	b510      	push	{r4, lr}
    514a:	0004      	movs	r4, r0
    end();
    514c:	f7ff ffe7 	bl	511e <_ZN10LedService3endEv>
}
    5150:	0020      	movs	r0, r4
    5152:	bd10      	pop	{r4, pc}

00005154 <_GLOBAL__sub_I__ZN10LedServiceC2Ev>:
        x_ledService.controlLed(HIGH);
    } else {
        Serial.println("LED off");
        x_ledService.controlLed(LOW);
    }
}
    5154:	b510      	push	{r4, lr}
LedService x_ledService;
    5156:	4c05      	ldr	r4, [pc, #20]	; (516c <_GLOBAL__sub_I__ZN10LedServiceC2Ev+0x18>)
    5158:	0020      	movs	r0, r4
    515a:	f7ff ffd1 	bl	5100 <_ZN10LedServiceC1Ev>
    515e:	4a04      	ldr	r2, [pc, #16]	; (5170 <_GLOBAL__sub_I__ZN10LedServiceC2Ev+0x1c>)
    5160:	4904      	ldr	r1, [pc, #16]	; (5174 <_GLOBAL__sub_I__ZN10LedServiceC2Ev+0x20>)
    5162:	0020      	movs	r0, r4
    5164:	f002 f96e 	bl	7444 <__aeabi_atexit>
}
    5168:	bd10      	pop	{r4, pc}
    516a:	46c0      	nop			; (mov r8, r8)
    516c:	20000618 	.word	0x20000618
    5170:	20000000 	.word	0x20000000
    5174:	00005149 	.word	0x00005149

00005178 <_ZN8Tc5Timer11addCallbackEPFvvE>:
{
    return TC5->COUNT16.STATUS.reg & TC_STATUS_SYNCBUSY;
}

void Tc5Timer::addCallback(void(*callback)())
{
    5178:	b570      	push	{r4, r5, r6, lr}
    517a:	0004      	movs	r4, r0
    clear();
}

template <typename T> void LinkedList<T>::add(T item)
{
    ListNode<T>* node = new ListNode<T>();
    517c:	2008      	movs	r0, #8
    517e:	000d      	movs	r5, r1
    5180:	f000 f988 	bl	5494 <_Znwj>
    5184:	2300      	movs	r3, #0
    5186:	6043      	str	r3, [r0, #4]
    node->data = item;
    node->next = NULL;
    if (m_head) {
    5188:	68a3      	ldr	r3, [r4, #8]
    node->data = item;
    518a:	6005      	str	r5, [r0, #0]
    if (m_head) {
    518c:	2b00      	cmp	r3, #0
    518e:	d006      	beq.n	519e <_ZN8Tc5Timer11addCallbackEPFvvE+0x26>
        m_tail->next = node;
    5190:	68e3      	ldr	r3, [r4, #12]
    5192:	6058      	str	r0, [r3, #4]
    } 
    else {
        m_head = node;
    }
    m_tail = node;
    m_size++;
    5194:	6863      	ldr	r3, [r4, #4]
    m_tail = node;
    5196:	60e0      	str	r0, [r4, #12]
    m_size++;
    5198:	3301      	adds	r3, #1
    519a:	6063      	str	r3, [r4, #4]
    m_callbacks.add(callback);
}
    519c:	bd70      	pop	{r4, r5, r6, pc}
        m_head = node;
    519e:	60a0      	str	r0, [r4, #8]
    51a0:	e7f8      	b.n	5194 <_ZN8Tc5Timer11addCallbackEPFvvE+0x1c>

000051a2 <_ZN8Tc5Timer11runCallbackEv>:

void Tc5Timer::runCallback()
{
    51a2:	b570      	push	{r4, r5, r6, lr}
    51a4:	0005      	movs	r5, r0
    unsigned int size = m_callbacks.size();
    void (*f)();
    for (unsigned int i = 0; i < size; i++) {
    51a6:	2400      	movs	r4, #0
    51a8:	6846      	ldr	r6, [r0, #4]
    51aa:	42b4      	cmp	r4, r6
    51ac:	d00e      	beq.n	51cc <_ZN8Tc5Timer11runCallbackEv+0x2a>
}

template <typename T> T LinkedList<T>::get(unsigned int index)
{
    if (index >= m_size) {
    51ae:	686a      	ldr	r2, [r5, #4]
        return T();
    51b0:	2300      	movs	r3, #0
    if (index >= m_size) {
    51b2:	4294      	cmp	r4, r2
    51b4:	d207      	bcs.n	51c6 <_ZN8Tc5Timer11runCallbackEv+0x24>
    }
    ListNode<T>* node = m_head;
    for (unsigned int i = 0; i < index; i++) {
    51b6:	2200      	movs	r2, #0
    ListNode<T>* node = m_head;
    51b8:	68ab      	ldr	r3, [r5, #8]
    for (unsigned int i = 0; i < index; i++) {
    51ba:	4294      	cmp	r4, r2
    51bc:	d002      	beq.n	51c4 <_ZN8Tc5Timer11runCallbackEv+0x22>
        node = node->next;
    51be:	685b      	ldr	r3, [r3, #4]
    for (unsigned int i = 0; i < index; i++) {
    51c0:	3201      	adds	r2, #1
    51c2:	e7fa      	b.n	51ba <_ZN8Tc5Timer11runCallbackEv+0x18>
    }
    return node->data;
    51c4:	681b      	ldr	r3, [r3, #0]
        f = m_callbacks.get(i);
        f();
    51c6:	4798      	blx	r3
    for (unsigned int i = 0; i < size; i++) {
    51c8:	3401      	adds	r4, #1
    51ca:	e7ee      	b.n	51aa <_ZN8Tc5Timer11runCallbackEv+0x8>
    }
}
    51cc:	bd70      	pop	{r4, r5, r6, pc}
	...

000051d0 <TC5_Handler>:
{
    51d0:	b510      	push	{r4, lr}
    x_tc5_tick.runCallback();
    51d2:	4804      	ldr	r0, [pc, #16]	; (51e4 <TC5_Handler+0x14>)
    51d4:	f7ff ffe5 	bl	51a2 <_ZN8Tc5Timer11runCallbackEv>
    TC5->COUNT16.INTFLAG.bit.MC0 = 1;
    51d8:	2310      	movs	r3, #16
    51da:	4a03      	ldr	r2, [pc, #12]	; (51e8 <TC5_Handler+0x18>)
    51dc:	7b91      	ldrb	r1, [r2, #14]
    51de:	430b      	orrs	r3, r1
    51e0:	7393      	strb	r3, [r2, #14]
}
    51e2:	bd10      	pop	{r4, pc}
    51e4:	2000062c 	.word	0x2000062c
    51e8:	42003400 	.word	0x42003400

000051ec <_ZN8Tc5Timer5resetEv>:

void Tc5Timer::reset()
{
    TC5->COUNT16.CTRLA.reg = TC_CTRLA_SWRST;
    51ec:	2201      	movs	r2, #1
    51ee:	4b05      	ldr	r3, [pc, #20]	; (5204 <_ZN8Tc5Timer5resetEv+0x18>)
    51f0:	801a      	strh	r2, [r3, #0]
    return TC5->COUNT16.STATUS.reg & TC_STATUS_SYNCBUSY;
    51f2:	7bda      	ldrb	r2, [r3, #15]
    while (isSyncing());
    51f4:	b252      	sxtb	r2, r2
    51f6:	2a00      	cmp	r2, #0
    51f8:	dbfb      	blt.n	51f2 <_ZN8Tc5Timer5resetEv+0x6>
    while (TC5->COUNT16.CTRLA.bit.SWRST);
    51fa:	881a      	ldrh	r2, [r3, #0]
    51fc:	07d2      	lsls	r2, r2, #31
    51fe:	d4fc      	bmi.n	51fa <_ZN8Tc5Timer5resetEv+0xe>
}
    5200:	4770      	bx	lr
    5202:	46c0      	nop			; (mov r8, r8)
    5204:	42003400 	.word	0x42003400

00005208 <_ZN8Tc5Timer5beginEm>:
{
    5208:	b570      	push	{r4, r5, r6, lr}
    520a:	0004      	movs	r4, r0
    GCLK->CLKCTRL.reg = (uint16_t)(GCLK_CLKCTRL_CLKEN
    520c:	4b1d      	ldr	r3, [pc, #116]	; (5284 <_ZN8Tc5Timer5beginEm+0x7c>)
    520e:	4a1e      	ldr	r2, [pc, #120]	; (5288 <_ZN8Tc5Timer5beginEm+0x80>)
    m_tickInterval = interval;
    5210:	6001      	str	r1, [r0, #0]
    GCLK->CLKCTRL.reg = (uint16_t)(GCLK_CLKCTRL_CLKEN
    5212:	805a      	strh	r2, [r3, #2]
    while (GCLK->STATUS.bit.SYNCBUSY);
    5214:	785a      	ldrb	r2, [r3, #1]
    5216:	09d2      	lsrs	r2, r2, #7
    5218:	d1fc      	bne.n	5214 <_ZN8Tc5Timer5beginEm+0xc>
    reset();
    521a:	0020      	movs	r0, r4
    521c:	f7ff ffe6 	bl	51ec <_ZN8Tc5Timer5resetEv>
    TC5->COUNT16.CTRLA.reg |= TC_CTRLA_MODE_COUNT16;
    5220:	4b1a      	ldr	r3, [pc, #104]	; (528c <_ZN8Tc5Timer5beginEm+0x84>)
    5222:	881a      	ldrh	r2, [r3, #0]
    5224:	b292      	uxth	r2, r2
    5226:	801a      	strh	r2, [r3, #0]
    TC5->COUNT16.CTRLA.reg |= TC_CTRLA_WAVEGEN_MFRQ;
    5228:	2220      	movs	r2, #32
    522a:	8819      	ldrh	r1, [r3, #0]
    522c:	430a      	orrs	r2, r1
    522e:	801a      	strh	r2, [r3, #0]
    TC5->COUNT16.CTRLA.reg |= TC_CTRLA_PRESCALER_DIV1024 | TC_CTRLA_ENABLE; // prescaler = 1024
    5230:	8819      	ldrh	r1, [r3, #0]
    5232:	4a17      	ldr	r2, [pc, #92]	; (5290 <_ZN8Tc5Timer5beginEm+0x88>)
    5234:	430a      	orrs	r2, r1
    TC5->COUNT16.CC[0].reg  = (uint16_t)((46875 / 1000) * m_tickInterval); // 48MHz/1024 = 46875 (1sec)
    5236:	212e      	movs	r1, #46	; 0x2e
    TC5->COUNT16.CTRLA.reg |= TC_CTRLA_PRESCALER_DIV1024 | TC_CTRLA_ENABLE; // prescaler = 1024
    5238:	801a      	strh	r2, [r3, #0]
    TC5->COUNT16.CC[0].reg  = (uint16_t)((46875 / 1000) * m_tickInterval); // 48MHz/1024 = 46875 (1sec)
    523a:	6822      	ldr	r2, [r4, #0]
    523c:	434a      	muls	r2, r1
    523e:	b292      	uxth	r2, r2
    5240:	831a      	strh	r2, [r3, #24]
    return TC5->COUNT16.STATUS.reg & TC_STATUS_SYNCBUSY;
    5242:	7bda      	ldrb	r2, [r3, #15]
    while (isSyncing());
    5244:	b252      	sxtb	r2, r2
    5246:	2a00      	cmp	r2, #0
    5248:	dbfb      	blt.n	5242 <_ZN8Tc5Timer5beginEm+0x3a>
 */
__STATIC_INLINE void __NVIC_DisableIRQ(IRQn_Type IRQn)
{
  if ((int32_t)(IRQn) >= 0)
  {
    NVIC->ICER[0U] = (uint32_t)(1UL << (((uint32_t)(int32_t)IRQn) & 0x1FUL));
    524a:	2180      	movs	r1, #128	; 0x80
    524c:	4811      	ldr	r0, [pc, #68]	; (5294 <_ZN8Tc5Timer5beginEm+0x8c>)
    524e:	0349      	lsls	r1, r1, #13
    5250:	4a11      	ldr	r2, [pc, #68]	; (5298 <_ZN8Tc5Timer5beginEm+0x90>)
    5252:	67c1      	str	r1, [r0, #124]	; 0x7c
  \details Acts as a special kind of Data Memory Barrier.
           It completes when all explicit memory accesses before this instruction complete.
 */
__attribute__((always_inline)) __STATIC_INLINE void __DSB(void)
{
  __ASM volatile ("dsb 0xF":::"memory");
    5254:	f3bf 8f4f 	dsb	sy
  __ASM volatile ("isb 0xF":::"memory");
    5258:	f3bf 8f6f 	isb	sy
 */
__STATIC_INLINE void __NVIC_ClearPendingIRQ(IRQn_Type IRQn)
{
  if ((int32_t)(IRQn) >= 0)
  {
    NVIC->ICPR[0U] = (uint32_t)(1UL << (((uint32_t)(int32_t)IRQn) & 0x1FUL));
    525c:	20c0      	movs	r0, #192	; 0xc0
 */
__STATIC_INLINE void __NVIC_SetPriority(IRQn_Type IRQn, uint32_t priority)
{
  if ((int32_t)(IRQn) >= 0)
  {
    NVIC->IP[_IP_IDX(IRQn)]  = ((uint32_t)(NVIC->IP[_IP_IDX(IRQn)]  & ~(0xFFUL << _BIT_SHIFT(IRQn))) |
    525e:	24c5      	movs	r4, #197	; 0xc5
    5260:	25ff      	movs	r5, #255	; 0xff
    NVIC->ICPR[0U] = (uint32_t)(1UL << (((uint32_t)(int32_t)IRQn) & 0x1FUL));
    5262:	0040      	lsls	r0, r0, #1
    5264:	5011      	str	r1, [r2, r0]
    NVIC->IP[_IP_IDX(IRQn)]  = ((uint32_t)(NVIC->IP[_IP_IDX(IRQn)]  & ~(0xFFUL << _BIT_SHIFT(IRQn))) |
    5266:	00a4      	lsls	r4, r4, #2
    5268:	5910      	ldr	r0, [r2, r4]
    526a:	43a8      	bics	r0, r5
    526c:	5110      	str	r0, [r2, r4]
    NVIC->ISER[0U] = (uint32_t)(1UL << (((uint32_t)(int32_t)IRQn) & 0x1FUL));
    526e:	6011      	str	r1, [r2, #0]
    TC5->COUNT16.INTENSET.bit.MC0 = 1;
    5270:	2210      	movs	r2, #16
    5272:	7b59      	ldrb	r1, [r3, #13]
    5274:	430a      	orrs	r2, r1
    5276:	735a      	strb	r2, [r3, #13]
    return TC5->COUNT16.STATUS.reg & TC_STATUS_SYNCBUSY;
    5278:	7bda      	ldrb	r2, [r3, #15]
    while (isSyncing());
    527a:	b252      	sxtb	r2, r2
    527c:	2a00      	cmp	r2, #0
    527e:	dbfb      	blt.n	5278 <_ZN8Tc5Timer5beginEm+0x70>
}
    5280:	bd70      	pop	{r4, r5, r6, pc}
    5282:	46c0      	nop			; (mov r8, r8)
    5284:	40000c00 	.word	0x40000c00
    5288:	0000401c 	.word	0x0000401c
    528c:	42003400 	.word	0x42003400
    5290:	00000702 	.word	0x00000702
    5294:	e000e104 	.word	0xe000e104
    5298:	e000e100 	.word	0xe000e100

0000529c <_ZN8Tc5Timer5startEv>:

void Tc5Timer::start()
{
    TC5->COUNT16.CTRLA.reg |= TC_CTRLA_ENABLE;
    529c:	2202      	movs	r2, #2
    529e:	4b04      	ldr	r3, [pc, #16]	; (52b0 <_ZN8Tc5Timer5startEv+0x14>)
    52a0:	8819      	ldrh	r1, [r3, #0]
    52a2:	430a      	orrs	r2, r1
    52a4:	801a      	strh	r2, [r3, #0]
    return TC5->COUNT16.STATUS.reg & TC_STATUS_SYNCBUSY;
    52a6:	7bda      	ldrb	r2, [r3, #15]
    while (isSyncing());
    52a8:	b252      	sxtb	r2, r2
    52aa:	2a00      	cmp	r2, #0
    52ac:	dbfb      	blt.n	52a6 <_ZN8Tc5Timer5startEv+0xa>
}
    52ae:	4770      	bx	lr
    52b0:	42003400 	.word	0x42003400

000052b4 <_ZN8Tc5Timer4stopEv>:

void Tc5Timer::stop()
{
    TC5->COUNT16.CTRLA.reg &= ~TC_CTRLA_ENABLE;
    52b4:	2102      	movs	r1, #2
    52b6:	4b04      	ldr	r3, [pc, #16]	; (52c8 <_ZN8Tc5Timer4stopEv+0x14>)
    52b8:	881a      	ldrh	r2, [r3, #0]
    52ba:	438a      	bics	r2, r1
    52bc:	801a      	strh	r2, [r3, #0]
    return TC5->COUNT16.STATUS.reg & TC_STATUS_SYNCBUSY;
    52be:	7bda      	ldrb	r2, [r3, #15]
    while (isSyncing());
    52c0:	b252      	sxtb	r2, r2
    52c2:	2a00      	cmp	r2, #0
    52c4:	dbfb      	blt.n	52be <_ZN8Tc5Timer4stopEv+0xa>
}
    52c6:	4770      	bx	lr
    52c8:	42003400 	.word	0x42003400

000052cc <_ZN8Tc5TimerD1Ev>:
Tc5Timer::~Tc5Timer()
    52cc:	b570      	push	{r4, r5, r6, lr}
    52ce:	0004      	movs	r4, r0
}

template <typename T> void LinkedList<T>::clear()
{
    ListNode<T>* node = m_head;
    for (unsigned int i = 0; i < m_size; i++) {
    52d0:	2500      	movs	r5, #0
    stop();
    52d2:	f7ff ffef 	bl	52b4 <_ZN8Tc5Timer4stopEv>
    ListNode<T>* node = m_head;
    52d6:	68a0      	ldr	r0, [r4, #8]
    for (unsigned int i = 0; i < m_size; i++) {
    52d8:	6863      	ldr	r3, [r4, #4]
    52da:	42ab      	cmp	r3, r5
    52dc:	d905      	bls.n	52ea <_ZN8Tc5TimerD1Ev+0x1e>
        ListNode<T>* x = node;
        node = node->next;
    52de:	6846      	ldr	r6, [r0, #4]
    for (unsigned int i = 0; i < m_size; i++) {
    52e0:	3501      	adds	r5, #1
        delete x;
    52e2:	f000 f8db 	bl	549c <_ZdlPv>
        node = node->next;
    52e6:	0030      	movs	r0, r6
    52e8:	e7f6      	b.n	52d8 <_ZN8Tc5TimerD1Ev+0xc>
}
    52ea:	0020      	movs	r0, r4
    52ec:	bd70      	pop	{r4, r5, r6, pc}
	...

000052f0 <_GLOBAL__sub_I_TC5_Handler>:
Tc5Timer::Tc5Timer() : m_tickInterval(0)
    52f0:	2300      	movs	r3, #0

Tc5Timer x_tc5_tick;
    52f2:	b510      	push	{r4, lr}
Tc5Timer::Tc5Timer() : m_tickInterval(0)
    52f4:	4804      	ldr	r0, [pc, #16]	; (5308 <_GLOBAL__sub_I_TC5_Handler+0x18>)
Tc5Timer x_tc5_tick;
    52f6:	4a05      	ldr	r2, [pc, #20]	; (530c <_GLOBAL__sub_I_TC5_Handler+0x1c>)
m_size(0), m_head(NULL), m_tail(NULL)
    52f8:	6043      	str	r3, [r0, #4]
    52fa:	6083      	str	r3, [r0, #8]
    52fc:	60c3      	str	r3, [r0, #12]
    52fe:	4904      	ldr	r1, [pc, #16]	; (5310 <_GLOBAL__sub_I_TC5_Handler+0x20>)
Tc5Timer::Tc5Timer() : m_tickInterval(0)
    5300:	6003      	str	r3, [r0, #0]
Tc5Timer x_tc5_tick;
    5302:	f002 f89f 	bl	7444 <__aeabi_atexit>
    5306:	bd10      	pop	{r4, pc}
    5308:	2000062c 	.word	0x2000062c
    530c:	20000000 	.word	0x20000000
    5310:	000052cd 	.word	0x000052cd

00005314 <Dummy_Handler>:

/* Default empty handler */
void Dummy_Handler(void)
{
#if defined DEBUG
  __BKPT(3);
    5314:	be03      	bkpt	0x0003
    5316:	e7fe      	b.n	5316 <Dummy_Handler+0x2>

00005318 <USB_Handler>:

static void (*usb_isr)(void) = NULL;

void USB_Handler(void)
{
  if (usb_isr)
    5318:	4b03      	ldr	r3, [pc, #12]	; (5328 <USB_Handler+0x10>)
{
    531a:	b510      	push	{r4, lr}
  if (usb_isr)
    531c:	681b      	ldr	r3, [r3, #0]
    531e:	2b00      	cmp	r3, #0
    5320:	d000      	beq.n	5324 <USB_Handler+0xc>
    usb_isr();
    5322:	4798      	blx	r3
}
    5324:	bd10      	pop	{r4, pc}
    5326:	46c0      	nop			; (mov r8, r8)
    5328:	2000063c 	.word	0x2000063c

0000532c <Reset_Handler>:
{
    532c:	b570      	push	{r4, r5, r6, lr}
  if ((&__data_start__ != &__data_end__) && (pSrc != pDest)) {
    532e:	490f      	ldr	r1, [pc, #60]	; (536c <Reset_Handler+0x40>)
    5330:	4c0f      	ldr	r4, [pc, #60]	; (5370 <Reset_Handler+0x44>)
    5332:	42a1      	cmp	r1, r4
    5334:	d104      	bne.n	5340 <Reset_Handler+0x14>
  SystemInit();
    5336:	f000 f98f 	bl	5658 <SystemInit>
  main();
    533a:	f000 f88b 	bl	5454 <main>
    533e:	e7fe      	b.n	533e <Reset_Handler+0x12>
  if ((&__data_start__ != &__data_end__) && (pSrc != pDest)) {
    5340:	4d0c      	ldr	r5, [pc, #48]	; (5374 <Reset_Handler+0x48>)
    5342:	2300      	movs	r3, #0
    5344:	428d      	cmp	r5, r1
    5346:	d0f6      	beq.n	5336 <Reset_Handler+0xa>
    5348:	18ca      	adds	r2, r1, r3
    534a:	18e8      	adds	r0, r5, r3
    for (; pDest < &__data_end__; pDest++, pSrc++)
    534c:	42a2      	cmp	r2, r4
    534e:	d305      	bcc.n	535c <Reset_Handler+0x30>
  if ((&__data_start__ != &__data_end__) && (pSrc != pDest)) {
    5350:	4290      	cmp	r0, r2
    5352:	d0f0      	beq.n	5336 <Reset_Handler+0xa>
    5354:	4b08      	ldr	r3, [pc, #32]	; (5378 <Reset_Handler+0x4c>)
    for (pDest = &__bss_start__; pDest < &__bss_end__; pDest++)
    5356:	4909      	ldr	r1, [pc, #36]	; (537c <Reset_Handler+0x50>)
      *pDest = 0;
    5358:	2200      	movs	r2, #0
    535a:	e004      	b.n	5366 <Reset_Handler+0x3a>
      *pDest = *pSrc;
    535c:	6800      	ldr	r0, [r0, #0]
    535e:	3304      	adds	r3, #4
    5360:	6010      	str	r0, [r2, #0]
    5362:	e7f1      	b.n	5348 <Reset_Handler+0x1c>
      *pDest = 0;
    5364:	c304      	stmia	r3!, {r2}
    for (pDest = &__bss_start__; pDest < &__bss_end__; pDest++)
    5366:	428b      	cmp	r3, r1
    5368:	d3fc      	bcc.n	5364 <Reset_Handler+0x38>
    536a:	e7e4      	b.n	5336 <Reset_Handler+0xa>
    536c:	20000000 	.word	0x20000000
    5370:	200002b0 	.word	0x200002b0
    5374:	0000c0bc 	.word	0x0000c0bc
    5378:	200002b0 	.word	0x200002b0
    537c:	200010c8 	.word	0x200010c8

00005380 <SysTick_Handler>:
{
    5380:	b510      	push	{r4, lr}
  if (sysTickHook())
    5382:	f000 f864 	bl	544e <sysTickHook>
    5386:	2800      	cmp	r0, #0
    5388:	d101      	bne.n	538e <SysTick_Handler+0xe>
  SysTick_DefaultHandler();
    538a:	f000 f855 	bl	5438 <SysTick_DefaultHandler>
}
    538e:	bd10      	pop	{r4, pc}

00005390 <USB_SetHandler>:

void USB_SetHandler(void (*new_usb_isr)(void))
{
  usb_isr = new_usb_isr;
    5390:	4b01      	ldr	r3, [pc, #4]	; (5398 <USB_SetHandler+0x8>)
    5392:	6018      	str	r0, [r3, #0]
}
    5394:	4770      	bx	lr
    5396:	46c0      	nop			; (mov r8, r8)
    5398:	2000063c 	.word	0x2000063c

0000539c <millis>:
static volatile uint32_t _ulTickCount=0 ;

unsigned long millis( void )
{
// todo: ensure no interrupts
  return _ulTickCount ;
    539c:	4b01      	ldr	r3, [pc, #4]	; (53a4 <millis+0x8>)
    539e:	6818      	ldr	r0, [r3, #0]
}
    53a0:	4770      	bx	lr
    53a2:	46c0      	nop			; (mov r8, r8)
    53a4:	20000640 	.word	0x20000640

000053a8 <micros>:
// Interrupt-compatible version of micros
// Theory: repeatedly take readings of SysTick counter, millis counter and SysTick interrupt pending flag.
// When it appears that millis counter and pending is stable and SysTick hasn't rolled over, use these
// values to calculate micros. If there is a pending SysTick, add one to the millis counter in the calculation.
unsigned long micros( void )
{
    53a8:	b5f7      	push	{r0, r1, r2, r4, r5, r6, r7, lr}
  uint32_t pend, pend2;
  uint32_t count, count2;

  ticks2  = SysTick->VAL;
  pend2   = !!(SCB->ICSR & SCB_ICSR_PENDSTSET_Msk)  ;
  count2  = _ulTickCount ;
    53aa:	4813      	ldr	r0, [pc, #76]	; (53f8 <micros+0x50>)
  pend2   = !!(SCB->ICSR & SCB_ICSR_PENDSTSET_Msk)  ;
    53ac:	2201      	movs	r2, #1
  count2  = _ulTickCount ;
    53ae:	4684      	mov	ip, r0
  ticks2  = SysTick->VAL;
    53b0:	4912      	ldr	r1, [pc, #72]	; (53fc <micros+0x54>)
  pend2   = !!(SCB->ICSR & SCB_ICSR_PENDSTSET_Msk)  ;
    53b2:	4c13      	ldr	r4, [pc, #76]	; (5400 <micros+0x58>)
  ticks2  = SysTick->VAL;
    53b4:	688e      	ldr	r6, [r1, #8]
  pend2   = !!(SCB->ICSR & SCB_ICSR_PENDSTSET_Msk)  ;
    53b6:	6863      	ldr	r3, [r4, #4]
  count2  = _ulTickCount ;
    53b8:	6805      	ldr	r5, [r0, #0]
  pend2   = !!(SCB->ICSR & SCB_ICSR_PENDSTSET_Msk)  ;
    53ba:	0e9b      	lsrs	r3, r3, #26
    53bc:	4013      	ands	r3, r2
  {
    ticks=ticks2;
    pend=pend2;
    count=count2;
    ticks2  = SysTick->VAL;
    pend2   = !!(SCB->ICSR & SCB_ICSR_PENDSTSET_Msk)  ;
    53be:	9201      	str	r2, [sp, #4]
    ticks2  = SysTick->VAL;
    53c0:	6888      	ldr	r0, [r1, #8]
    pend2   = !!(SCB->ICSR & SCB_ICSR_PENDSTSET_Msk)  ;
    53c2:	6862      	ldr	r2, [r4, #4]
    53c4:	9f01      	ldr	r7, [sp, #4]
    53c6:	0e92      	lsrs	r2, r2, #26
    53c8:	403a      	ands	r2, r7
    count2  = _ulTickCount ;
    53ca:	4667      	mov	r7, ip
    53cc:	683f      	ldr	r7, [r7, #0]
  } while ((pend != pend2) || (count != count2) || (ticks < ticks2));
    53ce:	4293      	cmp	r3, r2
    53d0:	d10e      	bne.n	53f0 <micros+0x48>
    53d2:	42bd      	cmp	r5, r7
    53d4:	d10c      	bne.n	53f0 <micros+0x48>
    53d6:	4286      	cmp	r6, r0
    53d8:	d30a      	bcc.n	53f0 <micros+0x48>

  return ((count+pend) * 1000) + (((SysTick->LOAD  - ticks)*(1048576/(VARIANT_MCK/1000000)))>>20) ;
    53da:	195b      	adds	r3, r3, r5
    53dc:	25fa      	movs	r5, #250	; 0xfa
    53de:	6848      	ldr	r0, [r1, #4]
    53e0:	00ad      	lsls	r5, r5, #2
    53e2:	1b86      	subs	r6, r0, r6
    53e4:	4807      	ldr	r0, [pc, #28]	; (5404 <micros+0x5c>)
    53e6:	436b      	muls	r3, r5
    53e8:	4370      	muls	r0, r6
    53ea:	0d00      	lsrs	r0, r0, #20
    53ec:	18c0      	adds	r0, r0, r3
  // this is an optimization to turn a runtime division into two compile-time divisions and
  // a runtime multiplication and shift, saving a few cycles
}
    53ee:	bdfe      	pop	{r1, r2, r3, r4, r5, r6, r7, pc}
{
    53f0:	003d      	movs	r5, r7
    53f2:	0013      	movs	r3, r2
    53f4:	0006      	movs	r6, r0
    53f6:	e7e3      	b.n	53c0 <micros+0x18>
    53f8:	20000640 	.word	0x20000640
    53fc:	e000e010 	.word	0xe000e010
    5400:	e000ed00 	.word	0xe000ed00
    5404:	00005555 	.word	0x00005555

00005408 <delay>:

void delay( unsigned long ms )
{
    5408:	b570      	push	{r4, r5, r6, lr}
    540a:	1e04      	subs	r4, r0, #0
  if (ms == 0)
    540c:	d010      	beq.n	5430 <delay+0x28>
  {
    return;
  }

  uint32_t start = micros();
    540e:	f7ff ffcb 	bl	53a8 <micros>
    5412:	0005      	movs	r5, r0

  while (ms > 0)
  {
    yield();
    5414:	f000 f81a 	bl	544c <yield>
    while (ms > 0 && (micros() - start) >= 1000)
    5418:	f7ff ffc6 	bl	53a8 <micros>
    541c:	4b05      	ldr	r3, [pc, #20]	; (5434 <delay+0x2c>)
    541e:	1b40      	subs	r0, r0, r5
    5420:	4298      	cmp	r0, r3
    5422:	d9f7      	bls.n	5414 <delay+0xc>
    {
      ms--;
      start += 1000;
    5424:	23fa      	movs	r3, #250	; 0xfa
      ms--;
    5426:	3c01      	subs	r4, #1
      start += 1000;
    5428:	009b      	lsls	r3, r3, #2
    542a:	18ed      	adds	r5, r5, r3
    while (ms > 0 && (micros() - start) >= 1000)
    542c:	2c00      	cmp	r4, #0
    542e:	d1f3      	bne.n	5418 <delay+0x10>
    }
  }
}
    5430:	bd70      	pop	{r4, r5, r6, pc}
    5432:	46c0      	nop			; (mov r8, r8)
    5434:	000003e7 	.word	0x000003e7

00005438 <SysTick_DefaultHandler>:

#include "Reset.h" // for tickReset()

void SysTick_DefaultHandler(void)
{
    5438:	b510      	push	{r4, lr}
  // Increment tick count each ms
  _ulTickCount++;
    543a:	4a03      	ldr	r2, [pc, #12]	; (5448 <SysTick_DefaultHandler+0x10>)
    543c:	6813      	ldr	r3, [r2, #0]
    543e:	3301      	adds	r3, #1
    5440:	6013      	str	r3, [r2, #0]
  tickReset();
    5442:	f000 f8cd 	bl	55e0 <tickReset>
}
    5446:	bd10      	pop	{r4, pc}
    5448:	20000640 	.word	0x20000640

0000544c <yield>:
 * Its defined as a weak symbol and it can be redefined to implement a
 * real cooperative scheduler.
 */
static void __empty() {
	// Empty
}
    544c:	4770      	bx	lr

0000544e <sysTickHook>:
 * handler provided by Arduino.
 */
static int __false() {
	// Return false
	return 0;
}
    544e:	2000      	movs	r0, #0
    5450:	4770      	bx	lr
	...

00005454 <main>:

/*
 * \brief Main entry point of Arduino application
 */
int main( void )
{
    5454:	b510      	push	{r4, lr}
  init();
    5456:	f001 f9db 	bl	6810 <init>

  __libc_init_array();
    545a:	f003 ff4b 	bl	92f4 <__libc_init_array>

  initVariant();
    545e:	f001 fbb2 	bl	6bc6 <_Z11initVariantv>

  delay(1);
    5462:	2001      	movs	r0, #1
    5464:	f7ff ffd0 	bl	5408 <delay>
#if defined(USBCON)
  USBDevice.init();
    5468:	4c08      	ldr	r4, [pc, #32]	; (548c <main+0x38>)
    546a:	0020      	movs	r0, r4
    546c:	f000 fcb4 	bl	5dd8 <_ZN14USBDeviceClass4initEv>
  USBDevice.attach();
    5470:	0020      	movs	r0, r4
    5472:	f000 fd11 	bl	5e98 <_ZN14USBDeviceClass6attachEv>
#endif

  setup();
    5476:	f7ff fbc3 	bl	4c00 <setup>

  for (;;)
  {
    loop();
    547a:	f7ff fbf5 	bl	4c68 <loop>
    if (serialEventRun) serialEventRun();
    547e:	4b04      	ldr	r3, [pc, #16]	; (5490 <main+0x3c>)
    5480:	2b00      	cmp	r3, #0
    5482:	d0fa      	beq.n	547a <main+0x26>
    5484:	e000      	b.n	5488 <main+0x34>
    5486:	bf00      	nop
    5488:	e7f7      	b.n	547a <main+0x26>
    548a:	46c0      	nop			; (mov r8, r8)
    548c:	20000660 	.word	0x20000660
    5490:	00000000 	.word	0x00000000

00005494 <_Znwj>:
    5494:	b510      	push	{r4, lr}
    5496:	f003 ff55 	bl	9344 <malloc>
    549a:	bd10      	pop	{r4, pc}

0000549c <_ZdlPv>:
    549c:	b510      	push	{r4, lr}
    549e:	f003 ff5b 	bl	9358 <free>
    54a2:	bd10      	pop	{r4, pc}

000054a4 <_ZN5Print5writeEPKhj>:

// Public Methods //////////////////////////////////////////////////////////////

/* default implementation: may be overridden */
size_t Print::write(const uint8_t *buffer, size_t size)
{
    54a4:	b5f7      	push	{r0, r1, r2, r4, r5, r6, r7, lr}
    54a6:	0006      	movs	r6, r0
    54a8:	000d      	movs	r5, r1
    54aa:	000c      	movs	r4, r1
    54ac:	188b      	adds	r3, r1, r2
    54ae:	9301      	str	r3, [sp, #4]
  size_t n = 0;
  while (size--) {
    54b0:	9b01      	ldr	r3, [sp, #4]
    54b2:	1b67      	subs	r7, r4, r5
    54b4:	429c      	cmp	r4, r3
    54b6:	d007      	beq.n	54c8 <_ZN5Print5writeEPKhj+0x24>
    if (write(*buffer++)) n++;
    54b8:	6833      	ldr	r3, [r6, #0]
    54ba:	7821      	ldrb	r1, [r4, #0]
    54bc:	681b      	ldr	r3, [r3, #0]
    54be:	0030      	movs	r0, r6
    54c0:	4798      	blx	r3
    54c2:	3401      	adds	r4, #1
    54c4:	2800      	cmp	r0, #0
    54c6:	d1f3      	bne.n	54b0 <_ZN5Print5writeEPKhj+0xc>
    else break;
  }
  return n;
}
    54c8:	0038      	movs	r0, r7
    54ca:	bdfe      	pop	{r1, r2, r3, r4, r5, r6, r7, pc}

000054cc <_ZN5Print5writeEPKc>:

    int getWriteError() { return write_error; }
    void clearWriteError() { setWriteError(0); }

    virtual size_t write(uint8_t) = 0;
    size_t write(const char *str) {
    54cc:	b570      	push	{r4, r5, r6, lr}
    54ce:	0005      	movs	r5, r0
    54d0:	000c      	movs	r4, r1
      if (str == NULL) return 0;
    54d2:	1e08      	subs	r0, r1, #0
    54d4:	d007      	beq.n	54e6 <_ZN5Print5writeEPKc+0x1a>
      return write((const uint8_t *)str, strlen(str));
    54d6:	f004 fceb 	bl	9eb0 <strlen>
    54da:	682b      	ldr	r3, [r5, #0]
    54dc:	0002      	movs	r2, r0
    54de:	685b      	ldr	r3, [r3, #4]
    54e0:	0021      	movs	r1, r4
    54e2:	0028      	movs	r0, r5
    54e4:	4798      	blx	r3
    }
    54e6:	bd70      	pop	{r4, r5, r6, pc}

000054e8 <_ZN5Print5printERK6String>:
{
  return print(reinterpret_cast<const char *>(ifsh));
}

size_t Print::print(const String &s)
{
    54e8:	b510      	push	{r4, lr}
    virtual size_t write(const uint8_t *buffer, size_t size);
    size_t write(const char *buffer, size_t size) {
      return write((const uint8_t *)buffer, size);
    54ea:	6803      	ldr	r3, [r0, #0]
    54ec:	688a      	ldr	r2, [r1, #8]
    54ee:	685b      	ldr	r3, [r3, #4]
    54f0:	6809      	ldr	r1, [r1, #0]
    54f2:	4798      	blx	r3
  return write(s.c_str(), s.length());
}
    54f4:	bd10      	pop	{r4, pc}

000054f6 <_ZN5Print5printEPKc>:

size_t Print::print(const char str[])
{
    54f6:	b510      	push	{r4, lr}
  return write(str);
    54f8:	f7ff ffe8 	bl	54cc <_ZN5Print5writeEPKc>
}
    54fc:	bd10      	pop	{r4, pc}
	...

00005500 <_ZN5Print7printlnEv>:
{
  return x.printTo(*this);
}

size_t Print::println(void)
{
    5500:	b510      	push	{r4, lr}
  return write("\r\n");
    5502:	4902      	ldr	r1, [pc, #8]	; (550c <_ZN5Print7printlnEv+0xc>)
    5504:	f7ff ffe2 	bl	54cc <_ZN5Print5writeEPKc>
}
    5508:	bd10      	pop	{r4, pc}
    550a:	46c0      	nop			; (mov r8, r8)
    550c:	0000b9cb 	.word	0x0000b9cb

00005510 <_ZN5Print7printlnERK6String>:

size_t Print::println(const String &s)
{
    5510:	b570      	push	{r4, r5, r6, lr}
    5512:	0005      	movs	r5, r0
  size_t n = print(s);
    5514:	f7ff ffe8 	bl	54e8 <_ZN5Print5printERK6String>
    5518:	0004      	movs	r4, r0
  n += println();
    551a:	0028      	movs	r0, r5
    551c:	f7ff fff0 	bl	5500 <_ZN5Print7printlnEv>
    5520:	1820      	adds	r0, r4, r0
  return n;
}
    5522:	bd70      	pop	{r4, r5, r6, pc}

00005524 <_ZN5Print7printlnEPKc>:

size_t Print::println(const char c[])
{
    5524:	b570      	push	{r4, r5, r6, lr}
    5526:	0004      	movs	r4, r0
  return write(str);
    5528:	f7ff ffd0 	bl	54cc <_ZN5Print5writeEPKc>
    552c:	0005      	movs	r5, r0
  size_t n = print(c);
  n += println();
    552e:	0020      	movs	r0, r4
    5530:	f7ff ffe6 	bl	5500 <_ZN5Print7printlnEv>
    5534:	1940      	adds	r0, r0, r5
  return n;
}
    5536:	bd70      	pop	{r4, r5, r6, pc}

00005538 <_ZN5Print11printNumberEmh>:
}

// Private Methods /////////////////////////////////////////////////////////////

size_t Print::printNumber(unsigned long n, uint8_t base)
{
    5538:	b5f0      	push	{r4, r5, r6, r7, lr}
    553a:	0016      	movs	r6, r2
  char buf[8 * sizeof(long) + 1]; // Assumes 8-bit chars plus zero byte.
  char *str = &buf[sizeof(buf) - 1];

  *str = '\0';
    553c:	2200      	movs	r2, #0
{
    553e:	b08d      	sub	sp, #52	; 0x34
  *str = '\0';
    5540:	ab02      	add	r3, sp, #8
    5542:	3305      	adds	r3, #5
{
    5544:	9001      	str	r0, [sp, #4]
    5546:	000d      	movs	r5, r1
  *str = '\0';
    5548:	77da      	strb	r2, [r3, #31]

  // prevent crash if called with base == 1
  if (base < 2) base = 10;
    554a:	2e01      	cmp	r6, #1
    554c:	dc00      	bgt.n	5550 <_ZN5Print11printNumberEmh+0x18>
    554e:	260a      	movs	r6, #10
    5550:	ac0b      	add	r4, sp, #44	; 0x2c

  do {
    char c = n % base;
    5552:	0028      	movs	r0, r5
    5554:	0031      	movs	r1, r6
    5556:	f002 f80d 	bl	7574 <__aeabi_uidivmod>
    555a:	000f      	movs	r7, r1
    555c:	b2cb      	uxtb	r3, r1
    n /= base;
    555e:	0028      	movs	r0, r5
    5560:	0031      	movs	r1, r6
    char c = n % base;
    5562:	9300      	str	r3, [sp, #0]
    n /= base;
    5564:	f001 ff80 	bl	7468 <__udivsi3>

    *--str = c < 10 ? c + '0' : c + 'A' - 10;
    5568:	b2fb      	uxtb	r3, r7
    556a:	3337      	adds	r3, #55	; 0x37
    n /= base;
    556c:	0005      	movs	r5, r0
    *--str = c < 10 ? c + '0' : c + 'A' - 10;
    556e:	3c01      	subs	r4, #1
    5570:	b2db      	uxtb	r3, r3
    5572:	2f09      	cmp	r7, #9
    5574:	d802      	bhi.n	557c <_ZN5Print11printNumberEmh+0x44>
    5576:	9b00      	ldr	r3, [sp, #0]
    5578:	3330      	adds	r3, #48	; 0x30
    557a:	b2db      	uxtb	r3, r3
    557c:	7023      	strb	r3, [r4, #0]
  } while(n);
    557e:	2d00      	cmp	r5, #0
    5580:	d1e7      	bne.n	5552 <_ZN5Print11printNumberEmh+0x1a>

  return write(str);
    5582:	0021      	movs	r1, r4
    5584:	9801      	ldr	r0, [sp, #4]
    5586:	f7ff ffa1 	bl	54cc <_ZN5Print5writeEPKc>
}
    558a:	b00d      	add	sp, #52	; 0x34
    558c:	bdf0      	pop	{r4, r5, r6, r7, pc}

0000558e <_ZN5Print5printEmi>:
{
    558e:	b510      	push	{r4, lr}
  if (base == 0) return write(n);
    5590:	2a00      	cmp	r2, #0
    5592:	d104      	bne.n	559e <_ZN5Print5printEmi+0x10>
    5594:	6803      	ldr	r3, [r0, #0]
    5596:	b2c9      	uxtb	r1, r1
    5598:	681b      	ldr	r3, [r3, #0]
    559a:	4798      	blx	r3
}
    559c:	bd10      	pop	{r4, pc}
  else return printNumber(n, base);
    559e:	b2d2      	uxtb	r2, r2
    55a0:	f7ff ffca 	bl	5538 <_ZN5Print11printNumberEmh>
    55a4:	e7fa      	b.n	559c <_ZN5Print5printEmi+0xe>

000055a6 <_ZN5Print5printEhi>:
{
    55a6:	b510      	push	{r4, lr}
  return print((unsigned long) b, base);
    55a8:	f7ff fff1 	bl	558e <_ZN5Print5printEmi>
}
    55ac:	bd10      	pop	{r4, pc}

000055ae <_ZN5Print7printlnEhi>:
{
    55ae:	b570      	push	{r4, r5, r6, lr}
    55b0:	0004      	movs	r4, r0
  return print((unsigned long) b, base);
    55b2:	f7ff ffec 	bl	558e <_ZN5Print5printEmi>
    55b6:	0005      	movs	r5, r0
  n += println();
    55b8:	0020      	movs	r0, r4
    55ba:	f7ff ffa1 	bl	5500 <_ZN5Print7printlnEv>
    55be:	1940      	adds	r0, r0, r5
}
    55c0:	bd70      	pop	{r4, r5, r6, pc}
	...

000055c4 <initiateReset>:
}

static int ticks = -1;

void initiateReset(int _ticks) {
	ticks = _ticks;
    55c4:	4b01      	ldr	r3, [pc, #4]	; (55cc <initiateReset+0x8>)
    55c6:	6018      	str	r0, [r3, #0]
}
    55c8:	4770      	bx	lr
    55ca:	46c0      	nop			; (mov r8, r8)
    55cc:	20000008 	.word	0x20000008

000055d0 <cancelReset>:

void cancelReset() {
	ticks = -1;
    55d0:	2201      	movs	r2, #1
    55d2:	4b02      	ldr	r3, [pc, #8]	; (55dc <cancelReset+0xc>)
    55d4:	4252      	negs	r2, r2
    55d6:	601a      	str	r2, [r3, #0]
}
    55d8:	4770      	bx	lr
    55da:	46c0      	nop			; (mov r8, r8)
    55dc:	20000008 	.word	0x20000008

000055e0 <tickReset>:

void tickReset() {
	if (ticks == -1)
    55e0:	4a16      	ldr	r2, [pc, #88]	; (563c <tickReset+0x5c>)
void tickReset() {
    55e2:	b510      	push	{r4, lr}
	if (ticks == -1)
    55e4:	6813      	ldr	r3, [r2, #0]
    55e6:	1c59      	adds	r1, r3, #1
    55e8:	d027      	beq.n	563a <tickReset+0x5a>
		return;
	ticks--;
    55ea:	3b01      	subs	r3, #1
    55ec:	6013      	str	r3, [r2, #0]
	if (ticks == 0)
    55ee:	2b00      	cmp	r3, #0
    55f0:	d123      	bne.n	563a <tickReset+0x5a>
  __ASM volatile ("cpsid i" : : : "memory");
    55f2:	b672      	cpsid	i
	if (APP_START < (0x200 + 4)) {
    55f4:	4b12      	ldr	r3, [pc, #72]	; (5640 <tickReset+0x60>)
    55f6:	4a13      	ldr	r2, [pc, #76]	; (5644 <tickReset+0x64>)
    55f8:	3304      	adds	r3, #4
    55fa:	4293      	cmp	r3, r2
    55fc:	d808      	bhi.n	5610 <tickReset+0x30>
  __ASM volatile ("dsb 0xF":::"memory");
    55fe:	f3bf 8f4f 	dsb	sy
 */
__STATIC_INLINE void NVIC_SystemReset(void)
{
  __DSB();                                                          /* Ensure all outstanding memory accesses included
                                                                       buffered write are completed before reset */
  SCB->AIRCR  = ((0x5FAUL << SCB_AIRCR_VECTKEY_Pos) |
    5602:	4a11      	ldr	r2, [pc, #68]	; (5648 <tickReset+0x68>)
    5604:	4b11      	ldr	r3, [pc, #68]	; (564c <tickReset+0x6c>)
    5606:	60da      	str	r2, [r3, #12]
    5608:	f3bf 8f4f 	dsb	sy
                 SCB_AIRCR_SYSRESETREQ_Msk);
  __DSB();                                                          /* Ensure completion of memory access */

  for(;;)                                                           /* wait until reset */
  {
    __NOP();
    560c:	46c0      	nop			; (mov r8, r8)
    560e:	e7fd      	b.n	560c <tickReset+0x2c>
        return NVMCTRL->INTFLAG.reg & NVMCTRL_INTFLAG_READY;
    5610:	4a0f      	ldr	r2, [pc, #60]	; (5650 <tickReset+0x70>)
	while (!nvmReady())
    5612:	2101      	movs	r1, #1
    5614:	0010      	movs	r0, r2
        return NVMCTRL->INTFLAG.reg & NVMCTRL_INTFLAG_READY;
    5616:	7d14      	ldrb	r4, [r2, #20]
	while (!nvmReady())
    5618:	420c      	tst	r4, r1
    561a:	d0fc      	beq.n	5616 <tickReset+0x36>
	NVMCTRL->STATUS.reg |= NVMCTRL_STATUS_MASK;
    561c:	2120      	movs	r1, #32
    561e:	8b14      	ldrh	r4, [r2, #24]
    5620:	31ff      	adds	r1, #255	; 0xff
	NVMCTRL->ADDR.reg  = (uintptr_t)&NVM_MEMORY[APP_START / 4];
    5622:	089b      	lsrs	r3, r3, #2
    5624:	005b      	lsls	r3, r3, #1
	NVMCTRL->STATUS.reg |= NVMCTRL_STATUS_MASK;
    5626:	4321      	orrs	r1, r4
    5628:	8311      	strh	r1, [r2, #24]
	NVMCTRL->ADDR.reg  = (uintptr_t)&NVM_MEMORY[APP_START / 4];
    562a:	61d3      	str	r3, [r2, #28]
	NVMCTRL->CTRLA.reg = NVMCTRL_CTRLA_CMD_ER | NVMCTRL_CTRLA_CMDEX_KEY;
    562c:	4b09      	ldr	r3, [pc, #36]	; (5654 <tickReset+0x74>)
    562e:	8013      	strh	r3, [r2, #0]
	while (!nvmReady())
    5630:	2301      	movs	r3, #1
        return NVMCTRL->INTFLAG.reg & NVMCTRL_INTFLAG_READY;
    5632:	7d02      	ldrb	r2, [r0, #20]
	while (!nvmReady())
    5634:	421a      	tst	r2, r3
    5636:	d0fc      	beq.n	5632 <tickReset+0x52>
    5638:	e7e1      	b.n	55fe <tickReset+0x1e>
		banzai();
}
    563a:	bd10      	pop	{r4, pc}
    563c:	20000008 	.word	0x20000008
    5640:	00002000 	.word	0x00002000
    5644:	00000203 	.word	0x00000203
    5648:	05fa0004 	.word	0x05fa0004
    564c:	e000ed00 	.word	0xe000ed00
    5650:	41004000 	.word	0x41004000
    5654:	ffffa502 	.word	0xffffa502

00005658 <SystemInit>:
#define GENERIC_CLOCK_MULTIPLEXER_DFLL48M (0u)

void SystemInit( void )
{
  /* Set 1 Flash Wait State for 48MHz, cf tables 20.9 and 35.27 in SAMD21 Datasheet */
  NVMCTRL->CTRLB.bit.RWS = NVMCTRL_CTRLB_RWS_HALF_Val ;
    5658:	221e      	movs	r2, #30
{
    565a:	b570      	push	{r4, r5, r6, lr}
  NVMCTRL->CTRLB.bit.RWS = NVMCTRL_CTRLB_RWS_HALF_Val ;
    565c:	4846      	ldr	r0, [pc, #280]	; (5778 <SystemInit+0x120>)

  /* Turn on the digital interface clock */
  PM->APBAMASK.reg |= PM_APBAMASK_GCLK ;
    565e:	4947      	ldr	r1, [pc, #284]	; (577c <SystemInit+0x124>)
  NVMCTRL->CTRLB.bit.RWS = NVMCTRL_CTRLB_RWS_HALF_Val ;
    5660:	6843      	ldr	r3, [r0, #4]
    5662:	4393      	bics	r3, r2
    5664:	3a1c      	subs	r2, #28
    5666:	4313      	orrs	r3, r2
    5668:	6043      	str	r3, [r0, #4]
  PM->APBAMASK.reg |= PM_APBAMASK_GCLK ;
    566a:	2308      	movs	r3, #8
    566c:	698c      	ldr	r4, [r1, #24]
    566e:	4323      	orrs	r3, r4
    5670:	618b      	str	r3, [r1, #24]
#else // has crystal

  /* ----------------------------------------------------------------------------------------------
   * 1) Enable XOSC32K clock (External on-board 32.768Hz oscillator)
   */
  SYSCTRL->XOSC32K.reg = SYSCTRL_XOSC32K_STARTUP( 0x6u ) | /* cf table 15.10 of product datasheet in chapter 15.8.6 */
    5672:	4c43      	ldr	r4, [pc, #268]	; (5780 <SystemInit+0x128>)
    5674:	4b43      	ldr	r3, [pc, #268]	; (5784 <SystemInit+0x12c>)
    5676:	829c      	strh	r4, [r3, #20]
                         SYSCTRL_XOSC32K_XTALEN | SYSCTRL_XOSC32K_EN32K ;
  SYSCTRL->XOSC32K.bit.ENABLE = 1 ; /* separate call, as described in chapter 15.6.3 */
    5678:	8a9c      	ldrh	r4, [r3, #20]
    567a:	4314      	orrs	r4, r2
    567c:	829c      	strh	r4, [r3, #20]

  while ( (SYSCTRL->PCLKSR.reg & SYSCTRL_PCLKSR_XOSC32KRDY) == 0 )
    567e:	68dc      	ldr	r4, [r3, #12]
    5680:	4214      	tst	r4, r2
    5682:	d0fc      	beq.n	567e <SystemInit+0x26>

  /* Software reset the module to ensure it is re-initialized correctly */
  /* Note: Due to synchronization, there is a delay from writing CTRL.SWRST until the reset is complete.
   * CTRL.SWRST and STATUS.SYNCBUSY will both be cleared when the reset is complete, as described in chapter 13.8.1
   */
  GCLK->CTRL.reg = GCLK_CTRL_SWRST ;
    5684:	2401      	movs	r4, #1
    5686:	4a40      	ldr	r2, [pc, #256]	; (5788 <SystemInit+0x130>)
    5688:	7014      	strb	r4, [r2, #0]

  while ( (GCLK->CTRL.reg & GCLK_CTRL_SWRST) && (GCLK->STATUS.reg & GCLK_STATUS_SYNCBUSY) )
    568a:	7815      	ldrb	r5, [r2, #0]
    568c:	4225      	tst	r5, r4
    568e:	d003      	beq.n	5698 <SystemInit+0x40>
    5690:	7855      	ldrb	r5, [r2, #1]
    5692:	b26d      	sxtb	r5, r5
    5694:	2d00      	cmp	r5, #0
    5696:	dbf8      	blt.n	568a <SystemInit+0x32>
  }

  /* ----------------------------------------------------------------------------------------------
   * 2) Put XOSC32K as source of Generic Clock Generator 1
   */
  GCLK->GENDIV.reg = GCLK_GENDIV_ID( GENERIC_CLOCK_GENERATOR_XOSC32K ) ; // Generic Clock Generator 1
    5698:	2401      	movs	r4, #1
    569a:	6094      	str	r4, [r2, #8]

  while ( GCLK->STATUS.reg & GCLK_STATUS_SYNCBUSY )
    569c:	7854      	ldrb	r4, [r2, #1]
    569e:	b264      	sxtb	r4, r4
    56a0:	2c00      	cmp	r4, #0
    56a2:	dbfb      	blt.n	569c <SystemInit+0x44>
  {
    /* Wait for synchronization */
  }

  /* Write Generic Clock Generator 1 configuration */
  GCLK->GENCTRL.reg = GCLK_GENCTRL_ID( GENERIC_CLOCK_GENERATOR_OSC32K ) | // Generic Clock Generator 1
    56a4:	4c39      	ldr	r4, [pc, #228]	; (578c <SystemInit+0x134>)
    56a6:	6054      	str	r4, [r2, #4]
                      GCLK_GENCTRL_SRC_XOSC32K | // Selected source is External 32KHz Oscillator
#endif
//                      GCLK_GENCTRL_OE | // Output clock to a pin for tests
                      GCLK_GENCTRL_GENEN ;

  while ( GCLK->STATUS.reg & GCLK_STATUS_SYNCBUSY )
    56a8:	7854      	ldrb	r4, [r2, #1]
    56aa:	b264      	sxtb	r4, r4
    56ac:	2c00      	cmp	r4, #0
    56ae:	dbfb      	blt.n	56a8 <SystemInit+0x50>
  }

  /* ----------------------------------------------------------------------------------------------
   * 3) Put Generic Clock Generator 1 as source for Generic Clock Multiplexer 0 (DFLL48M reference)
   */
  GCLK->CLKCTRL.reg = GCLK_CLKCTRL_ID( GENERIC_CLOCK_MULTIPLEXER_DFLL48M ) | // Generic Clock Multiplexer 0
    56b0:	2482      	movs	r4, #130	; 0x82
    56b2:	01e4      	lsls	r4, r4, #7
    56b4:	8054      	strh	r4, [r2, #2]
                      GCLK_CLKCTRL_GEN_GCLK1 | // Generic Clock Generator 1 is source
                      GCLK_CLKCTRL_CLKEN ;

  while ( GCLK->STATUS.reg & GCLK_STATUS_SYNCBUSY )
    56b6:	7854      	ldrb	r4, [r2, #1]
    56b8:	b264      	sxtb	r4, r4
    56ba:	2c00      	cmp	r4, #0
    56bc:	dbfb      	blt.n	56b6 <SystemInit+0x5e>
   */

  /* DFLL Configuration in Closed Loop mode, cf product datasheet chapter 15.6.7.1 - Closed-Loop Operation */

  /* Remove the OnDemand mode, Bug http://avr32.icgroup.norway.atmel.com/bugzilla/show_bug.cgi?id=9905 */
  SYSCTRL->DFLLCTRL.reg = SYSCTRL_DFLLCTRL_ENABLE;
    56be:	2402      	movs	r4, #2
    56c0:	849c      	strh	r4, [r3, #36]	; 0x24

  while ( (SYSCTRL->PCLKSR.reg & SYSCTRL_PCLKSR_DFLLRDY) == 0 )
    56c2:	340e      	adds	r4, #14
    56c4:	68dd      	ldr	r5, [r3, #12]
    56c6:	4225      	tst	r5, r4
    56c8:	d0fc      	beq.n	56c4 <SystemInit+0x6c>
  {
    /* Wait for synchronization */
  }

  SYSCTRL->DFLLMUL.reg = SYSCTRL_DFLLMUL_CSTEP( 31 ) | // Coarse step is 31, half of the max value
    56ca:	4c31      	ldr	r4, [pc, #196]	; (5790 <SystemInit+0x138>)
    56cc:	62dc      	str	r4, [r3, #44]	; 0x2c
                         SYSCTRL_DFLLMUL_FSTEP( 511 ) | // Fine step is 511, half of the max value
                         SYSCTRL_DFLLMUL_MUL( (VARIANT_MCK + VARIANT_MAINOSC/2) / VARIANT_MAINOSC ) ; // External 32KHz is the reference

  while ( (SYSCTRL->PCLKSR.reg & SYSCTRL_PCLKSR_DFLLRDY) == 0 )
    56ce:	2410      	movs	r4, #16
    56d0:	68dd      	ldr	r5, [r3, #12]
    56d2:	4225      	tst	r5, r4
    56d4:	d0fc      	beq.n	56d0 <SystemInit+0x78>
  SYSCTRL->DFLLCTRL.reg |= SYSCTRL_DFLLCTRL_ENABLE ;

#else   // has crystal

  /* Write full configuration to DFLL control register */
  SYSCTRL->DFLLCTRL.reg |= SYSCTRL_DFLLCTRL_MODE | /* Enable the closed loop mode */
    56d6:	8c9d      	ldrh	r5, [r3, #36]	; 0x24
    56d8:	4c2e      	ldr	r4, [pc, #184]	; (5794 <SystemInit+0x13c>)
    56da:	432c      	orrs	r4, r5
    56dc:	849c      	strh	r4, [r3, #36]	; 0x24
                           SYSCTRL_DFLLCTRL_WAITLOCK |
                           SYSCTRL_DFLLCTRL_QLDIS ; /* Disable Quick lock */

  while ( (SYSCTRL->PCLKSR.reg & SYSCTRL_PCLKSR_DFLLRDY) == 0 )
    56de:	2410      	movs	r4, #16
    56e0:	68dd      	ldr	r5, [r3, #12]
    56e2:	4225      	tst	r5, r4
    56e4:	d0fc      	beq.n	56e0 <SystemInit+0x88>
  {
    /* Wait for synchronization */
  }

  /* Enable the DFLL */
  SYSCTRL->DFLLCTRL.reg |= SYSCTRL_DFLLCTRL_ENABLE ;
    56e6:	2402      	movs	r4, #2
    56e8:	8c9d      	ldrh	r5, [r3, #36]	; 0x24

  while ( (SYSCTRL->PCLKSR.reg & SYSCTRL_PCLKSR_DFLLLCKC) == 0 ||
    56ea:	2680      	movs	r6, #128	; 0x80
  SYSCTRL->DFLLCTRL.reg |= SYSCTRL_DFLLCTRL_ENABLE ;
    56ec:	432c      	orrs	r4, r5
    56ee:	849c      	strh	r4, [r3, #36]	; 0x24
          (SYSCTRL->PCLKSR.reg & SYSCTRL_PCLKSR_DFLLLCKF) == 0 )
    56f0:	2440      	movs	r4, #64	; 0x40
  while ( (SYSCTRL->PCLKSR.reg & SYSCTRL_PCLKSR_DFLLLCKC) == 0 ||
    56f2:	68dd      	ldr	r5, [r3, #12]
    56f4:	4235      	tst	r5, r6
    56f6:	d0fc      	beq.n	56f2 <SystemInit+0x9a>
          (SYSCTRL->PCLKSR.reg & SYSCTRL_PCLKSR_DFLLLCKF) == 0 )
    56f8:	68dd      	ldr	r5, [r3, #12]
  while ( (SYSCTRL->PCLKSR.reg & SYSCTRL_PCLKSR_DFLLLCKC) == 0 ||
    56fa:	4225      	tst	r5, r4
    56fc:	d0f9      	beq.n	56f2 <SystemInit+0x9a>
    /* Wait for locks flags */
  }

#endif

  while ( (SYSCTRL->PCLKSR.reg & SYSCTRL_PCLKSR_DFLLRDY) == 0 )
    56fe:	2410      	movs	r4, #16
    5700:	68dd      	ldr	r5, [r3, #12]
    5702:	4225      	tst	r5, r4
    5704:	d0fc      	beq.n	5700 <SystemInit+0xa8>
  }

  /* ----------------------------------------------------------------------------------------------
   * 5) Switch Generic Clock Generator 0 to DFLL48M. CPU will run at 48MHz.
   */
  GCLK->GENDIV.reg = GCLK_GENDIV_ID( GENERIC_CLOCK_GENERATOR_MAIN ) ; // Generic Clock Generator 0
    5706:	2400      	movs	r4, #0
    5708:	6094      	str	r4, [r2, #8]

  while ( GCLK->STATUS.reg & GCLK_STATUS_SYNCBUSY )
    570a:	7854      	ldrb	r4, [r2, #1]
    570c:	b264      	sxtb	r4, r4
    570e:	2c00      	cmp	r4, #0
    5710:	dbfb      	blt.n	570a <SystemInit+0xb2>
  {
    /* Wait for synchronization */
  }

  /* Write Generic Clock Generator 0 configuration */
  GCLK->GENCTRL.reg = GCLK_GENCTRL_ID( GENERIC_CLOCK_GENERATOR_MAIN ) | // Generic Clock Generator 0
    5712:	4c21      	ldr	r4, [pc, #132]	; (5798 <SystemInit+0x140>)
    5714:	6054      	str	r4, [r2, #4]
                      GCLK_GENCTRL_SRC_DFLL48M | // Selected source is DFLL 48MHz
//                      GCLK_GENCTRL_OE | // Output clock to a pin for tests
                      GCLK_GENCTRL_IDC | // Set 50/50 duty cycle
                      GCLK_GENCTRL_GENEN ;

  while ( GCLK->STATUS.reg & GCLK_STATUS_SYNCBUSY )
    5716:	7854      	ldrb	r4, [r2, #1]
    5718:	b264      	sxtb	r4, r4
    571a:	2c00      	cmp	r4, #0
    571c:	dbfb      	blt.n	5716 <SystemInit+0xbe>
  }

  /* ----------------------------------------------------------------------------------------------
   * 6) Modify PRESCaler value of OSC8M to have 8MHz
   */
  SYSCTRL->OSC8M.bit.PRESC = SYSCTRL_OSC8M_PRESC_0_Val ;  //CMSIS 4.5 changed the prescaler defines
    571e:	6a1c      	ldr	r4, [r3, #32]
    5720:	4d1e      	ldr	r5, [pc, #120]	; (579c <SystemInit+0x144>)
    5722:	402c      	ands	r4, r5
  SYSCTRL->OSC8M.bit.ONDEMAND = 0 ;
    5724:	2580      	movs	r5, #128	; 0x80
  SYSCTRL->OSC8M.bit.PRESC = SYSCTRL_OSC8M_PRESC_0_Val ;  //CMSIS 4.5 changed the prescaler defines
    5726:	621c      	str	r4, [r3, #32]
  SYSCTRL->OSC8M.bit.ONDEMAND = 0 ;
    5728:	6a1c      	ldr	r4, [r3, #32]
    572a:	43ac      	bics	r4, r5
    572c:	621c      	str	r4, [r3, #32]

  /* ----------------------------------------------------------------------------------------------
   * 7) Put OSC8M as source for Generic Clock Generator 3
   */
  GCLK->GENDIV.reg = GCLK_GENDIV_ID( GENERIC_CLOCK_GENERATOR_OSC8M ) ; // Generic Clock Generator 3
    572e:	2303      	movs	r3, #3
    5730:	6093      	str	r3, [r2, #8]

  /* Write Generic Clock Generator 3 configuration */
  GCLK->GENCTRL.reg = GCLK_GENCTRL_ID( GENERIC_CLOCK_GENERATOR_OSC8M ) | // Generic Clock Generator 3
    5732:	4b1b      	ldr	r3, [pc, #108]	; (57a0 <SystemInit+0x148>)
    5734:	6053      	str	r3, [r2, #4]
                      GCLK_GENCTRL_SRC_OSC8M | // Selected source is RC OSC 8MHz (already enabled at reset)
//                      GCLK_GENCTRL_OE | // Output clock to a pin for tests
                      GCLK_GENCTRL_GENEN ;

  while ( GCLK->STATUS.reg & GCLK_STATUS_SYNCBUSY )
    5736:	7853      	ldrb	r3, [r2, #1]
    5738:	b25b      	sxtb	r3, r3
    573a:	2b00      	cmp	r3, #0
    573c:	dbfb      	blt.n	5736 <SystemInit+0xde>

  /*
   * Now that all system clocks are configured, we can set CPU and APBx BUS clocks.
   * There values are normally the one present after Reset.
   */
  PM->CPUSEL.reg  = PM_CPUSEL_CPUDIV_DIV1 ;
    573e:	2300      	movs	r3, #0

  // ADC Linearity bits 4:0
  uint32_t linearity = (*((uint32_t *) ADC_FUSES_LINEARITY_0_ADDR) & ADC_FUSES_LINEARITY_0_Msk) >> ADC_FUSES_LINEARITY_0_Pos;

  // ADC Linearity bits 7:5
  linearity |= ((*((uint32_t *) ADC_FUSES_LINEARITY_1_ADDR) & ADC_FUSES_LINEARITY_1_Msk) >> ADC_FUSES_LINEARITY_1_Pos) << 5;
    5740:	24ff      	movs	r4, #255	; 0xff
  PM->CPUSEL.reg  = PM_CPUSEL_CPUDIV_DIV1 ;
    5742:	720b      	strb	r3, [r1, #8]
  SystemCoreClock=VARIANT_MCK ;
    5744:	4a17      	ldr	r2, [pc, #92]	; (57a4 <SystemInit+0x14c>)
  PM->APBASEL.reg = PM_APBASEL_APBADIV_DIV1_Val ;
    5746:	724b      	strb	r3, [r1, #9]
  PM->APBBSEL.reg = PM_APBBSEL_APBBDIV_DIV1_Val ;
    5748:	728b      	strb	r3, [r1, #10]
  PM->APBCSEL.reg = PM_APBCSEL_APBCDIV_DIV1_Val ;
    574a:	72cb      	strb	r3, [r1, #11]
  SystemCoreClock=VARIANT_MCK ;
    574c:	4b16      	ldr	r3, [pc, #88]	; (57a8 <SystemInit+0x150>)
    574e:	601a      	str	r2, [r3, #0]
  uint32_t bias = (*((uint32_t *) ADC_FUSES_BIASCAL_ADDR) & ADC_FUSES_BIASCAL_Msk) >> ADC_FUSES_BIASCAL_Pos;
    5750:	4b16      	ldr	r3, [pc, #88]	; (57ac <SystemInit+0x154>)
  uint32_t linearity = (*((uint32_t *) ADC_FUSES_LINEARITY_0_ADDR) & ADC_FUSES_LINEARITY_0_Msk) >> ADC_FUSES_LINEARITY_0_Pos;
    5752:	4a17      	ldr	r2, [pc, #92]	; (57b0 <SystemInit+0x158>)
  uint32_t bias = (*((uint32_t *) ADC_FUSES_BIASCAL_ADDR) & ADC_FUSES_BIASCAL_Msk) >> ADC_FUSES_BIASCAL_Pos;
    5754:	681b      	ldr	r3, [r3, #0]
  uint32_t linearity = (*((uint32_t *) ADC_FUSES_LINEARITY_0_ADDR) & ADC_FUSES_LINEARITY_0_Msk) >> ADC_FUSES_LINEARITY_0_Pos;
    5756:	6811      	ldr	r1, [r2, #0]
  uint32_t bias = (*((uint32_t *) ADC_FUSES_BIASCAL_ADDR) & ADC_FUSES_BIASCAL_Msk) >> ADC_FUSES_BIASCAL_Pos;
    5758:	069a      	lsls	r2, r3, #26
  linearity |= ((*((uint32_t *) ADC_FUSES_LINEARITY_1_ADDR) & ADC_FUSES_LINEARITY_1_Msk) >> ADC_FUSES_LINEARITY_1_Pos) << 5;
    575a:	015b      	lsls	r3, r3, #5
  uint32_t linearity = (*((uint32_t *) ADC_FUSES_LINEARITY_0_ADDR) & ADC_FUSES_LINEARITY_0_Msk) >> ADC_FUSES_LINEARITY_0_Pos;
    575c:	0ec9      	lsrs	r1, r1, #27
  linearity |= ((*((uint32_t *) ADC_FUSES_LINEARITY_1_ADDR) & ADC_FUSES_LINEARITY_1_Msk) >> ADC_FUSES_LINEARITY_1_Pos) << 5;
    575e:	4023      	ands	r3, r4
  uint32_t bias = (*((uint32_t *) ADC_FUSES_BIASCAL_ADDR) & ADC_FUSES_BIASCAL_Msk) >> ADC_FUSES_BIASCAL_Pos;
    5760:	0f52      	lsrs	r2, r2, #29

  ADC->CALIB.reg = ADC_CALIB_BIAS_CAL(bias) | ADC_CALIB_LINEARITY_CAL(linearity);
    5762:	0212      	lsls	r2, r2, #8
  linearity |= ((*((uint32_t *) ADC_FUSES_LINEARITY_1_ADDR) & ADC_FUSES_LINEARITY_1_Msk) >> ADC_FUSES_LINEARITY_1_Pos) << 5;
    5764:	430b      	orrs	r3, r1
  ADC->CALIB.reg = ADC_CALIB_BIAS_CAL(bias) | ADC_CALIB_LINEARITY_CAL(linearity);
    5766:	4313      	orrs	r3, r2
    5768:	4a12      	ldr	r2, [pc, #72]	; (57b4 <SystemInit+0x15c>)
    576a:	8513      	strh	r3, [r2, #40]	; 0x28

  /*
   * 9) Disable automatic NVM write operations
   */
  NVMCTRL->CTRLB.bit.MANW = 1;
    576c:	2380      	movs	r3, #128	; 0x80
    576e:	6842      	ldr	r2, [r0, #4]
    5770:	4313      	orrs	r3, r2
    5772:	6043      	str	r3, [r0, #4]
}
    5774:	bd70      	pop	{r4, r5, r6, pc}
    5776:	46c0      	nop			; (mov r8, r8)
    5778:	41004000 	.word	0x41004000
    577c:	40000400 	.word	0x40000400
    5780:	0000060c 	.word	0x0000060c
    5784:	40000800 	.word	0x40000800
    5788:	40000c00 	.word	0x40000c00
    578c:	00010501 	.word	0x00010501
    5790:	7dff05b9 	.word	0x7dff05b9
    5794:	00000a04 	.word	0x00000a04
    5798:	00030700 	.word	0x00030700
    579c:	fffffcff 	.word	0xfffffcff
    57a0:	00010603 	.word	0x00010603
    57a4:	02dc6c00 	.word	0x02dc6c00
    57a8:	20000088 	.word	0x20000088
    57ac:	00806024 	.word	0x00806024
    57b0:	00806020 	.word	0x00806020
    57b4:	42004000 	.word	0x42004000

000057b8 <_ZN7Serial_17availableForWriteEv>:
int Serial_::availableForWrite(void)
{
	// return the number of bytes left in the current bank,
	// always EP size - 1, because bank is flushed on every write
	return (EPX_SIZE - 1);
}
    57b8:	203f      	movs	r0, #63	; 0x3f
    57ba:	4770      	bx	lr

000057bc <_ZN7Serial_5writeEh>:
		setWriteError();
		return 0;
	}
}

size_t Serial_::write(uint8_t c) {
    57bc:	b513      	push	{r0, r1, r4, lr}
    57be:	466b      	mov	r3, sp
	return write(&c, 1);
    57c0:	6802      	ldr	r2, [r0, #0]
size_t Serial_::write(uint8_t c) {
    57c2:	71d9      	strb	r1, [r3, #7]
    57c4:	3307      	adds	r3, #7
	return write(&c, 1);
    57c6:	6854      	ldr	r4, [r2, #4]
    57c8:	0019      	movs	r1, r3
    57ca:	2201      	movs	r2, #1
    57cc:	47a0      	blx	r4
}
    57ce:	bd16      	pop	{r1, r2, r4, pc}

000057d0 <_ZN7Serial_9availableEv>:
{
    57d0:	b510      	push	{r4, lr}
	return usb.available(CDC_ENDPOINT_OUT);
    57d2:	2102      	movs	r1, #2
    57d4:	6900      	ldr	r0, [r0, #16]
    57d6:	f000 fc47 	bl	6068 <_ZN14USBDeviceClass9availableEm>
}
    57da:	bd10      	pop	{r4, pc}

000057dc <_ZN7Serial_5flushEv>:
{
    57dc:	b510      	push	{r4, lr}
	usb.flush(CDC_ENDPOINT_IN);
    57de:	2103      	movs	r1, #3
    57e0:	6900      	ldr	r0, [r0, #16]
    57e2:	f000 fc57 	bl	6094 <_ZN14USBDeviceClass5flushEm>
}
    57e6:	bd10      	pop	{r4, pc}

000057e8 <_ZN7Serial_5writeEPKhj>:
{
    57e8:	b510      	push	{r4, lr}
    57ea:	0013      	movs	r3, r2
    57ec:	0004      	movs	r4, r0
	uint32_t r = usb.send(CDC_ENDPOINT_IN, buffer, size);
    57ee:	000a      	movs	r2, r1
    57f0:	6900      	ldr	r0, [r0, #16]
    57f2:	2103      	movs	r1, #3
    57f4:	f000 fd3a 	bl	626c <_ZN14USBDeviceClass4sendEmPKvm>
	if (r > 0) {
    57f8:	2800      	cmp	r0, #0
    57fa:	d101      	bne.n	5800 <_ZN7Serial_5writeEPKhj+0x18>
    void setWriteError(int err = 1) { write_error = err; }
    57fc:	2301      	movs	r3, #1
    57fe:	6063      	str	r3, [r4, #4]
}
    5800:	bd10      	pop	{r4, pc}
	...

00005804 <_ZN7Serial_4peekEv>:
{
    5804:	b510      	push	{r4, lr}
	if (_serialPeek != -1)
    5806:	4c05      	ldr	r4, [pc, #20]	; (581c <_ZN7Serial_4peekEv+0x18>)
    5808:	6823      	ldr	r3, [r4, #0]
    580a:	1c5a      	adds	r2, r3, #1
    580c:	d104      	bne.n	5818 <_ZN7Serial_4peekEv+0x14>
	_serialPeek = read();
    580e:	6803      	ldr	r3, [r0, #0]
    5810:	695b      	ldr	r3, [r3, #20]
    5812:	4798      	blx	r3
    5814:	0003      	movs	r3, r0
    5816:	6020      	str	r0, [r4, #0]
}
    5818:	0018      	movs	r0, r3
    581a:	bd10      	pop	{r4, pc}
    581c:	2000005c 	.word	0x2000005c

00005820 <_ZN7Serial_4readEv>:
	if (_serialPeek != -1) {
    5820:	4b07      	ldr	r3, [pc, #28]	; (5840 <_ZN7Serial_4readEv+0x20>)
{
    5822:	0002      	movs	r2, r0
	if (_serialPeek != -1) {
    5824:	6818      	ldr	r0, [r3, #0]
{
    5826:	b510      	push	{r4, lr}
	if (_serialPeek != -1) {
    5828:	1c41      	adds	r1, r0, #1
    582a:	d003      	beq.n	5834 <_ZN7Serial_4readEv+0x14>
		_serialPeek = -1;
    582c:	2201      	movs	r2, #1
    582e:	4252      	negs	r2, r2
    5830:	601a      	str	r2, [r3, #0]
}
    5832:	bd10      	pop	{r4, pc}
	return usb.recv(CDC_ENDPOINT_OUT);
    5834:	2102      	movs	r1, #2
    5836:	6910      	ldr	r0, [r2, #16]
    5838:	f000 fd0a 	bl	6250 <_ZN14USBDeviceClass4recvEm>
    583c:	e7f9      	b.n	5832 <_ZN7Serial_4readEv+0x12>
    583e:	46c0      	nop			; (mov r8, r8)
    5840:	2000005c 	.word	0x2000005c

00005844 <_Z16CDC_GetInterfacePh>:
{
    5844:	b510      	push	{r4, lr}
	interfaceNum[0] += 2;	// uses 2
    5846:	7803      	ldrb	r3, [r0, #0]
	return USBDevice.sendControl(&_cdcInterface,sizeof(_cdcInterface));
    5848:	2242      	movs	r2, #66	; 0x42
	interfaceNum[0] += 2;	// uses 2
    584a:	3302      	adds	r3, #2
    584c:	7003      	strb	r3, [r0, #0]
	return USBDevice.sendControl(&_cdcInterface,sizeof(_cdcInterface));
    584e:	4902      	ldr	r1, [pc, #8]	; (5858 <_Z16CDC_GetInterfacePh+0x14>)
    5850:	4802      	ldr	r0, [pc, #8]	; (585c <_Z16CDC_GetInterfacePh+0x18>)
    5852:	f000 fdab 	bl	63ac <_ZN14USBDeviceClass11sendControlEPKvm>
}
    5856:	bd10      	pop	{r4, pc}
    5858:	20000018 	.word	0x20000018
    585c:	20000660 	.word	0x20000660

00005860 <_Z9CDC_SetupR8USBSetup>:
{
    5860:	b510      	push	{r4, lr}
	uint8_t requestType = setup.bmRequestType;
    5862:	7801      	ldrb	r1, [r0, #0]
{
    5864:	0003      	movs	r3, r0
	uint8_t r = setup.bRequest;
    5866:	7842      	ldrb	r2, [r0, #1]
	return false;
    5868:	2000      	movs	r0, #0
	if (requestType == REQUEST_DEVICETOHOST_CLASS_INTERFACE)
    586a:	29a1      	cmp	r1, #161	; 0xa1
    586c:	d108      	bne.n	5880 <_Z9CDC_SetupR8USBSetup+0x20>
		if (r == CDC_GET_LINE_CODING)
    586e:	2a21      	cmp	r2, #33	; 0x21
    5870:	d105      	bne.n	587e <_Z9CDC_SetupR8USBSetup+0x1e>
			USBDevice.sendControl((void*)&_usbLineInfo, 7);
    5872:	3a1a      	subs	r2, #26
    5874:	4916      	ldr	r1, [pc, #88]	; (58d0 <_Z9CDC_SetupR8USBSetup+0x70>)
    5876:	4817      	ldr	r0, [pc, #92]	; (58d4 <_Z9CDC_SetupR8USBSetup+0x74>)
    5878:	f000 fd98 	bl	63ac <_ZN14USBDeviceClass11sendControlEPKvm>
			return true;
    587c:	2001      	movs	r0, #1
}
    587e:	bd10      	pop	{r4, pc}
	if (requestType == REQUEST_HOSTTODEVICE_CLASS_INTERFACE)
    5880:	2921      	cmp	r1, #33	; 0x21
    5882:	d1fc      	bne.n	587e <_Z9CDC_SetupR8USBSetup+0x1e>
		if (r == CDC_SET_LINE_CODING)
    5884:	2a20      	cmp	r2, #32
    5886:	d111      	bne.n	58ac <_Z9CDC_SetupR8USBSetup+0x4c>
			USBDevice.recvControl((void*)&_usbLineInfo, 7);
    5888:	3a19      	subs	r2, #25
    588a:	4911      	ldr	r1, [pc, #68]	; (58d0 <_Z9CDC_SetupR8USBSetup+0x70>)
    588c:	4811      	ldr	r0, [pc, #68]	; (58d4 <_Z9CDC_SetupR8USBSetup+0x74>)
    588e:	f000 fc45 	bl	611c <_ZN14USBDeviceClass11recvControlEPvm>
			if (_usbLineInfo.dwDTERate == 1200 && (_usbLineInfo.lineState & 0x01) == 0)
    5892:	2296      	movs	r2, #150	; 0x96
    5894:	4b0e      	ldr	r3, [pc, #56]	; (58d0 <_Z9CDC_SetupR8USBSetup+0x70>)
    5896:	00d2      	lsls	r2, r2, #3
    5898:	6819      	ldr	r1, [r3, #0]
    589a:	4291      	cmp	r1, r2
    589c:	d103      	bne.n	58a6 <_Z9CDC_SetupR8USBSetup+0x46>
    589e:	2401      	movs	r4, #1
    58a0:	79d8      	ldrb	r0, [r3, #7]
    58a2:	4004      	ands	r4, r0
    58a4:	d00e      	beq.n	58c4 <_Z9CDC_SetupR8USBSetup+0x64>
				cancelReset();
    58a6:	f7ff fe93 	bl	55d0 <cancelReset>
    58aa:	e00e      	b.n	58ca <_Z9CDC_SetupR8USBSetup+0x6a>
		if (r == CDC_SET_CONTROL_LINE_STATE)
    58ac:	2a22      	cmp	r2, #34	; 0x22
    58ae:	d103      	bne.n	58b8 <_Z9CDC_SetupR8USBSetup+0x58>
			_usbLineInfo.lineState = setup.wValueL;
    58b0:	789a      	ldrb	r2, [r3, #2]
    58b2:	4b07      	ldr	r3, [pc, #28]	; (58d0 <_Z9CDC_SetupR8USBSetup+0x70>)
    58b4:	71da      	strb	r2, [r3, #7]
    58b6:	e7ec      	b.n	5892 <_Z9CDC_SetupR8USBSetup+0x32>
		if (CDC_SEND_BREAK == r)
    58b8:	2a23      	cmp	r2, #35	; 0x23
    58ba:	d1e0      	bne.n	587e <_Z9CDC_SetupR8USBSetup+0x1e>
			breakValue = ((uint16_t)setup.wValueH << 8) | setup.wValueL;
    58bc:	885a      	ldrh	r2, [r3, #2]
    58be:	4b06      	ldr	r3, [pc, #24]	; (58d8 <_Z9CDC_SetupR8USBSetup+0x78>)
    58c0:	601a      	str	r2, [r3, #0]
			return false;
    58c2:	e7dc      	b.n	587e <_Z9CDC_SetupR8USBSetup+0x1e>
				initiateReset(250);
    58c4:	20fa      	movs	r0, #250	; 0xfa
    58c6:	f7ff fe7d 	bl	55c4 <initiateReset>
			return false;
    58ca:	2000      	movs	r0, #0
    58cc:	e7d7      	b.n	587e <_Z9CDC_SetupR8USBSetup+0x1e>
    58ce:	46c0      	nop			; (mov r8, r8)
    58d0:	20000010 	.word	0x20000010
    58d4:	20000660 	.word	0x20000660
    58d8:	2000000c 	.word	0x2000000c

000058dc <_ZN7Serial_5beginEm>:
}
    58dc:	4770      	bx	lr
	...

000058e0 <_ZN7Serial_cvbEv>:
// setup() before printing to ensure that an application on the host is
// actually ready to receive and display the data.
// We add a short delay before returning to fix a bug observed by Federico
// where the port is configured (lineState != 0) but not quite opened.
Serial_::operator bool()
{
    58e0:	b510      	push	{r4, lr}
	// this is here to avoid spurious opening after upload
	if (millis() < 500)
    58e2:	f7ff fd5b 	bl	539c <millis>
    58e6:	23f4      	movs	r3, #244	; 0xf4
    58e8:	33ff      	adds	r3, #255	; 0xff
		return false;
    58ea:	2400      	movs	r4, #0
	if (millis() < 500)
    58ec:	4298      	cmp	r0, r3
    58ee:	d907      	bls.n	5900 <_ZN7Serial_cvbEv+0x20>

	bool result = false;

	if (_usbLineInfo.lineState > 0)
    58f0:	4b04      	ldr	r3, [pc, #16]	; (5904 <_ZN7Serial_cvbEv+0x24>)
	{
		result = true;
	}

	delay(10);
    58f2:	200a      	movs	r0, #10
	if (_usbLineInfo.lineState > 0)
    58f4:	79dc      	ldrb	r4, [r3, #7]
    58f6:	1e63      	subs	r3, r4, #1
    58f8:	419c      	sbcs	r4, r3
    58fa:	b2e4      	uxtb	r4, r4
	delay(10);
    58fc:	f7ff fd84 	bl	5408 <delay>
	return result;
}
    5900:	0020      	movs	r0, r4
    5902:	bd10      	pop	{r4, pc}
    5904:	20000010 	.word	0x20000010

00005908 <_GLOBAL__sub_I__Z17_CDC_GetInterfacev>:
  public:
    virtual int available() = 0;
    virtual int read() = 0;
    virtual int peek() = 0;

    Stream() {_timeout=1000;}
    5908:	22fa      	movs	r2, #250	; 0xfa
    Print() : write_error(0) {}
    590a:	2100      	movs	r1, #0
    590c:	4b05      	ldr	r3, [pc, #20]	; (5924 <_GLOBAL__sub_I__Z17_CDC_GetInterfacev+0x1c>)
    590e:	0092      	lsls	r2, r2, #2
    5910:	609a      	str	r2, [r3, #8]
//	Serial over CDC (Serial1 is the physical port)

class Serial_ : public Stream
{
public:
	Serial_(USBDeviceClass &_usb) : usb(_usb), stalled(false) { }
    5912:	4a05      	ldr	r2, [pc, #20]	; (5928 <_GLOBAL__sub_I__Z17_CDC_GetInterfacev+0x20>)
    5914:	6059      	str	r1, [r3, #4]
    5916:	3208      	adds	r2, #8
    5918:	601a      	str	r2, [r3, #0]
    591a:	4a04      	ldr	r2, [pc, #16]	; (592c <_GLOBAL__sub_I__Z17_CDC_GetInterfacev+0x24>)
    591c:	7619      	strb	r1, [r3, #24]
    591e:	611a      	str	r2, [r3, #16]

bool Serial_::rts() {
	return _usbLineInfo.lineState & 0x2;
}

Serial_ SerialUSB(USBDevice);
    5920:	4770      	bx	lr
    5922:	46c0      	nop			; (mov r8, r8)
    5924:	20000644 	.word	0x20000644
    5928:	0000b9d0 	.word	0x0000b9d0
    592c:	20000660 	.word	0x20000660

00005930 <_ZL5utox8mPc>:
	packMessages(false);

	return true;
}

static void utox8(uint32_t val, char* s) {
    5930:	b530      	push	{r4, r5, lr}
	for (int i = 0; i < 8; i++) {
		int d = val & 0XF;
    5932:	250f      	movs	r5, #15
    5934:	1dcb      	adds	r3, r1, #7
    5936:	3901      	subs	r1, #1
    5938:	0002      	movs	r2, r0
    593a:	402a      	ands	r2, r5
		val = (val >> 4);

		s[7 - i] = d > 9 ? 'A' + d - 10 : '0' + d;
    593c:	0014      	movs	r4, r2
		val = (val >> 4);
    593e:	0900      	lsrs	r0, r0, #4
		s[7 - i] = d > 9 ? 'A' + d - 10 : '0' + d;
    5940:	3430      	adds	r4, #48	; 0x30
    5942:	2a09      	cmp	r2, #9
    5944:	dd01      	ble.n	594a <_ZL5utox8mPc+0x1a>
    5946:	3237      	adds	r2, #55	; 0x37
    5948:	0014      	movs	r4, r2
    594a:	701c      	strb	r4, [r3, #0]
    594c:	3b01      	subs	r3, #1
	for (int i = 0; i < 8; i++) {
    594e:	428b      	cmp	r3, r1
    5950:	d1f2      	bne.n	5938 <_ZL5utox8mPc+0x8>
	}
}
    5952:	bd30      	pop	{r4, r5, pc}

00005954 <_ZN26DoubleBufferedEPOutHandlerD1Ev>:
		usbd.epBank0SetAddress(ep, const_cast<uint8_t *>(data0));

		release();
	}

	virtual ~DoubleBufferedEPOutHandler() {
    5954:	b510      	push	{r4, lr}
    5956:	0004      	movs	r4, r0
		free((void*)data0);
    5958:	6980      	ldr	r0, [r0, #24]
    595a:	f003 fcfd 	bl	9358 <free>
		free((void*)data1);
    595e:	6aa0      	ldr	r0, [r4, #40]	; 0x28
    5960:	f003 fcfa 	bl	9358 <free>
	}
    5964:	0020      	movs	r0, r4
    5966:	bd10      	pop	{r4, pc}

00005968 <_ZN26DoubleBufferedEPOutHandlerD0Ev>:
	virtual ~DoubleBufferedEPOutHandler() {
    5968:	b510      	push	{r4, lr}
    596a:	0004      	movs	r4, r0
	}
    596c:	f7ff fff2 	bl	5954 <_ZN26DoubleBufferedEPOutHandlerD1Ev>
    5970:	0020      	movs	r0, r4
    5972:	f7ff fd93 	bl	549c <_ZdlPv>
    5976:	0020      	movs	r0, r4
    5978:	bd10      	pop	{r4, pc}
	...

0000597c <_ZN14USBDeviceClass6initEPEmm.part.5>:
	for (uint8_t i = 1; i < sizeof(EndPoints) && EndPoints[i] != 0; i++) {
		initEP(i, EndPoints[i]);
	}
}

void USBDeviceClass::initEP(uint32_t ep, uint32_t config)
    597c:	b570      	push	{r4, r5, r6, lr}
		if (epHandlers[ep] != NULL) {
			delete (DoubleBufferedEPOutHandler*)epHandlers[ep];
		}
		epHandlers[ep] = new DoubleBufferedEPOutHandler(usbd, ep, 256);
	}
	else if (config == (USB_ENDPOINT_TYPE_BULK | USB_ENDPOINT_IN(0)))
    597e:	2982      	cmp	r1, #130	; 0x82
    5980:	d11f      	bne.n	59c2 <_ZN14USBDeviceClass6initEPEmm.part.5+0x46>
	inline void epBank1SetSize(ep_t ep, uint16_t size) { EP[ep].DeviceDescBank[1].PCKSIZE.bit.SIZE = EP_PCKSIZE_SIZE(size); }
    5982:	b2c3      	uxtb	r3, r0
    5984:	4d2c      	ldr	r5, [pc, #176]	; (5a38 <_ZN14USBDeviceClass6initEPEmm.part.5+0xbc>)
    5986:	015a      	lsls	r2, r3, #5
    5988:	18aa      	adds	r2, r5, r2
    598a:	6991      	ldr	r1, [r2, #24]
    598c:	4c2b      	ldr	r4, [pc, #172]	; (5a3c <_ZN14USBDeviceClass6initEPEmm.part.5+0xc0>)
	{
		usbd.epBank1SetSize(ep, 64);
		usbd.epBank1SetAddress(ep, &udd_ep_in_cache_buffer[ep]);
    598e:	0180      	lsls	r0, r0, #6
    5990:	400c      	ands	r4, r1
    5992:	21c0      	movs	r1, #192	; 0xc0
    5994:	0589      	lsls	r1, r1, #22
    5996:	4321      	orrs	r1, r4
    5998:	6191      	str	r1, [r2, #24]
    599a:	4929      	ldr	r1, [pc, #164]	; (5a40 <_ZN14USBDeviceClass6initEPEmm.part.5+0xc4>)
	inline void epBank1ResetReady(ep_t ep) { usb.DeviceEndpoint[ep].EPSTATUSCLR.bit.BK1RDY = 1; }
    599c:	3308      	adds	r3, #8
    599e:	1808      	adds	r0, r1, r0
    59a0:	2180      	movs	r1, #128	; 0x80
	inline void epBank1SetAddress(ep_t ep, void *addr) { EP[ep].DeviceDescBank[1].ADDR.reg = (uint32_t)addr; }
    59a2:	6150      	str	r0, [r2, #20]
	inline void epBank1ResetReady(ep_t ep) { usb.DeviceEndpoint[ep].EPSTATUSCLR.bit.BK1RDY = 1; }
    59a4:	682a      	ldr	r2, [r5, #0]
    59a6:	015b      	lsls	r3, r3, #5
    59a8:	18d0      	adds	r0, r2, r3
    59aa:	7904      	ldrb	r4, [r0, #4]
    59ac:	4249      	negs	r1, r1
    59ae:	4321      	orrs	r1, r4
    59b0:	7101      	strb	r1, [r0, #4]
	inline void epBank1SetType(ep_t ep, uint8_t type) { usb.DeviceEndpoint[ep].EPCFG.bit.EPTYPE1 = type; }
    59b2:	2070      	movs	r0, #112	; 0x70
    59b4:	5c99      	ldrb	r1, [r3, r2]
    59b6:	4381      	bics	r1, r0
    59b8:	0008      	movs	r0, r1
    59ba:	2130      	movs	r1, #48	; 0x30
    59bc:	4301      	orrs	r1, r0
    59be:	5499      	strb	r1, [r3, r2]
		usbd.epBank0SetByteCount(ep, 0);

		// NAK on endpoint OUT, the bank is full.
		usbd.epBank0SetReady(ep);
	}
}
    59c0:	bd70      	pop	{r4, r5, r6, pc}
	else if (config == USB_ENDPOINT_TYPE_CONTROL)
    59c2:	2900      	cmp	r1, #0
    59c4:	d1fc      	bne.n	59c0 <_ZN14USBDeviceClass6initEPEmm.part.5+0x44>
	inline void epBank0SetSize(ep_t ep, uint16_t size) { EP[ep].DeviceDescBank[0].PCKSIZE.bit.SIZE = EP_PCKSIZE_SIZE(size); }
    59c6:	24c0      	movs	r4, #192	; 0xc0
    59c8:	b2c1      	uxtb	r1, r0
    59ca:	4e1b      	ldr	r6, [pc, #108]	; (5a38 <_ZN14USBDeviceClass6initEPEmm.part.5+0xbc>)
    59cc:	014b      	lsls	r3, r1, #5
    59ce:	18f3      	adds	r3, r6, r3
    59d0:	689a      	ldr	r2, [r3, #8]
    59d2:	4d1a      	ldr	r5, [pc, #104]	; (5a3c <_ZN14USBDeviceClass6initEPEmm.part.5+0xc0>)
    59d4:	05a4      	lsls	r4, r4, #22
    59d6:	402a      	ands	r2, r5
    59d8:	4322      	orrs	r2, r4
    59da:	609a      	str	r2, [r3, #8]
		usbd.epBank0SetAddress(ep, &udd_ep_out_cache_buffer[ep]);
    59dc:	4a19      	ldr	r2, [pc, #100]	; (5a44 <_ZN14USBDeviceClass6initEPEmm.part.5+0xc8>)
    59de:	0180      	lsls	r0, r0, #6
    59e0:	1810      	adds	r0, r2, r0
	inline void epBank0SetType(ep_t ep, uint8_t type) { usb.DeviceEndpoint[ep].EPCFG.bit.EPTYPE0 = type; }
    59e2:	000a      	movs	r2, r1
	inline void epBank0SetAddress(ep_t ep, void *addr) { EP[ep].DeviceDescBank[0].ADDR.reg = (uint32_t)addr; }
    59e4:	6058      	str	r0, [r3, #4]
	inline void epBank0SetType(ep_t ep, uint8_t type) { usb.DeviceEndpoint[ep].EPCFG.bit.EPTYPE0 = type; }
    59e6:	6830      	ldr	r0, [r6, #0]
    59e8:	2607      	movs	r6, #7
    59ea:	3208      	adds	r2, #8
    59ec:	0152      	lsls	r2, r2, #5
    59ee:	5c11      	ldrb	r1, [r2, r0]
    59f0:	43b1      	bics	r1, r6
    59f2:	000e      	movs	r6, r1
    59f4:	2101      	movs	r1, #1
    59f6:	4331      	orrs	r1, r6
    59f8:	5411      	strb	r1, [r2, r0]
	inline void epBank1SetSize(ep_t ep, uint16_t size) { EP[ep].DeviceDescBank[1].PCKSIZE.bit.SIZE = EP_PCKSIZE_SIZE(size); }
    59fa:	6999      	ldr	r1, [r3, #24]
    59fc:	400d      	ands	r5, r1
    59fe:	432c      	orrs	r4, r5
    5a00:	619c      	str	r4, [r3, #24]
	inline void epBank1SetType(ep_t ep, uint8_t type) { usb.DeviceEndpoint[ep].EPCFG.bit.EPTYPE1 = type; }
    5a02:	2470      	movs	r4, #112	; 0x70
	inline void epBank1SetAddress(ep_t ep, void *addr) { EP[ep].DeviceDescBank[1].ADDR.reg = (uint32_t)addr; }
    5a04:	490e      	ldr	r1, [pc, #56]	; (5a40 <_ZN14USBDeviceClass6initEPEmm.part.5+0xc4>)
    5a06:	6159      	str	r1, [r3, #20]
	inline void epBank1SetType(ep_t ep, uint8_t type) { usb.DeviceEndpoint[ep].EPCFG.bit.EPTYPE1 = type; }
    5a08:	5c11      	ldrb	r1, [r2, r0]
    5a0a:	43a1      	bics	r1, r4
    5a0c:	000c      	movs	r4, r1
    5a0e:	2110      	movs	r1, #16
    5a10:	4321      	orrs	r1, r4
    5a12:	5411      	strb	r1, [r2, r0]
	inline void epBank0SetMultiPacketSize(ep_t ep, uint16_t s) { EP[ep].DeviceDescBank[0].PCKSIZE.bit.MULTI_PACKET_SIZE = s; }
    5a14:	6899      	ldr	r1, [r3, #8]
    5a16:	4c0c      	ldr	r4, [pc, #48]	; (5a48 <_ZN14USBDeviceClass6initEPEmm.part.5+0xcc>)
	inline void epBank0SetReady(ep_t ep)   { usb.DeviceEndpoint[ep].EPSTATUSSET.bit.BK0RDY = 1; }
    5a18:	1882      	adds	r2, r0, r2
	inline void epBank0SetMultiPacketSize(ep_t ep, uint16_t s) { EP[ep].DeviceDescBank[0].PCKSIZE.bit.MULTI_PACKET_SIZE = s; }
    5a1a:	400c      	ands	r4, r1
    5a1c:	2180      	movs	r1, #128	; 0x80
    5a1e:	0349      	lsls	r1, r1, #13
    5a20:	4321      	orrs	r1, r4
    5a22:	6099      	str	r1, [r3, #8]
	inline void epBank0SetByteCount(ep_t ep, uint16_t bc) { EP[ep].DeviceDescBank[0].PCKSIZE.bit.BYTE_COUNT = bc; }
    5a24:	6899      	ldr	r1, [r3, #8]
    5a26:	0b89      	lsrs	r1, r1, #14
    5a28:	0389      	lsls	r1, r1, #14
    5a2a:	6099      	str	r1, [r3, #8]
	inline void epBank0SetReady(ep_t ep)   { usb.DeviceEndpoint[ep].EPSTATUSSET.bit.BK0RDY = 1; }
    5a2c:	2340      	movs	r3, #64	; 0x40
    5a2e:	7951      	ldrb	r1, [r2, #5]
    5a30:	430b      	orrs	r3, r1
    5a32:	7153      	strb	r3, [r2, #5]
    5a34:	e7c4      	b.n	59c0 <_ZN14USBDeviceClass6initEPEmm.part.5+0x44>
    5a36:	46c0      	nop			; (mov r8, r8)
    5a38:	20000b18 	.word	0x20000b18
    5a3c:	8fffffff 	.word	0x8fffffff
    5a40:	2000068c 	.word	0x2000068c
    5a44:	2000084c 	.word	0x2000084c
    5a48:	f0003fff 	.word	0xf0003fff

00005a4c <_ZN20USBDevice_SAMD21G18x5resetEv>:
void USBDevice_SAMD21G18x::reset() {
    5a4c:	b570      	push	{r4, r5, r6, lr}
	usb.CTRLA.bit.SWRST = 1;
    5a4e:	0004      	movs	r4, r0
    5a50:	2301      	movs	r3, #1
    5a52:	cc20      	ldmia	r4!, {r5}
	memset(EP, 0, sizeof(EP));
    5a54:	2100      	movs	r1, #0
	usb.CTRLA.bit.SWRST = 1;
    5a56:	782a      	ldrb	r2, [r5, #0]
	memset(EP, 0, sizeof(EP));
    5a58:	0020      	movs	r0, r4
	usb.CTRLA.bit.SWRST = 1;
    5a5a:	4313      	orrs	r3, r2
	memset(EP, 0, sizeof(EP));
    5a5c:	2280      	movs	r2, #128	; 0x80
	usb.CTRLA.bit.SWRST = 1;
    5a5e:	702b      	strb	r3, [r5, #0]
	memset(EP, 0, sizeof(EP));
    5a60:	0052      	lsls	r2, r2, #1
    5a62:	f003 fcbf 	bl	93e4 <memset>
	while (usb.SYNCBUSY.bit.SWRST) {}
    5a66:	78ab      	ldrb	r3, [r5, #2]
    5a68:	07db      	lsls	r3, r3, #31
    5a6a:	d4fc      	bmi.n	5a66 <_ZN20USBDevice_SAMD21G18x5resetEv+0x1a>
	usb.DESCADD.reg = (uint32_t)(&EP);
    5a6c:	626c      	str	r4, [r5, #36]	; 0x24
}
    5a6e:	bd70      	pop	{r4, r5, r6, pc}

00005a70 <_ZN20USBDevice_SAMD21G18x9calibrateEv>:
	uint32_t pad_transn = (*pad_transn_p & USB_FUSES_TRANSN_Msk) >> USB_FUSES_TRANSN_Pos;
    5a70:	221f      	movs	r2, #31
    5a72:	4b14      	ldr	r3, [pc, #80]	; (5ac4 <_ZN20USBDevice_SAMD21G18x9calibrateEv+0x54>)
void USBDevice_SAMD21G18x::calibrate() {
    5a74:	b570      	push	{r4, r5, r6, lr}
	uint32_t pad_transn = (*pad_transn_p & USB_FUSES_TRANSN_Msk) >> USB_FUSES_TRANSN_Pos;
    5a76:	681b      	ldr	r3, [r3, #0]
    5a78:	0b59      	lsrs	r1, r3, #13
	uint32_t pad_transp = (*pad_transp_p & USB_FUSES_TRANSP_Msk) >> USB_FUSES_TRANSP_Pos;
    5a7a:	0c9c      	lsrs	r4, r3, #18
	uint32_t pad_trim   = (*pad_trim_p   & USB_FUSES_TRIM_Msk  ) >> USB_FUSES_TRIM_Pos;
    5a7c:	019b      	lsls	r3, r3, #6
	uint32_t pad_transn = (*pad_transn_p & USB_FUSES_TRANSN_Msk) >> USB_FUSES_TRANSN_Pos;
    5a7e:	4011      	ands	r1, r2
	uint32_t pad_trim   = (*pad_trim_p   & USB_FUSES_TRIM_Msk  ) >> USB_FUSES_TRIM_Pos;
    5a80:	0f5b      	lsrs	r3, r3, #29
	uint32_t pad_transp = (*pad_transp_p & USB_FUSES_TRANSP_Msk) >> USB_FUSES_TRANSP_Pos;
    5a82:	4022      	ands	r2, r4
	if (pad_transn == 0x1F)  // maximum value (31)
    5a84:	291f      	cmp	r1, #31
    5a86:	d100      	bne.n	5a8a <_ZN20USBDevice_SAMD21G18x9calibrateEv+0x1a>
		pad_transn = 5;
    5a88:	391a      	subs	r1, #26
	if (pad_transp == 0x1F)  // maximum value (31)
    5a8a:	2a1f      	cmp	r2, #31
    5a8c:	d100      	bne.n	5a90 <_ZN20USBDevice_SAMD21G18x9calibrateEv+0x20>
		pad_transp = 29;
    5a8e:	3a02      	subs	r2, #2
	if (pad_trim == 0x7)     // maximum value (7)
    5a90:	2b07      	cmp	r3, #7
    5a92:	d100      	bne.n	5a96 <_ZN20USBDevice_SAMD21G18x9calibrateEv+0x26>
		pad_trim = 3;
    5a94:	3b04      	subs	r3, #4
	usb.PADCAL.bit.TRANSN = pad_transn;
    5a96:	251f      	movs	r5, #31
    5a98:	6800      	ldr	r0, [r0, #0]
    5a9a:	018e      	lsls	r6, r1, #6
    5a9c:	8d04      	ldrh	r4, [r0, #40]	; 0x28
    5a9e:	490a      	ldr	r1, [pc, #40]	; (5ac8 <_ZN20USBDevice_SAMD21G18x9calibrateEv+0x58>)
	usb.PADCAL.bit.TRANSP = pad_transp;
    5aa0:	402a      	ands	r2, r5
	usb.PADCAL.bit.TRANSN = pad_transn;
    5aa2:	4021      	ands	r1, r4
    5aa4:	4331      	orrs	r1, r6
    5aa6:	8501      	strh	r1, [r0, #40]	; 0x28
	usb.PADCAL.bit.TRANSP = pad_transp;
    5aa8:	8d01      	ldrh	r1, [r0, #40]	; 0x28
    5aaa:	0014      	movs	r4, r2
    5aac:	000a      	movs	r2, r1
    5aae:	43aa      	bics	r2, r5
    5ab0:	4322      	orrs	r2, r4
    5ab2:	8502      	strh	r2, [r0, #40]	; 0x28
	usb.PADCAL.bit.TRIM   = pad_trim;
    5ab4:	8d02      	ldrh	r2, [r0, #40]	; 0x28
    5ab6:	0319      	lsls	r1, r3, #12
    5ab8:	4b04      	ldr	r3, [pc, #16]	; (5acc <_ZN20USBDevice_SAMD21G18x9calibrateEv+0x5c>)
    5aba:	4013      	ands	r3, r2
    5abc:	430b      	orrs	r3, r1
    5abe:	8503      	strh	r3, [r0, #40]	; 0x28
}
    5ac0:	bd70      	pop	{r4, r5, r6, pc}
    5ac2:	46c0      	nop			; (mov r8, r8)
    5ac4:	00806024 	.word	0x00806024
    5ac8:	fffff83f 	.word	0xfffff83f
    5acc:	ffff8fff 	.word	0xffff8fff

00005ad0 <_ZN7__GuardC1Ev>:
  __ASM volatile ("MRS %0, primask" : "=r" (result) );
    5ad0:	f3ef 8310 	mrs	r3, PRIMASK
	__Guard() : primask(__get_PRIMASK()), loops(1) {
    5ad4:	6003      	str	r3, [r0, #0]
    5ad6:	2301      	movs	r3, #1
    5ad8:	6043      	str	r3, [r0, #4]
  __ASM volatile ("cpsid i" : : : "memory");
    5ada:	b672      	cpsid	i
	}
    5adc:	4770      	bx	lr

00005ade <_ZN7__GuardD1Ev>:
		if (primask == 0) {
    5ade:	6803      	ldr	r3, [r0, #0]
    5ae0:	2b00      	cmp	r3, #0
    5ae2:	d102      	bne.n	5aea <_ZN7__GuardD1Ev+0xc>
  __ASM volatile ("cpsie i" : : : "memory");
    5ae4:	b662      	cpsie	i
  __ASM volatile ("isb 0xF":::"memory");
    5ae6:	f3bf 8f6f 	isb	sy
	}
    5aea:	4770      	bx	lr

00005aec <_ZNK26DoubleBufferedEPOutHandler9availableEv>:
			release();
		}
	}

	// Returns how many bytes are stored in the buffers
	virtual uint32_t available() const {
    5aec:	b537      	push	{r0, r1, r2, r4, r5, lr}
		if (current == 0) {
    5aee:	6905      	ldr	r5, [r0, #16]
	virtual uint32_t available() const {
    5af0:	0004      	movs	r4, r0
			bool ready = false;
			synchronized {
    5af2:	4668      	mov	r0, sp
		if (current == 0) {
    5af4:	2d00      	cmp	r5, #0
    5af6:	d114      	bne.n	5b22 <_ZNK26DoubleBufferedEPOutHandler9availableEv+0x36>
			synchronized {
    5af8:	f7ff ffea 	bl	5ad0 <_ZN7__GuardC1Ev>
    5afc:	9b01      	ldr	r3, [sp, #4]
				ready = ready0;
    5afe:	1d62      	adds	r2, r4, #5
			synchronized {
    5b00:	3b01      	subs	r3, #1
    5b02:	d302      	bcc.n	5b0a <_ZNK26DoubleBufferedEPOutHandler9availableEv+0x1e>
				ready = ready0;
    5b04:	7fd5      	ldrb	r5, [r2, #31]
    5b06:	b2ed      	uxtb	r5, r5
    5b08:	e7fa      	b.n	5b00 <_ZNK26DoubleBufferedEPOutHandler9availableEv+0x14>
			synchronized {
    5b0a:	4668      	mov	r0, sp
    5b0c:	9301      	str	r3, [sp, #4]
    5b0e:	f7ff ffe6 	bl	5ade <_ZN7__GuardD1Ev>
			}
			return ready ? (last0 - first0) : 0;
    5b12:	2d00      	cmp	r5, #0
    5b14:	d101      	bne.n	5b1a <_ZNK26DoubleBufferedEPOutHandler9availableEv+0x2e>
    5b16:	2000      	movs	r0, #0
			synchronized {
				ready = ready1;
			}
			return ready ? (last1 - first1) : 0;
		}
	}
    5b18:	bd3e      	pop	{r1, r2, r3, r4, r5, pc}
			return ready ? (last0 - first0) : 0;
    5b1a:	6a20      	ldr	r0, [r4, #32]
    5b1c:	69e3      	ldr	r3, [r4, #28]
			return ready ? (last1 - first1) : 0;
    5b1e:	1ac0      	subs	r0, r0, r3
    5b20:	e7fa      	b.n	5b18 <_ZNK26DoubleBufferedEPOutHandler9availableEv+0x2c>
			synchronized {
    5b22:	f7ff ffd5 	bl	5ad0 <_ZN7__GuardC1Ev>
				ready = ready1;
    5b26:	0022      	movs	r2, r4
			bool ready = false;
    5b28:	2500      	movs	r5, #0
    5b2a:	9b01      	ldr	r3, [sp, #4]
				ready = ready1;
    5b2c:	3234      	adds	r2, #52	; 0x34
			synchronized {
    5b2e:	3b01      	subs	r3, #1
    5b30:	d302      	bcc.n	5b38 <_ZNK26DoubleBufferedEPOutHandler9availableEv+0x4c>
				ready = ready1;
    5b32:	7815      	ldrb	r5, [r2, #0]
    5b34:	b2ed      	uxtb	r5, r5
			synchronized {
    5b36:	e7fa      	b.n	5b2e <_ZNK26DoubleBufferedEPOutHandler9availableEv+0x42>
    5b38:	4668      	mov	r0, sp
    5b3a:	9301      	str	r3, [sp, #4]
    5b3c:	f7ff ffcf 	bl	5ade <_ZN7__GuardD1Ev>
			return ready ? (last1 - first1) : 0;
    5b40:	2d00      	cmp	r5, #0
    5b42:	d0e8      	beq.n	5b16 <_ZNK26DoubleBufferedEPOutHandler9availableEv+0x2a>
    5b44:	6b20      	ldr	r0, [r4, #48]	; 0x30
    5b46:	6ae3      	ldr	r3, [r4, #44]	; 0x2c
    5b48:	e7e9      	b.n	5b1e <_ZNK26DoubleBufferedEPOutHandler9availableEv+0x32>
	...

00005b4c <_ZN26DoubleBufferedEPOutHandler7releaseEv>:

	void release() {
    5b4c:	b5f0      	push	{r4, r5, r6, r7, lr}
	inline void epBank0EnableTransferComplete(ep_t ep) { usb.DeviceEndpoint[ep].EPINTENSET.bit.TRCPT0 = 1; }
    5b4e:	2501      	movs	r5, #1
		// Release OUT EP
		usbd.epBank0EnableTransferComplete(ep);
    5b50:	6846      	ldr	r6, [r0, #4]
	inline void epBank0EnableTransferComplete(ep_t ep) { usb.DeviceEndpoint[ep].EPINTENSET.bit.TRCPT0 = 1; }
    5b52:	7a03      	ldrb	r3, [r0, #8]
    5b54:	6831      	ldr	r1, [r6, #0]
    5b56:	015a      	lsls	r2, r3, #5
    5b58:	188c      	adds	r4, r1, r2
    5b5a:	34ff      	adds	r4, #255	; 0xff
    5b5c:	7aa7      	ldrb	r7, [r4, #10]
	inline void epBank0SetMultiPacketSize(ep_t ep, uint16_t s) { EP[ep].DeviceDescBank[0].PCKSIZE.bit.MULTI_PACKET_SIZE = s; }
    5b5e:	18b2      	adds	r2, r6, r2
	inline void epBank0EnableTransferComplete(ep_t ep) { usb.DeviceEndpoint[ep].EPINTENSET.bit.TRCPT0 = 1; }
    5b60:	433d      	orrs	r5, r7
    5b62:	72a5      	strb	r5, [r4, #10]
		usbd.epBank0SetMultiPacketSize(ep, size);
    5b64:	68c4      	ldr	r4, [r0, #12]
	inline void epBank0SetMultiPacketSize(ep_t ep, uint16_t s) { EP[ep].DeviceDescBank[0].PCKSIZE.bit.MULTI_PACKET_SIZE = s; }
    5b66:	4d09      	ldr	r5, [pc, #36]	; (5b8c <_ZN26DoubleBufferedEPOutHandler7releaseEv+0x40>)
    5b68:	6890      	ldr	r0, [r2, #8]
    5b6a:	04a4      	lsls	r4, r4, #18
    5b6c:	4028      	ands	r0, r5
    5b6e:	0924      	lsrs	r4, r4, #4
    5b70:	4320      	orrs	r0, r4
    5b72:	6090      	str	r0, [r2, #8]
	inline void epBank0SetByteCount(ep_t ep, uint16_t bc) { EP[ep].DeviceDescBank[0].PCKSIZE.bit.BYTE_COUNT = bc; }
    5b74:	6890      	ldr	r0, [r2, #8]
	inline void epBank0ResetReady(ep_t ep) { usb.DeviceEndpoint[ep].EPSTATUSCLR.bit.BK0RDY = 1; }
    5b76:	3308      	adds	r3, #8
	inline void epBank0SetByteCount(ep_t ep, uint16_t bc) { EP[ep].DeviceDescBank[0].PCKSIZE.bit.BYTE_COUNT = bc; }
    5b78:	0b80      	lsrs	r0, r0, #14
    5b7a:	0380      	lsls	r0, r0, #14
    5b7c:	6090      	str	r0, [r2, #8]
	inline void epBank0ResetReady(ep_t ep) { usb.DeviceEndpoint[ep].EPSTATUSCLR.bit.BK0RDY = 1; }
    5b7e:	2240      	movs	r2, #64	; 0x40
    5b80:	015b      	lsls	r3, r3, #5
    5b82:	18cb      	adds	r3, r1, r3
    5b84:	7919      	ldrb	r1, [r3, #4]
    5b86:	430a      	orrs	r2, r1
    5b88:	711a      	strb	r2, [r3, #4]
		usbd.epBank0SetByteCount(ep, 0);
		usbd.epBank0ResetReady(ep);
	}
    5b8a:	bdf0      	pop	{r4, r5, r6, r7, pc}
    5b8c:	f0003fff 	.word	0xf0003fff

00005b90 <_ZN26DoubleBufferedEPOutHandler4recvEPvm>:
	virtual uint32_t recv(void *_data, uint32_t len)
    5b90:	b5f7      	push	{r0, r1, r2, r4, r5, r6, r7, lr}
		if (current == 0) {
    5b92:	6903      	ldr	r3, [r0, #16]
	virtual uint32_t recv(void *_data, uint32_t len)
    5b94:	0004      	movs	r4, r0
    5b96:	000e      	movs	r6, r1
    5b98:	0017      	movs	r7, r2
			synchronized {
    5b9a:	4668      	mov	r0, sp
		if (current == 0) {
    5b9c:	2b00      	cmp	r3, #0
    5b9e:	d13d      	bne.n	5c1c <_ZN26DoubleBufferedEPOutHandler4recvEPvm+0x8c>
			synchronized {
    5ba0:	f7ff ff96 	bl	5ad0 <_ZN7__GuardC1Ev>
    5ba4:	9b01      	ldr	r3, [sp, #4]
				if (!ready0) {
    5ba6:	1d61      	adds	r1, r4, #5
    5ba8:	3b01      	subs	r3, #1
			synchronized {
    5baa:	1c5a      	adds	r2, r3, #1
    5bac:	d00c      	beq.n	5bc8 <_ZN26DoubleBufferedEPOutHandler4recvEPvm+0x38>
				if (!ready0) {
    5bae:	7fcd      	ldrb	r5, [r1, #31]
    5bb0:	1e5a      	subs	r2, r3, #1
    5bb2:	b2ed      	uxtb	r5, r5
    5bb4:	2d00      	cmp	r5, #0
    5bb6:	d105      	bne.n	5bc4 <_ZN26DoubleBufferedEPOutHandler4recvEPvm+0x34>
				synchronized {
    5bb8:	4668      	mov	r0, sp
    5bba:	9301      	str	r3, [sp, #4]
    5bbc:	f7ff ff8f 	bl	5ade <_ZN7__GuardD1Ev>
	}
    5bc0:	0028      	movs	r0, r5
    5bc2:	bdfe      	pop	{r1, r2, r3, r4, r5, r6, r7, pc}
    5bc4:	0013      	movs	r3, r2
    5bc6:	e7f0      	b.n	5baa <_ZN26DoubleBufferedEPOutHandler4recvEPvm+0x1a>
			synchronized {
    5bc8:	4668      	mov	r0, sp
    5bca:	9301      	str	r3, [sp, #4]
			for (i=0; i<len && first0 < last0; i++) {
    5bcc:	2500      	movs	r5, #0
			synchronized {
    5bce:	f7ff ff86 	bl	5ade <_ZN7__GuardD1Ev>
    5bd2:	69e3      	ldr	r3, [r4, #28]
			for (i=0; i<len && first0 < last0; i++) {
    5bd4:	42af      	cmp	r7, r5
    5bd6:	d002      	beq.n	5bde <_ZN26DoubleBufferedEPOutHandler4recvEPvm+0x4e>
    5bd8:	6a22      	ldr	r2, [r4, #32]
    5bda:	4293      	cmp	r3, r2
    5bdc:	d357      	bcc.n	5c8e <_ZN26DoubleBufferedEPOutHandler4recvEPvm+0xfe>
			if (first0 == last0) {
    5bde:	6a22      	ldr	r2, [r4, #32]
    5be0:	4293      	cmp	r3, r2
    5be2:	d1ed      	bne.n	5bc0 <_ZN26DoubleBufferedEPOutHandler4recvEPvm+0x30>
				first0 = 0;
    5be4:	2300      	movs	r3, #0
    5be6:	61e3      	str	r3, [r4, #28]
				current = 1;
    5be8:	3301      	adds	r3, #1
    5bea:	6123      	str	r3, [r4, #16]
				synchronized {
    5bec:	4668      	mov	r0, sp
    5bee:	f7ff ff6f 	bl	5ad0 <_ZN7__GuardC1Ev>
					if (notify) {
    5bf2:	0022      	movs	r2, r4
					ready0 = false;
    5bf4:	2100      	movs	r1, #0
    5bf6:	9b01      	ldr	r3, [sp, #4]
    5bf8:	1d67      	adds	r7, r4, #5
    5bfa:	3b01      	subs	r3, #1
					if (notify) {
    5bfc:	3235      	adds	r2, #53	; 0x35
				synchronized {
    5bfe:	1c58      	adds	r0, r3, #1
    5c00:	d0da      	beq.n	5bb8 <_ZN26DoubleBufferedEPOutHandler4recvEPvm+0x28>
					ready0 = false;
    5c02:	77f9      	strb	r1, [r7, #31]
					if (notify) {
    5c04:	7810      	ldrb	r0, [r2, #0]
    5c06:	1e5e      	subs	r6, r3, #1
    5c08:	2800      	cmp	r0, #0
    5c0a:	d005      	beq.n	5c18 <_ZN26DoubleBufferedEPOutHandler4recvEPvm+0x88>
						notify = false;
    5c0c:	7011      	strb	r1, [r2, #0]
						release();
    5c0e:	0020      	movs	r0, r4
    5c10:	9301      	str	r3, [sp, #4]
    5c12:	f7ff ff9b 	bl	5b4c <_ZN26DoubleBufferedEPOutHandler7releaseEv>
    5c16:	e7ec      	b.n	5bf2 <_ZN26DoubleBufferedEPOutHandler4recvEPvm+0x62>
					if (notify) {
    5c18:	0033      	movs	r3, r6
    5c1a:	e7f0      	b.n	5bfe <_ZN26DoubleBufferedEPOutHandler4recvEPvm+0x6e>
			synchronized {
    5c1c:	f7ff ff58 	bl	5ad0 <_ZN7__GuardC1Ev>
				if (!ready1) {
    5c20:	0021      	movs	r1, r4
    5c22:	9b01      	ldr	r3, [sp, #4]
    5c24:	3134      	adds	r1, #52	; 0x34
    5c26:	3b01      	subs	r3, #1
			synchronized {
    5c28:	1c5a      	adds	r2, r3, #1
    5c2a:	d006      	beq.n	5c3a <_ZN26DoubleBufferedEPOutHandler4recvEPvm+0xaa>
				if (!ready1) {
    5c2c:	780d      	ldrb	r5, [r1, #0]
    5c2e:	1e5a      	subs	r2, r3, #1
    5c30:	b2ed      	uxtb	r5, r5
    5c32:	2d00      	cmp	r5, #0
    5c34:	d0c0      	beq.n	5bb8 <_ZN26DoubleBufferedEPOutHandler4recvEPvm+0x28>
    5c36:	0013      	movs	r3, r2
    5c38:	e7f6      	b.n	5c28 <_ZN26DoubleBufferedEPOutHandler4recvEPvm+0x98>
			synchronized {
    5c3a:	4668      	mov	r0, sp
    5c3c:	9301      	str	r3, [sp, #4]
			for (i=0; i<len && first1 < last1; i++) {
    5c3e:	2500      	movs	r5, #0
			synchronized {
    5c40:	f7ff ff4d 	bl	5ade <_ZN7__GuardD1Ev>
    5c44:	6ae3      	ldr	r3, [r4, #44]	; 0x2c
			for (i=0; i<len && first1 < last1; i++) {
    5c46:	42bd      	cmp	r5, r7
    5c48:	d002      	beq.n	5c50 <_ZN26DoubleBufferedEPOutHandler4recvEPvm+0xc0>
    5c4a:	6b22      	ldr	r2, [r4, #48]	; 0x30
    5c4c:	4293      	cmp	r3, r2
    5c4e:	d326      	bcc.n	5c9e <_ZN26DoubleBufferedEPOutHandler4recvEPvm+0x10e>
			if (first1 == last1) {
    5c50:	6b22      	ldr	r2, [r4, #48]	; 0x30
    5c52:	4293      	cmp	r3, r2
    5c54:	d1b4      	bne.n	5bc0 <_ZN26DoubleBufferedEPOutHandler4recvEPvm+0x30>
				first1 = 0;
    5c56:	2300      	movs	r3, #0
				synchronized {
    5c58:	4668      	mov	r0, sp
				first1 = 0;
    5c5a:	62e3      	str	r3, [r4, #44]	; 0x2c
				current = 0;
    5c5c:	6123      	str	r3, [r4, #16]
				synchronized {
    5c5e:	f7ff ff37 	bl	5ad0 <_ZN7__GuardC1Ev>
					ready1 = false;
    5c62:	0027      	movs	r7, r4
					if (notify) {
    5c64:	0022      	movs	r2, r4
					ready1 = false;
    5c66:	2100      	movs	r1, #0
    5c68:	9b01      	ldr	r3, [sp, #4]
    5c6a:	3734      	adds	r7, #52	; 0x34
    5c6c:	3b01      	subs	r3, #1
					if (notify) {
    5c6e:	3235      	adds	r2, #53	; 0x35
				synchronized {
    5c70:	1c58      	adds	r0, r3, #1
    5c72:	d0a1      	beq.n	5bb8 <_ZN26DoubleBufferedEPOutHandler4recvEPvm+0x28>
					ready1 = false;
    5c74:	7039      	strb	r1, [r7, #0]
					if (notify) {
    5c76:	7810      	ldrb	r0, [r2, #0]
    5c78:	1e5e      	subs	r6, r3, #1
    5c7a:	2800      	cmp	r0, #0
    5c7c:	d005      	beq.n	5c8a <_ZN26DoubleBufferedEPOutHandler4recvEPvm+0xfa>
						notify = false;
    5c7e:	7011      	strb	r1, [r2, #0]
						release();
    5c80:	0020      	movs	r0, r4
    5c82:	9301      	str	r3, [sp, #4]
    5c84:	f7ff ff62 	bl	5b4c <_ZN26DoubleBufferedEPOutHandler7releaseEv>
    5c88:	e7eb      	b.n	5c62 <_ZN26DoubleBufferedEPOutHandler4recvEPvm+0xd2>
    5c8a:	0033      	movs	r3, r6
    5c8c:	e7f0      	b.n	5c70 <_ZN26DoubleBufferedEPOutHandler4recvEPvm+0xe0>
				data[i] = data0[first0++];
    5c8e:	1c5a      	adds	r2, r3, #1
    5c90:	61e2      	str	r2, [r4, #28]
    5c92:	69a2      	ldr	r2, [r4, #24]
    5c94:	18d3      	adds	r3, r2, r3
    5c96:	781b      	ldrb	r3, [r3, #0]
    5c98:	5573      	strb	r3, [r6, r5]
			for (i=0; i<len && first0 < last0; i++) {
    5c9a:	3501      	adds	r5, #1
    5c9c:	e799      	b.n	5bd2 <_ZN26DoubleBufferedEPOutHandler4recvEPvm+0x42>
				data[i] = data1[first1++];
    5c9e:	1c5a      	adds	r2, r3, #1
    5ca0:	62e2      	str	r2, [r4, #44]	; 0x2c
    5ca2:	6aa2      	ldr	r2, [r4, #40]	; 0x28
    5ca4:	18d3      	adds	r3, r2, r3
    5ca6:	781b      	ldrb	r3, [r3, #0]
    5ca8:	5573      	strb	r3, [r6, r5]
			for (i=0; i<len && first1 < last1; i++) {
    5caa:	3501      	adds	r5, #1
    5cac:	e7ca      	b.n	5c44 <_ZN26DoubleBufferedEPOutHandler4recvEPvm+0xb4>

00005cae <_ZN26DoubleBufferedEPOutHandler14handleEndpointEv>:
	virtual void handleEndpoint()
    5cae:	b5f7      	push	{r0, r1, r2, r4, r5, r6, r7, lr}
	inline bool epBank0IsTransferComplete(ep_t ep)  { return usb.DeviceEndpoint[ep].EPINTFLAG.bit.TRCPT0; }
    5cb0:	7a02      	ldrb	r2, [r0, #8]
		if (usbd.epBank0IsTransferComplete(ep))
    5cb2:	6843      	ldr	r3, [r0, #4]
	inline bool epBank0IsTransferComplete(ep_t ep)  { return usb.DeviceEndpoint[ep].EPINTFLAG.bit.TRCPT0; }
    5cb4:	0011      	movs	r1, r2
	virtual void handleEndpoint()
    5cb6:	0004      	movs	r4, r0
	inline bool epBank0IsTransferComplete(ep_t ep)  { return usb.DeviceEndpoint[ep].EPINTFLAG.bit.TRCPT0; }
    5cb8:	3108      	adds	r1, #8
    5cba:	6818      	ldr	r0, [r3, #0]
    5cbc:	0149      	lsls	r1, r1, #5
    5cbe:	1841      	adds	r1, r0, r1
    5cc0:	79c8      	ldrb	r0, [r1, #7]
		if (usbd.epBank0IsTransferComplete(ep))
    5cc2:	07c0      	lsls	r0, r0, #31
    5cc4:	d527      	bpl.n	5d16 <_ZN26DoubleBufferedEPOutHandler14handleEndpointEv+0x68>
	inline void epBank0AckTransferComplete(ep_t ep) { usb.DeviceEndpoint[ep].EPINTFLAG.reg = USB_DEVICE_EPINTFLAG_TRCPT(1); }
    5cc6:	2501      	movs	r5, #1
    5cc8:	0152      	lsls	r2, r2, #5
    5cca:	71cd      	strb	r5, [r1, #7]
	inline uint16_t epBank0ByteCount(ep_t ep) { return EP[ep].DeviceDescBank[0].PCKSIZE.bit.BYTE_COUNT; }
    5ccc:	189b      	adds	r3, r3, r2
    5cce:	689a      	ldr	r2, [r3, #8]
			if (incoming == 0) {
    5cd0:	6961      	ldr	r1, [r4, #20]
	inline uint16_t epBank0ByteCount(ep_t ep) { return EP[ep].DeviceDescBank[0].PCKSIZE.bit.BYTE_COUNT; }
    5cd2:	0492      	lsls	r2, r2, #18
    5cd4:	0c92      	lsrs	r2, r2, #18
			if (incoming == 0) {
    5cd6:	2900      	cmp	r1, #0
    5cd8:	d121      	bne.n	5d1e <_ZN26DoubleBufferedEPOutHandler14handleEndpointEv+0x70>
				last0 = usbd.epBank0ByteCount(ep);
    5cda:	6222      	str	r2, [r4, #32]
				if (last0 != 0) {
    5cdc:	6a22      	ldr	r2, [r4, #32]
    5cde:	2a00      	cmp	r2, #0
    5ce0:	d03e      	beq.n	5d60 <_ZN26DoubleBufferedEPOutHandler14handleEndpointEv+0xb2>
	inline void epBank0SetAddress(ep_t ep, void *addr) { EP[ep].DeviceDescBank[0].ADDR.reg = (uint32_t)addr; }
    5ce2:	6aa2      	ldr	r2, [r4, #40]	; 0x28
					incoming = 1;
    5ce4:	6165      	str	r5, [r4, #20]
					synchronized {
    5ce6:	4668      	mov	r0, sp
	inline void epBank0SetAddress(ep_t ep, void *addr) { EP[ep].DeviceDescBank[0].ADDR.reg = (uint32_t)addr; }
    5ce8:	605a      	str	r2, [r3, #4]
					synchronized {
    5cea:	f7ff fef1 	bl	5ad0 <_ZN7__GuardC1Ev>
						if (ready1) {
    5cee:	0027      	movs	r7, r4
    5cf0:	0021      	movs	r1, r4
    5cf2:	9b01      	ldr	r3, [sp, #4]
						ready0 = true;
    5cf4:	1d66      	adds	r6, r4, #5
    5cf6:	3b01      	subs	r3, #1
						if (ready1) {
    5cf8:	3734      	adds	r7, #52	; 0x34
    5cfa:	3135      	adds	r1, #53	; 0x35
					synchronized {
    5cfc:	1c5a      	adds	r2, r3, #1
    5cfe:	d02b      	beq.n	5d58 <_ZN26DoubleBufferedEPOutHandler14handleEndpointEv+0xaa>
						ready0 = true;
    5d00:	77f5      	strb	r5, [r6, #31]
						if (ready1) {
    5d02:	783a      	ldrb	r2, [r7, #0]
    5d04:	1e58      	subs	r0, r3, #1
    5d06:	b2d2      	uxtb	r2, r2
    5d08:	2a00      	cmp	r2, #0
    5d0a:	d005      	beq.n	5d18 <_ZN26DoubleBufferedEPOutHandler14handleEndpointEv+0x6a>
    5d0c:	9301      	str	r3, [sp, #4]
							return;
    5d0e:	4668      	mov	r0, sp
							notify = true;
    5d10:	700d      	strb	r5, [r1, #0]
							return;
    5d12:	f7ff fee4 	bl	5ade <_ZN7__GuardD1Ev>
	}
    5d16:	bdf7      	pop	{r0, r1, r2, r4, r5, r6, r7, pc}
						notify = false;
    5d18:	700a      	strb	r2, [r1, #0]
					synchronized {
    5d1a:	0003      	movs	r3, r0
    5d1c:	e7ee      	b.n	5cfc <_ZN26DoubleBufferedEPOutHandler14handleEndpointEv+0x4e>
				last1 = usbd.epBank0ByteCount(ep);
    5d1e:	6322      	str	r2, [r4, #48]	; 0x30
				if (last1 != 0) {
    5d20:	6b22      	ldr	r2, [r4, #48]	; 0x30
    5d22:	2a00      	cmp	r2, #0
    5d24:	d01c      	beq.n	5d60 <_ZN26DoubleBufferedEPOutHandler14handleEndpointEv+0xb2>
					incoming = 0;
    5d26:	2200      	movs	r2, #0
    5d28:	6162      	str	r2, [r4, #20]
	inline void epBank0SetAddress(ep_t ep, void *addr) { EP[ep].DeviceDescBank[0].ADDR.reg = (uint32_t)addr; }
    5d2a:	69a2      	ldr	r2, [r4, #24]
					synchronized {
    5d2c:	4668      	mov	r0, sp
	inline void epBank0SetAddress(ep_t ep, void *addr) { EP[ep].DeviceDescBank[0].ADDR.reg = (uint32_t)addr; }
    5d2e:	605a      	str	r2, [r3, #4]
					synchronized {
    5d30:	f7ff fece 	bl	5ad0 <_ZN7__GuardC1Ev>
						ready1 = true;
    5d34:	0026      	movs	r6, r4
    5d36:	0021      	movs	r1, r4
    5d38:	9b01      	ldr	r3, [sp, #4]
    5d3a:	3634      	adds	r6, #52	; 0x34
    5d3c:	3b01      	subs	r3, #1
						if (ready0) {
    5d3e:	1d67      	adds	r7, r4, #5
    5d40:	3135      	adds	r1, #53	; 0x35
					synchronized {
    5d42:	1c5a      	adds	r2, r3, #1
    5d44:	d008      	beq.n	5d58 <_ZN26DoubleBufferedEPOutHandler14handleEndpointEv+0xaa>
						ready1 = true;
    5d46:	7035      	strb	r5, [r6, #0]
						if (ready0) {
    5d48:	7ffa      	ldrb	r2, [r7, #31]
    5d4a:	1e58      	subs	r0, r3, #1
    5d4c:	b2d2      	uxtb	r2, r2
    5d4e:	2a00      	cmp	r2, #0
    5d50:	d1dc      	bne.n	5d0c <_ZN26DoubleBufferedEPOutHandler14handleEndpointEv+0x5e>
						notify = false;
    5d52:	700a      	strb	r2, [r1, #0]
					synchronized {
    5d54:	0003      	movs	r3, r0
    5d56:	e7f4      	b.n	5d42 <_ZN26DoubleBufferedEPOutHandler14handleEndpointEv+0x94>
    5d58:	4668      	mov	r0, sp
    5d5a:	9301      	str	r3, [sp, #4]
    5d5c:	f7ff febf 	bl	5ade <_ZN7__GuardD1Ev>
			release();
    5d60:	0020      	movs	r0, r4
    5d62:	f7ff fef3 	bl	5b4c <_ZN26DoubleBufferedEPOutHandler7releaseEv>
    5d66:	e7d6      	b.n	5d16 <_ZN26DoubleBufferedEPOutHandler14handleEndpointEv+0x68>

00005d68 <_ZN14USBDeviceClass14SendInterfacesEPm>:
{
    5d68:	b537      	push	{r0, r1, r2, r4, r5, lr}
	uint8_t interfaces = 0;
    5d6a:	466b      	mov	r3, sp
    5d6c:	1ddc      	adds	r4, r3, #7
    5d6e:	2300      	movs	r3, #0
{
    5d70:	000d      	movs	r5, r1
	total[0] += CDC_GetInterface(&interfaces);
    5d72:	0020      	movs	r0, r4
	uint8_t interfaces = 0;
    5d74:	7023      	strb	r3, [r4, #0]
	total[0] += CDC_GetInterface(&interfaces);
    5d76:	f7ff fd65 	bl	5844 <_Z16CDC_GetInterfacePh>
    5d7a:	682b      	ldr	r3, [r5, #0]
    5d7c:	1818      	adds	r0, r3, r0
    5d7e:	6028      	str	r0, [r5, #0]
	total[0] += PluggableUSB().getInterface(&interfaces);
    5d80:	f001 fb4e 	bl	7420 <_Z12PluggableUSBv>
    5d84:	0021      	movs	r1, r4
    5d86:	f001 fb07 	bl	7398 <_ZN13PluggableUSB_12getInterfaceEPh>
    5d8a:	682b      	ldr	r3, [r5, #0]
    5d8c:	1818      	adds	r0, r3, r0
    5d8e:	6028      	str	r0, [r5, #0]
	return interfaces;
    5d90:	7820      	ldrb	r0, [r4, #0]
}
    5d92:	bd3e      	pop	{r1, r2, r3, r4, r5, pc}

00005d94 <_ZN14USBDeviceClass14handleEndpointEh>:
	if (ep == CDC_ENDPOINT_IN)
    5d94:	2903      	cmp	r1, #3
    5d96:	d10e      	bne.n	5db6 <_ZN14USBDeviceClass14handleEndpointEh+0x22>
	inline void epBank1ResetReady(ep_t ep) { usb.DeviceEndpoint[ep].EPSTATUSCLR.bit.BK1RDY = 1; }
    5d98:	2280      	movs	r2, #128	; 0x80
    5d9a:	4b0e      	ldr	r3, [pc, #56]	; (5dd4 <_ZN14USBDeviceClass14handleEndpointEh+0x40>)
    5d9c:	3162      	adds	r1, #98	; 0x62
    5d9e:	681b      	ldr	r3, [r3, #0]
    5da0:	31ff      	adds	r1, #255	; 0xff
    5da2:	5c58      	ldrb	r0, [r3, r1]
    5da4:	4252      	negs	r2, r2
    5da6:	4302      	orrs	r2, r0
    5da8:	545a      	strb	r2, [r3, r1]
	inline void epBank1AckTransferComplete(ep_t ep) { usb.DeviceEndpoint[ep].EPINTFLAG.reg = USB_DEVICE_EPINTFLAG_TRCPT(2); }
    5daa:	2268      	movs	r2, #104	; 0x68
    5dac:	3963      	subs	r1, #99	; 0x63
    5dae:	39ff      	subs	r1, #255	; 0xff
    5db0:	32ff      	adds	r2, #255	; 0xff
    5db2:	5499      	strb	r1, [r3, r2]
}
    5db4:	4770      	bx	lr
	if (ep == CDC_ENDPOINT_ACM)
    5db6:	2901      	cmp	r1, #1
    5db8:	d1fc      	bne.n	5db4 <_ZN14USBDeviceClass14handleEndpointEh+0x20>
	inline void epBank1ResetReady(ep_t ep) { usb.DeviceEndpoint[ep].EPSTATUSCLR.bit.BK1RDY = 1; }
    5dba:	2280      	movs	r2, #128	; 0x80
    5dbc:	4b05      	ldr	r3, [pc, #20]	; (5dd4 <_ZN14USBDeviceClass14handleEndpointEh+0x40>)
    5dbe:	3124      	adds	r1, #36	; 0x24
    5dc0:	681b      	ldr	r3, [r3, #0]
    5dc2:	31ff      	adds	r1, #255	; 0xff
    5dc4:	5c58      	ldrb	r0, [r3, r1]
    5dc6:	4252      	negs	r2, r2
    5dc8:	4302      	orrs	r2, r0
    5dca:	545a      	strb	r2, [r3, r1]
	inline void epBank1AckTransferComplete(ep_t ep) { usb.DeviceEndpoint[ep].EPINTFLAG.reg = USB_DEVICE_EPINTFLAG_TRCPT(2); }
    5dcc:	3923      	subs	r1, #35	; 0x23
    5dce:	39ff      	subs	r1, #255	; 0xff
    5dd0:	2228      	movs	r2, #40	; 0x28
    5dd2:	e7ed      	b.n	5db0 <_ZN14USBDeviceClass14handleEndpointEh+0x1c>
    5dd4:	20000b18 	.word	0x20000b18

00005dd8 <_ZN14USBDeviceClass4initEv>:
	PM->APBBMASK.reg |= PM_APBBMASK_USB;
    5dd8:	2320      	movs	r3, #32
{
    5dda:	b570      	push	{r4, r5, r6, lr}
	PM->APBBMASK.reg |= PM_APBBMASK_USB;
    5ddc:	4a25      	ldr	r2, [pc, #148]	; (5e74 <_ZN14USBDeviceClass4initEv+0x9c>)
{
    5dde:	0004      	movs	r4, r0
	PM->APBBMASK.reg |= PM_APBBMASK_USB;
    5de0:	69d1      	ldr	r1, [r2, #28]
	PORT->Group[0].PMUX[PIN_PA24G_USB_DM/2].reg &= ~(0xF << (4 * (PIN_PA24G_USB_DM & 0x01u)));
    5de2:	200f      	movs	r0, #15
	PM->APBBMASK.reg |= PM_APBBMASK_USB;
    5de4:	430b      	orrs	r3, r1
    5de6:	61d3      	str	r3, [r2, #28]
	PORT->Group[0].PINCFG[PIN_PA24G_USB_DM].bit.PMUXEN = 1;
    5de8:	2201      	movs	r2, #1
    5dea:	4923      	ldr	r1, [pc, #140]	; (5e78 <_ZN14USBDeviceClass4initEv+0xa0>)
    5dec:	780b      	ldrb	r3, [r1, #0]
    5dee:	4313      	orrs	r3, r2
    5df0:	700b      	strb	r3, [r1, #0]
	PORT->Group[0].PMUX[PIN_PA24G_USB_DM/2].reg &= ~(0xF << (4 * (PIN_PA24G_USB_DM & 0x01u)));
    5df2:	4b22      	ldr	r3, [pc, #136]	; (5e7c <_ZN14USBDeviceClass4initEv+0xa4>)
    5df4:	7819      	ldrb	r1, [r3, #0]
    5df6:	4381      	bics	r1, r0
    5df8:	7019      	strb	r1, [r3, #0]
	PORT->Group[0].PMUX[PIN_PA24G_USB_DM/2].reg |= MUX_PA24G_USB_DM << (4 * (PIN_PA24G_USB_DM & 0x01u));
    5dfa:	2106      	movs	r1, #6
    5dfc:	781d      	ldrb	r5, [r3, #0]
    5dfe:	4329      	orrs	r1, r5
    5e00:	7019      	strb	r1, [r3, #0]
	PORT->Group[0].PINCFG[PIN_PA25G_USB_DP].bit.PMUXEN = 1;
    5e02:	491f      	ldr	r1, [pc, #124]	; (5e80 <_ZN14USBDeviceClass4initEv+0xa8>)
    5e04:	780d      	ldrb	r5, [r1, #0]
    5e06:	432a      	orrs	r2, r5
    5e08:	700a      	strb	r2, [r1, #0]
	PORT->Group[0].PMUX[PIN_PA25G_USB_DP/2].reg &= ~(0xF << (4 * (PIN_PA25G_USB_DP & 0x01u)));
    5e0a:	781a      	ldrb	r2, [r3, #0]
    5e0c:	4002      	ands	r2, r0
    5e0e:	701a      	strb	r2, [r3, #0]
	PORT->Group[0].PMUX[PIN_PA25G_USB_DP/2].reg |= MUX_PA25G_USB_DP << (4 * (PIN_PA25G_USB_DP & 0x01u));
    5e10:	2260      	movs	r2, #96	; 0x60
    5e12:	7819      	ldrb	r1, [r3, #0]
    5e14:	430a      	orrs	r2, r1
    5e16:	701a      	strb	r2, [r3, #0]
	GCLK->CLKCTRL.reg = GCLK_CLKCTRL_ID(6)     | // Generic Clock Multiplexer 6
    5e18:	4b1a      	ldr	r3, [pc, #104]	; (5e84 <_ZN14USBDeviceClass4initEv+0xac>)
    5e1a:	4a1b      	ldr	r2, [pc, #108]	; (5e88 <_ZN14USBDeviceClass4initEv+0xb0>)
    5e1c:	805a      	strh	r2, [r3, #2]
	while (GCLK->STATUS.bit.SYNCBUSY)
    5e1e:	785a      	ldrb	r2, [r3, #1]
    5e20:	09d2      	lsrs	r2, r2, #7
    5e22:	d1fc      	bne.n	5e1e <_ZN14USBDeviceClass4initEv+0x46>
	USB_SetHandler(&UDD_Handler);
    5e24:	4819      	ldr	r0, [pc, #100]	; (5e8c <_ZN14USBDeviceClass4initEv+0xb4>)
    5e26:	f7ff fab3 	bl	5390 <USB_SetHandler>
	usbd.reset();
    5e2a:	4d19      	ldr	r5, [pc, #100]	; (5e90 <_ZN14USBDeviceClass4initEv+0xb8>)
    5e2c:	0028      	movs	r0, r5
    5e2e:	f7ff fe0d 	bl	5a4c <_ZN20USBDevice_SAMD21G18x5resetEv>
	usbd.calibrate();
    5e32:	0028      	movs	r0, r5
    5e34:	f7ff fe1c 	bl	5a70 <_ZN20USBDevice_SAMD21G18x9calibrateEv>
	inline void setUSBDeviceMode() { usb.CTRLA.bit.MODE = USB_CTRLA_MODE_DEVICE_Val; }
    5e38:	217f      	movs	r1, #127	; 0x7f
    5e3a:	682b      	ldr	r3, [r5, #0]
    NVIC->IP[_IP_IDX(IRQn)]  = ((uint32_t)(NVIC->IP[_IP_IDX(IRQn)]  & ~(0xFFUL << _BIT_SHIFT(IRQn))) |
    5e3c:	20c1      	movs	r0, #193	; 0xc1
    5e3e:	781a      	ldrb	r2, [r3, #0]
    5e40:	0080      	lsls	r0, r0, #2
    5e42:	400a      	ands	r2, r1
    5e44:	701a      	strb	r2, [r3, #0]
	inline void runInStandby()   { usb.CTRLA.bit.RUNSTDBY = 1; }
    5e46:	2204      	movs	r2, #4
    5e48:	7819      	ldrb	r1, [r3, #0]
    5e4a:	430a      	orrs	r2, r1
	inline void setFullSpeed()       { usb.CTRLB.bit.SPDCONF = USB_DEVICE_CTRLB_SPDCONF_FS_Val;   }
    5e4c:	210c      	movs	r1, #12
	inline void runInStandby()   { usb.CTRLA.bit.RUNSTDBY = 1; }
    5e4e:	701a      	strb	r2, [r3, #0]
	inline void setFullSpeed()       { usb.CTRLB.bit.SPDCONF = USB_DEVICE_CTRLB_SPDCONF_FS_Val;   }
    5e50:	891a      	ldrh	r2, [r3, #8]
    5e52:	438a      	bics	r2, r1
    5e54:	490f      	ldr	r1, [pc, #60]	; (5e94 <_ZN14USBDeviceClass4initEv+0xbc>)
    5e56:	811a      	strh	r2, [r3, #8]
    5e58:	580a      	ldr	r2, [r1, r0]
    5e5a:	0212      	lsls	r2, r2, #8
    5e5c:	0a12      	lsrs	r2, r2, #8
    5e5e:	500a      	str	r2, [r1, r0]
    NVIC->ISER[0U] = (uint32_t)(1UL << (((uint32_t)(int32_t)IRQn) & 0x1FUL));
    5e60:	2280      	movs	r2, #128	; 0x80
    5e62:	600a      	str	r2, [r1, #0]
	inline void enable()  { usb.CTRLA.bit.ENABLE = 1; }
    5e64:	7819      	ldrb	r1, [r3, #0]
    5e66:	3a7e      	subs	r2, #126	; 0x7e
    5e68:	430a      	orrs	r2, r1
    5e6a:	701a      	strb	r2, [r3, #0]
	initialized = true;
    5e6c:	2301      	movs	r3, #1
    5e6e:	7023      	strb	r3, [r4, #0]
}
    5e70:	bd70      	pop	{r4, r5, r6, pc}
    5e72:	46c0      	nop			; (mov r8, r8)
    5e74:	40000400 	.word	0x40000400
    5e78:	41004458 	.word	0x41004458
    5e7c:	4100443c 	.word	0x4100443c
    5e80:	41004459 	.word	0x41004459
    5e84:	40000c00 	.word	0x40000c00
    5e88:	00004006 	.word	0x00004006
    5e8c:	000067f1 	.word	0x000067f1
    5e90:	20000b18 	.word	0x20000b18
    5e94:	e000e100 	.word	0xe000e100

00005e98 <_ZN14USBDeviceClass6attachEv>:
	if (!initialized)
    5e98:	7800      	ldrb	r0, [r0, #0]
    5e9a:	2800      	cmp	r0, #0
    5e9c:	d010      	beq.n	5ec0 <_ZN14USBDeviceClass6attachEv+0x28>
	inline void attach() { usb.CTRLB.bit.DETACH = 0; }
    5e9e:	2101      	movs	r1, #1
    5ea0:	4b08      	ldr	r3, [pc, #32]	; (5ec4 <_ZN14USBDeviceClass6attachEv+0x2c>)
    5ea2:	681b      	ldr	r3, [r3, #0]
    5ea4:	891a      	ldrh	r2, [r3, #8]
    5ea6:	438a      	bics	r2, r1
    5ea8:	811a      	strh	r2, [r3, #8]
	inline void enableEndOfResetInterrupt()    { usb.INTENSET.bit.EORST = 1; }
    5eaa:	2208      	movs	r2, #8
    5eac:	8b19      	ldrh	r1, [r3, #24]
    5eae:	430a      	orrs	r2, r1
    5eb0:	831a      	strh	r2, [r3, #24]
	inline void enableStartOfFrameInterrupt()  { usb.INTENSET.bit.SOF = 1; }
    5eb2:	2204      	movs	r2, #4
    5eb4:	8b19      	ldrh	r1, [r3, #24]
    5eb6:	430a      	orrs	r2, r1
    5eb8:	831a      	strh	r2, [r3, #24]
	_usbConfiguration = 0;
    5eba:	2200      	movs	r2, #0
    5ebc:	4b02      	ldr	r3, [pc, #8]	; (5ec8 <_ZN14USBDeviceClass6attachEv+0x30>)
    5ebe:	601a      	str	r2, [r3, #0]
}
    5ec0:	4770      	bx	lr
    5ec2:	46c0      	nop			; (mov r8, r8)
    5ec4:	20000b18 	.word	0x20000b18
    5ec8:	20000b10 	.word	0x20000b10

00005ecc <_ZN14USBDeviceClass10setAddressEm>:
{
    5ecc:	b510      	push	{r4, lr}
	inline void epBank1SetByteCount(ep_t ep, uint16_t bc) { EP[ep].DeviceDescBank[1].PCKSIZE.bit.BYTE_COUNT = bc; }
    5ece:	4a0f      	ldr	r2, [pc, #60]	; (5f0c <_ZN14USBDeviceClass10setAddressEm+0x40>)
    5ed0:	6993      	ldr	r3, [r2, #24]
    5ed2:	0b9b      	lsrs	r3, r3, #14
    5ed4:	039b      	lsls	r3, r3, #14
    5ed6:	6193      	str	r3, [r2, #24]
	inline void epBank1AckTransferComplete(ep_t ep) { usb.DeviceEndpoint[ep].EPINTFLAG.reg = USB_DEVICE_EPINTFLAG_TRCPT(2); }
    5ed8:	6813      	ldr	r3, [r2, #0]
    5eda:	2202      	movs	r2, #2
    5edc:	33ff      	adds	r3, #255	; 0xff
    5ede:	721a      	strb	r2, [r3, #8]
	inline void epBank1SetReady(ep_t ep)   { usb.DeviceEndpoint[ep].EPSTATUSSET.bit.BK1RDY = 1; }
    5ee0:	7998      	ldrb	r0, [r3, #6]
    5ee2:	3a82      	subs	r2, #130	; 0x82
    5ee4:	4302      	orrs	r2, r0
    5ee6:	719a      	strb	r2, [r3, #6]
	inline bool epBank1IsTransferComplete(ep_t ep)  { return usb.DeviceEndpoint[ep].EPINTFLAG.bit.TRCPT1; }
    5ee8:	7a1a      	ldrb	r2, [r3, #8]
	while (!usbd.epBank1IsTransferComplete(0)) {}
    5eea:	0792      	lsls	r2, r2, #30
    5eec:	d5fc      	bpl.n	5ee8 <_ZN14USBDeviceClass10setAddressEm+0x1c>
	USB->DEVICE.DADD.bit.DADD = addr; // Address
    5eee:	247f      	movs	r4, #127	; 0x7f
    5ef0:	4a07      	ldr	r2, [pc, #28]	; (5f10 <_ZN14USBDeviceClass10setAddressEm+0x44>)
    5ef2:	4021      	ands	r1, r4
    5ef4:	7a93      	ldrb	r3, [r2, #10]
    5ef6:	0008      	movs	r0, r1
    5ef8:	43a3      	bics	r3, r4
    5efa:	0019      	movs	r1, r3
	USB->DEVICE.DADD.bit.ADDEN = 1; // Enable
    5efc:	2380      	movs	r3, #128	; 0x80
	USB->DEVICE.DADD.bit.DADD = addr; // Address
    5efe:	4301      	orrs	r1, r0
    5f00:	7291      	strb	r1, [r2, #10]
	USB->DEVICE.DADD.bit.ADDEN = 1; // Enable
    5f02:	7a91      	ldrb	r1, [r2, #10]
    5f04:	425b      	negs	r3, r3
    5f06:	430b      	orrs	r3, r1
    5f08:	7293      	strb	r3, [r2, #10]
}
    5f0a:	bd10      	pop	{r4, pc}
    5f0c:	20000b18 	.word	0x20000b18
    5f10:	41005000 	.word	0x41005000

00005f14 <_ZN14USBDeviceClass25handleClassInterfaceSetupER8USBSetup>:
{
    5f14:	b510      	push	{r4, lr}
	if (CDC_ACM_INTERFACE == i)
    5f16:	790b      	ldrb	r3, [r1, #4]
{
    5f18:	000c      	movs	r4, r1
	if (CDC_ACM_INTERFACE == i)
    5f1a:	2b00      	cmp	r3, #0
    5f1c:	d10c      	bne.n	5f38 <_ZN14USBDeviceClass25handleClassInterfaceSetupER8USBSetup+0x24>
		if (CDC_Setup(setup) == false) {
    5f1e:	0008      	movs	r0, r1
    5f20:	f7ff fc9e 	bl	5860 <_Z9CDC_SetupR8USBSetup>
    5f24:	2800      	cmp	r0, #0
    5f26:	d001      	beq.n	5f2c <_ZN14USBDeviceClass25handleClassInterfaceSetupER8USBSetup+0x18>
		return true;
    5f28:	2001      	movs	r0, #1
}
    5f2a:	bd10      	pop	{r4, pc}
	inline void epBank1SetByteCount(ep_t ep, uint16_t bc) { EP[ep].DeviceDescBank[1].PCKSIZE.bit.BYTE_COUNT = bc; }
    5f2c:	4a09      	ldr	r2, [pc, #36]	; (5f54 <_ZN14USBDeviceClass25handleClassInterfaceSetupER8USBSetup+0x40>)
    5f2e:	6993      	ldr	r3, [r2, #24]
    5f30:	0b9b      	lsrs	r3, r3, #14
    5f32:	039b      	lsls	r3, r3, #14
    5f34:	6193      	str	r3, [r2, #24]
    5f36:	e7f7      	b.n	5f28 <_ZN14USBDeviceClass25handleClassInterfaceSetupER8USBSetup+0x14>
	bool ret = PluggableUSB().setup(setup);
    5f38:	f001 fa72 	bl	7420 <_Z12PluggableUSBv>
    5f3c:	0021      	movs	r1, r4
    5f3e:	f001 fa5e 	bl	73fe <_ZN13PluggableUSB_5setupER8USBSetup>
	if ( ret == false) {
    5f42:	2800      	cmp	r0, #0
    5f44:	d1f0      	bne.n	5f28 <_ZN14USBDeviceClass25handleClassInterfaceSetupER8USBSetup+0x14>
    5f46:	4a03      	ldr	r2, [pc, #12]	; (5f54 <_ZN14USBDeviceClass25handleClassInterfaceSetupER8USBSetup+0x40>)
    5f48:	6993      	ldr	r3, [r2, #24]
    5f4a:	0b9b      	lsrs	r3, r3, #14
    5f4c:	039b      	lsls	r3, r3, #14
    5f4e:	6193      	str	r3, [r2, #24]
    5f50:	e7eb      	b.n	5f2a <_ZN14USBDeviceClass25handleClassInterfaceSetupER8USBSetup+0x16>
    5f52:	46c0      	nop			; (mov r8, r8)
    5f54:	20000b18 	.word	0x20000b18

00005f58 <_ZN14USBDeviceClass6initEPEmm>:
{
    5f58:	b5f7      	push	{r0, r1, r2, r4, r5, r6, r7, lr}
    5f5a:	000d      	movs	r5, r1
	if (config == (USB_ENDPOINT_TYPE_INTERRUPT | USB_ENDPOINT_IN(0)))
    5f5c:	2a83      	cmp	r2, #131	; 0x83
    5f5e:	d119      	bne.n	5f94 <_ZN14USBDeviceClass6initEPEmm+0x3c>
	inline void epBank1SetSize(ep_t ep, uint16_t size) { EP[ep].DeviceDescBank[1].PCKSIZE.bit.SIZE = EP_PCKSIZE_SIZE(size); }
    5f60:	b2cb      	uxtb	r3, r1
    5f62:	4c33      	ldr	r4, [pc, #204]	; (6030 <_ZN14USBDeviceClass6initEPEmm+0xd8>)
    5f64:	015a      	lsls	r2, r3, #5
    5f66:	18a2      	adds	r2, r4, r2
    5f68:	6991      	ldr	r1, [r2, #24]
    5f6a:	4832      	ldr	r0, [pc, #200]	; (6034 <_ZN14USBDeviceClass6initEPEmm+0xdc>)
		usbd.epBank1SetAddress(ep, &udd_ep_in_cache_buffer[ep]);
    5f6c:	01ad      	lsls	r5, r5, #6
    5f6e:	4008      	ands	r0, r1
    5f70:	21c0      	movs	r1, #192	; 0xc0
    5f72:	0589      	lsls	r1, r1, #22
    5f74:	4301      	orrs	r1, r0
    5f76:	6191      	str	r1, [r2, #24]
    5f78:	492f      	ldr	r1, [pc, #188]	; (6038 <_ZN14USBDeviceClass6initEPEmm+0xe0>)
	inline void epBank1SetType(ep_t ep, uint8_t type) { usb.DeviceEndpoint[ep].EPCFG.bit.EPTYPE1 = type; }
    5f7a:	6820      	ldr	r0, [r4, #0]
    5f7c:	194d      	adds	r5, r1, r5
    5f7e:	2170      	movs	r1, #112	; 0x70
    5f80:	3308      	adds	r3, #8
	inline void epBank1SetAddress(ep_t ep, void *addr) { EP[ep].DeviceDescBank[1].ADDR.reg = (uint32_t)addr; }
    5f82:	6155      	str	r5, [r2, #20]
	inline void epBank1SetType(ep_t ep, uint8_t type) { usb.DeviceEndpoint[ep].EPCFG.bit.EPTYPE1 = type; }
    5f84:	015b      	lsls	r3, r3, #5
    5f86:	5c1a      	ldrb	r2, [r3, r0]
    5f88:	438a      	bics	r2, r1
    5f8a:	0011      	movs	r1, r2
    5f8c:	2240      	movs	r2, #64	; 0x40
    5f8e:	430a      	orrs	r2, r1
    5f90:	541a      	strb	r2, [r3, r0]
}
    5f92:	bdf7      	pop	{r0, r1, r2, r4, r5, r6, r7, pc}
	else if (config == (USB_ENDPOINT_TYPE_BULK | USB_ENDPOINT_OUT(0)))
    5f94:	2a02      	cmp	r2, #2
    5f96:	d145      	bne.n	6024 <_ZN14USBDeviceClass6initEPEmm+0xcc>
		if (epHandlers[ep] != NULL) {
    5f98:	4a28      	ldr	r2, [pc, #160]	; (603c <_ZN14USBDeviceClass6initEPEmm+0xe4>)
    5f9a:	008b      	lsls	r3, r1, #2
    5f9c:	5898      	ldr	r0, [r3, r2]
    5f9e:	2800      	cmp	r0, #0
    5fa0:	d002      	beq.n	5fa8 <_ZN14USBDeviceClass6initEPEmm+0x50>
			delete (DoubleBufferedEPOutHandler*)epHandlers[ep];
    5fa2:	6803      	ldr	r3, [r0, #0]
    5fa4:	691b      	ldr	r3, [r3, #16]
    5fa6:	4798      	blx	r3
		epHandlers[ep] = new DoubleBufferedEPOutHandler(usbd, ep, 256);
    5fa8:	2038      	movs	r0, #56	; 0x38
    5faa:	f7ff fa73 	bl	5494 <_Znwj>
		notify(false)
    5fae:	4b24      	ldr	r3, [pc, #144]	; (6040 <_ZN14USBDeviceClass6initEPEmm+0xe8>)
    5fb0:	2780      	movs	r7, #128	; 0x80
    5fb2:	6003      	str	r3, [r0, #0]
    5fb4:	2300      	movs	r3, #0
    5fb6:	4e1e      	ldr	r6, [pc, #120]	; (6030 <_ZN14USBDeviceClass6initEPEmm+0xd8>)
    5fb8:	007f      	lsls	r7, r7, #1
    5fba:	1d42      	adds	r2, r0, #5
    5fbc:	6203      	str	r3, [r0, #32]
    5fbe:	6103      	str	r3, [r0, #16]
    5fc0:	6143      	str	r3, [r0, #20]
    5fc2:	61c3      	str	r3, [r0, #28]
    5fc4:	6046      	str	r6, [r0, #4]
    5fc6:	6085      	str	r5, [r0, #8]
    5fc8:	60c7      	str	r7, [r0, #12]
    5fca:	77d3      	strb	r3, [r2, #31]
    5fcc:	322f      	adds	r2, #47	; 0x2f
    5fce:	62c3      	str	r3, [r0, #44]	; 0x2c
    5fd0:	6303      	str	r3, [r0, #48]	; 0x30
    5fd2:	0004      	movs	r4, r0
    5fd4:	7013      	strb	r3, [r2, #0]
		data0 = reinterpret_cast<uint8_t *>(malloc(size));
    5fd6:	0038      	movs	r0, r7
		notify(false)
    5fd8:	7053      	strb	r3, [r2, #1]
		data0 = reinterpret_cast<uint8_t *>(malloc(size));
    5fda:	f003 f9b3 	bl	9344 <malloc>
    5fde:	9001      	str	r0, [sp, #4]
    5fe0:	61a0      	str	r0, [r4, #24]
		data1 = reinterpret_cast<uint8_t *>(malloc(size));
    5fe2:	0038      	movs	r0, r7
    5fe4:	f003 f9ae 	bl	9344 <malloc>
	inline void epBank0SetSize(ep_t ep, uint16_t size) { EP[ep].DeviceDescBank[0].PCKSIZE.bit.SIZE = EP_PCKSIZE_SIZE(size); }
    5fe8:	b2eb      	uxtb	r3, r5
    5fea:	015a      	lsls	r2, r3, #5
		data1 = reinterpret_cast<uint8_t *>(malloc(size));
    5fec:	62a0      	str	r0, [r4, #40]	; 0x28
	inline void epBank0SetSize(ep_t ep, uint16_t size) { EP[ep].DeviceDescBank[0].PCKSIZE.bit.SIZE = EP_PCKSIZE_SIZE(size); }
    5fee:	18b2      	adds	r2, r6, r2
    5ff0:	6891      	ldr	r1, [r2, #8]
    5ff2:	4810      	ldr	r0, [pc, #64]	; (6034 <_ZN14USBDeviceClass6initEPEmm+0xdc>)
	inline void epBank0SetType(ep_t ep, uint8_t type) { usb.DeviceEndpoint[ep].EPCFG.bit.EPTYPE0 = type; }
    5ff4:	3308      	adds	r3, #8
	inline void epBank0SetSize(ep_t ep, uint16_t size) { EP[ep].DeviceDescBank[0].PCKSIZE.bit.SIZE = EP_PCKSIZE_SIZE(size); }
    5ff6:	4008      	ands	r0, r1
    5ff8:	21c0      	movs	r1, #192	; 0xc0
    5ffa:	0589      	lsls	r1, r1, #22
    5ffc:	4301      	orrs	r1, r0
    5ffe:	6091      	str	r1, [r2, #8]
	inline void epBank0SetType(ep_t ep, uint8_t type) { usb.DeviceEndpoint[ep].EPCFG.bit.EPTYPE0 = type; }
    6000:	6831      	ldr	r1, [r6, #0]
    6002:	2607      	movs	r6, #7
    6004:	015b      	lsls	r3, r3, #5
    6006:	5c58      	ldrb	r0, [r3, r1]
    6008:	00ad      	lsls	r5, r5, #2
    600a:	43b0      	bics	r0, r6
    600c:	0006      	movs	r6, r0
    600e:	2003      	movs	r0, #3
    6010:	4330      	orrs	r0, r6
    6012:	5458      	strb	r0, [r3, r1]
	inline void epBank0SetAddress(ep_t ep, void *addr) { EP[ep].DeviceDescBank[0].ADDR.reg = (uint32_t)addr; }
    6014:	9b01      	ldr	r3, [sp, #4]
		release();
    6016:	0020      	movs	r0, r4
	inline void epBank0SetAddress(ep_t ep, void *addr) { EP[ep].DeviceDescBank[0].ADDR.reg = (uint32_t)addr; }
    6018:	6053      	str	r3, [r2, #4]
		release();
    601a:	f7ff fd97 	bl	5b4c <_ZN26DoubleBufferedEPOutHandler7releaseEv>
    601e:	4b07      	ldr	r3, [pc, #28]	; (603c <_ZN14USBDeviceClass6initEPEmm+0xe4>)
    6020:	515c      	str	r4, [r3, r5]
    6022:	e7b6      	b.n	5f92 <_ZN14USBDeviceClass6initEPEmm+0x3a>
    6024:	0011      	movs	r1, r2
    6026:	0028      	movs	r0, r5
    6028:	f7ff fca8 	bl	597c <_ZN14USBDeviceClass6initEPEmm.part.5>
}
    602c:	e7b1      	b.n	5f92 <_ZN14USBDeviceClass6initEPEmm+0x3a>
    602e:	46c0      	nop			; (mov r8, r8)
    6030:	20000b18 	.word	0x20000b18
    6034:	8fffffff 	.word	0x8fffffff
    6038:	2000068c 	.word	0x2000068c
    603c:	20000664 	.word	0x20000664
    6040:	0000b9fc 	.word	0x0000b9fc

00006044 <_ZN14USBDeviceClass13initEndpointsEv>:
void USBDeviceClass::initEndpoints() {
    6044:	b570      	push	{r4, r5, r6, lr}
    6046:	0005      	movs	r5, r0
    6048:	2401      	movs	r4, #1
	for (uint8_t i = 1; i < sizeof(EndPoints) && EndPoints[i] != 0; i++) {
    604a:	4b06      	ldr	r3, [pc, #24]	; (6064 <_ZN14USBDeviceClass13initEndpointsEv+0x20>)
    604c:	00a2      	lsls	r2, r4, #2
    604e:	58d2      	ldr	r2, [r2, r3]
    6050:	2a00      	cmp	r2, #0
    6052:	d005      	beq.n	6060 <_ZN14USBDeviceClass13initEndpointsEv+0x1c>
		initEP(i, EndPoints[i]);
    6054:	0021      	movs	r1, r4
    6056:	0028      	movs	r0, r5
    6058:	f7ff ff7e 	bl	5f58 <_ZN14USBDeviceClass6initEPEmm>
    605c:	3401      	adds	r4, #1
	for (uint8_t i = 1; i < sizeof(EndPoints) && EndPoints[i] != 0; i++) {
    605e:	e7f4      	b.n	604a <_ZN14USBDeviceClass13initEndpointsEv+0x6>
}
    6060:	bd70      	pop	{r4, r5, r6, pc}
    6062:	46c0      	nop			; (mov r8, r8)
    6064:	20000060 	.word	0x20000060

00006068 <_ZN14USBDeviceClass9availableEm>:
}

// Number of bytes, assumes a rx endpoint
uint32_t USBDeviceClass::available(uint32_t ep)
{
	if (epHandlers[ep]) {
    6068:	4b08      	ldr	r3, [pc, #32]	; (608c <_ZN14USBDeviceClass9availableEm+0x24>)
    606a:	008a      	lsls	r2, r1, #2
    606c:	58d0      	ldr	r0, [r2, r3]
{
    606e:	b510      	push	{r4, lr}
	if (epHandlers[ep]) {
    6070:	2800      	cmp	r0, #0
    6072:	d003      	beq.n	607c <_ZN14USBDeviceClass9availableEm+0x14>
		return epHandlers[ep]->available();
    6074:	6803      	ldr	r3, [r0, #0]
    6076:	689b      	ldr	r3, [r3, #8]
    6078:	4798      	blx	r3
	} else {
		return usbd.epBank0ByteCount(ep);
	}
}
    607a:	bd10      	pop	{r4, pc}
	inline uint16_t epBank0ByteCount(ep_t ep) { return EP[ep].DeviceDescBank[0].PCKSIZE.bit.BYTE_COUNT; }
    607c:	b2c9      	uxtb	r1, r1
    607e:	4b04      	ldr	r3, [pc, #16]	; (6090 <_ZN14USBDeviceClass9availableEm+0x28>)
    6080:	0149      	lsls	r1, r1, #5
    6082:	1859      	adds	r1, r3, r1
    6084:	6888      	ldr	r0, [r1, #8]
    6086:	0480      	lsls	r0, r0, #18
    6088:	0c80      	lsrs	r0, r0, #18
		return usbd.epBank0ByteCount(ep);
    608a:	e7f6      	b.n	607a <_ZN14USBDeviceClass9availableEm+0x12>
    608c:	20000664 	.word	0x20000664
    6090:	20000b18 	.word	0x20000b18

00006094 <_ZN14USBDeviceClass5flushEm>:
{
    6094:	b510      	push	{r4, lr}
    6096:	000c      	movs	r4, r1
	if (available(ep)) {
    6098:	f7ff ffe6 	bl	6068 <_ZN14USBDeviceClass9availableEm>
    609c:	2800      	cmp	r0, #0
    609e:	d00c      	beq.n	60ba <_ZN14USBDeviceClass5flushEm+0x26>
	inline void epBank1SetReady(ep_t ep)   { usb.DeviceEndpoint[ep].EPSTATUSSET.bit.BK1RDY = 1; }
    60a0:	4b06      	ldr	r3, [pc, #24]	; (60bc <_ZN14USBDeviceClass5flushEm+0x28>)
    60a2:	b2e4      	uxtb	r4, r4
    60a4:	681b      	ldr	r3, [r3, #0]
    60a6:	3408      	adds	r4, #8
    60a8:	0164      	lsls	r4, r4, #5
    60aa:	191c      	adds	r4, r3, r4
    60ac:	2380      	movs	r3, #128	; 0x80
    60ae:	7962      	ldrb	r2, [r4, #5]
    60b0:	425b      	negs	r3, r3
    60b2:	4313      	orrs	r3, r2
    60b4:	7163      	strb	r3, [r4, #5]
	inline void epBank1AckTransferComplete(ep_t ep) { usb.DeviceEndpoint[ep].EPINTFLAG.reg = USB_DEVICE_EPINTFLAG_TRCPT(2); }
    60b6:	2302      	movs	r3, #2
    60b8:	71e3      	strb	r3, [r4, #7]
}
    60ba:	bd10      	pop	{r4, pc}
    60bc:	20000b18 	.word	0x20000b18

000060c0 <_ZN14USBDeviceClass14armRecvCtrlOUTEm>:
		return c;
	}
}

uint8_t USBDeviceClass::armRecvCtrlOUT(uint32_t ep)
{
    60c0:	b570      	push	{r4, r5, r6, lr}
	// Get endpoint configuration from setting register
	usbd.epBank0SetAddress(ep, &udd_ep_out_cache_buffer[ep]);
    60c2:	4b13      	ldr	r3, [pc, #76]	; (6110 <_ZN14USBDeviceClass14armRecvCtrlOUTEm+0x50>)
	inline void epBank0SetAddress(ep_t ep, void *addr) { EP[ep].DeviceDescBank[0].ADDR.reg = (uint32_t)addr; }
    60c4:	b2cc      	uxtb	r4, r1
    60c6:	4a13      	ldr	r2, [pc, #76]	; (6114 <_ZN14USBDeviceClass14armRecvCtrlOUTEm+0x54>)
    60c8:	0160      	lsls	r0, r4, #5
    60ca:	0189      	lsls	r1, r1, #6
    60cc:	1859      	adds	r1, r3, r1
    60ce:	1813      	adds	r3, r2, r0
    60d0:	6059      	str	r1, [r3, #4]
	inline void epBank0SetMultiPacketSize(ep_t ep, uint16_t s) { EP[ep].DeviceDescBank[0].PCKSIZE.bit.MULTI_PACKET_SIZE = s; }
    60d2:	6899      	ldr	r1, [r3, #8]
    60d4:	4d10      	ldr	r5, [pc, #64]	; (6118 <_ZN14USBDeviceClass14armRecvCtrlOUTEm+0x58>)
	inline void epBank0ResetReady(ep_t ep) { usb.DeviceEndpoint[ep].EPSTATUSCLR.bit.BK0RDY = 1; }
    60d6:	3408      	adds	r4, #8
	inline void epBank0SetMultiPacketSize(ep_t ep, uint16_t s) { EP[ep].DeviceDescBank[0].PCKSIZE.bit.MULTI_PACKET_SIZE = s; }
    60d8:	400d      	ands	r5, r1
    60da:	2180      	movs	r1, #128	; 0x80
    60dc:	0289      	lsls	r1, r1, #10
    60de:	4329      	orrs	r1, r5
	inline void epBank0ResetReady(ep_t ep) { usb.DeviceEndpoint[ep].EPSTATUSCLR.bit.BK0RDY = 1; }
    60e0:	2540      	movs	r5, #64	; 0x40
	inline void epBank0SetMultiPacketSize(ep_t ep, uint16_t s) { EP[ep].DeviceDescBank[0].PCKSIZE.bit.MULTI_PACKET_SIZE = s; }
    60e2:	6099      	str	r1, [r3, #8]
	inline void epBank0SetByteCount(ep_t ep, uint16_t bc) { EP[ep].DeviceDescBank[0].PCKSIZE.bit.BYTE_COUNT = bc; }
    60e4:	6899      	ldr	r1, [r3, #8]
    60e6:	0b89      	lsrs	r1, r1, #14
    60e8:	0389      	lsls	r1, r1, #14
    60ea:	6099      	str	r1, [r3, #8]
	inline void epBank0ResetReady(ep_t ep) { usb.DeviceEndpoint[ep].EPSTATUSCLR.bit.BK0RDY = 1; }
    60ec:	6811      	ldr	r1, [r2, #0]
    60ee:	0163      	lsls	r3, r4, #5
    60f0:	18cb      	adds	r3, r1, r3
    60f2:	791e      	ldrb	r6, [r3, #4]
    60f4:	4335      	orrs	r5, r6
    60f6:	711d      	strb	r5, [r3, #4]
	inline bool epBank0IsReady(ep_t ep)    { return usb.DeviceEndpoint[ep].EPSTATUS.bit.BK0RDY; }
    60f8:	799d      	ldrb	r5, [r3, #6]
	usbd.epBank0SetByteCount(ep, 0);

	usbd.epBank0ResetReady(ep);

	// Wait OUT
	while (!usbd.epBank0IsReady(ep)) {}
    60fa:	066d      	lsls	r5, r5, #25
    60fc:	d5fc      	bpl.n	60f8 <_ZN14USBDeviceClass14armRecvCtrlOUTEm+0x38>
	inline bool epBank0IsTransferComplete(ep_t ep)  { return usb.DeviceEndpoint[ep].EPINTFLAG.bit.TRCPT0; }
    60fe:	0164      	lsls	r4, r4, #5
    6100:	1909      	adds	r1, r1, r4
    6102:	79cb      	ldrb	r3, [r1, #7]
	while (!usbd.epBank0IsTransferComplete(ep)) {}
    6104:	07db      	lsls	r3, r3, #31
    6106:	d5fc      	bpl.n	6102 <_ZN14USBDeviceClass14armRecvCtrlOUTEm+0x42>
	inline uint16_t epBank0ByteCount(ep_t ep) { return EP[ep].DeviceDescBank[0].PCKSIZE.bit.BYTE_COUNT; }
    6108:	1812      	adds	r2, r2, r0
    610a:	6890      	ldr	r0, [r2, #8]
	return usbd.epBank0ByteCount(ep);
    610c:	b2c0      	uxtb	r0, r0
}
    610e:	bd70      	pop	{r4, r5, r6, pc}
    6110:	2000084c 	.word	0x2000084c
    6114:	20000b18 	.word	0x20000b18
    6118:	f0003fff 	.word	0xf0003fff

0000611c <_ZN14USBDeviceClass11recvControlEPvm>:
{
    611c:	b570      	push	{r4, r5, r6, lr}
    611e:	0014      	movs	r4, r2
	inline void epBank0ResetReady(ep_t ep) { usb.DeviceEndpoint[ep].EPSTATUSCLR.bit.BK0RDY = 1; }
    6120:	2240      	movs	r2, #64	; 0x40
    6122:	4b0b      	ldr	r3, [pc, #44]	; (6150 <_ZN14USBDeviceClass11recvControlEPvm+0x34>)
    6124:	000d      	movs	r5, r1
    6126:	681b      	ldr	r3, [r3, #0]
    6128:	33ff      	adds	r3, #255	; 0xff
    612a:	7959      	ldrb	r1, [r3, #5]
    612c:	430a      	orrs	r2, r1
    612e:	715a      	strb	r2, [r3, #5]
	uint32_t read = armRecvCtrlOUT(0);
    6130:	2100      	movs	r1, #0
    6132:	f7ff ffc5 	bl	60c0 <_ZN14USBDeviceClass14armRecvCtrlOUTEm>
    6136:	42a0      	cmp	r0, r4
    6138:	d900      	bls.n	613c <_ZN14USBDeviceClass11recvControlEPvm+0x20>
    613a:	0020      	movs	r0, r4
	for (uint32_t i=0; i<len; i++) {
    613c:	2300      	movs	r3, #0
		data[i] = buffer[i];
    613e:	4905      	ldr	r1, [pc, #20]	; (6154 <_ZN14USBDeviceClass11recvControlEPvm+0x38>)
	for (uint32_t i=0; i<len; i++) {
    6140:	42a3      	cmp	r3, r4
    6142:	d003      	beq.n	614c <_ZN14USBDeviceClass11recvControlEPvm+0x30>
		data[i] = buffer[i];
    6144:	5c5a      	ldrb	r2, [r3, r1]
    6146:	54ea      	strb	r2, [r5, r3]
	for (uint32_t i=0; i<len; i++) {
    6148:	3301      	adds	r3, #1
    614a:	e7f9      	b.n	6140 <_ZN14USBDeviceClass11recvControlEPvm+0x24>
}
    614c:	bd70      	pop	{r4, r5, r6, pc}
    614e:	46c0      	nop			; (mov r8, r8)
    6150:	20000b18 	.word	0x20000b18
    6154:	2000084c 	.word	0x2000084c

00006158 <_ZN14USBDeviceClass7armRecvEm>:

uint8_t USBDeviceClass::armRecv(uint32_t ep)
{
    6158:	b510      	push	{r4, lr}
	inline uint16_t epBank0ByteCount(ep_t ep) { return EP[ep].DeviceDescBank[0].PCKSIZE.bit.BYTE_COUNT; }
    615a:	b2c9      	uxtb	r1, r1
    615c:	480b      	ldr	r0, [pc, #44]	; (618c <_ZN14USBDeviceClass7armRecvEm+0x34>)
    615e:	0149      	lsls	r1, r1, #5
    6160:	1842      	adds	r2, r0, r1
    6162:	6893      	ldr	r3, [r2, #8]
    6164:	049b      	lsls	r3, r3, #18
    6166:	0c9b      	lsrs	r3, r3, #18
	uint16_t count = usbd.epBank0ByteCount(ep);
	if (count >= 64) {
    6168:	2b3f      	cmp	r3, #63	; 0x3f
    616a:	dd0b      	ble.n	6184 <_ZN14USBDeviceClass7armRecvEm+0x2c>
	inline void epBank0SetByteCount(ep_t ep, uint16_t bc) { EP[ep].DeviceDescBank[0].PCKSIZE.bit.BYTE_COUNT = bc; }
    616c:	6894      	ldr	r4, [r2, #8]
		usbd.epBank0SetByteCount(ep, count - 64);
    616e:	3b40      	subs	r3, #64	; 0x40
    6170:	049b      	lsls	r3, r3, #18
    6172:	0ba4      	lsrs	r4, r4, #14
    6174:	0c9b      	lsrs	r3, r3, #18
    6176:	03a4      	lsls	r4, r4, #14
    6178:	4323      	orrs	r3, r4
    617a:	6093      	str	r3, [r2, #8]
	inline uint16_t epBank0ByteCount(ep_t ep) { return EP[ep].DeviceDescBank[0].PCKSIZE.bit.BYTE_COUNT; }
    617c:	1841      	adds	r1, r0, r1
    617e:	6888      	ldr	r0, [r1, #8]
	} else {
		usbd.epBank0SetByteCount(ep, 0);
	}
	return usbd.epBank0ByteCount(ep);
    6180:	b2c0      	uxtb	r0, r0
}
    6182:	bd10      	pop	{r4, pc}
	inline void epBank0SetByteCount(ep_t ep, uint16_t bc) { EP[ep].DeviceDescBank[0].PCKSIZE.bit.BYTE_COUNT = bc; }
    6184:	6893      	ldr	r3, [r2, #8]
    6186:	0b9b      	lsrs	r3, r3, #14
    6188:	039b      	lsls	r3, r3, #14
    618a:	e7f6      	b.n	617a <_ZN14USBDeviceClass7armRecvEm+0x22>
    618c:	20000b18 	.word	0x20000b18

00006190 <_ZN14USBDeviceClass4recvEmPvm>:
{
    6190:	b5f0      	push	{r4, r5, r6, r7, lr}
    6192:	001c      	movs	r4, r3
	if (!_usbConfiguration)
    6194:	4b2a      	ldr	r3, [pc, #168]	; (6240 <_ZN14USBDeviceClass4recvEmPvm+0xb0>)
{
    6196:	b085      	sub	sp, #20
	if (!_usbConfiguration)
    6198:	681b      	ldr	r3, [r3, #0]
{
    619a:	0006      	movs	r6, r0
    619c:	000d      	movs	r5, r1
    619e:	9201      	str	r2, [sp, #4]
	if (!_usbConfiguration)
    61a0:	2b00      	cmp	r3, #0
    61a2:	d04a      	beq.n	623a <_ZN14USBDeviceClass4recvEmPvm+0xaa>
	if (epHandlers[ep]) {
    61a4:	4b27      	ldr	r3, [pc, #156]	; (6244 <_ZN14USBDeviceClass4recvEmPvm+0xb4>)
    61a6:	008a      	lsls	r2, r1, #2
    61a8:	58d0      	ldr	r0, [r2, r3]
    61aa:	2800      	cmp	r0, #0
    61ac:	d008      	beq.n	61c0 <_ZN14USBDeviceClass4recvEmPvm+0x30>
		return epHandlers[ep]->recv(_data, len);
    61ae:	6803      	ldr	r3, [r0, #0]
    61b0:	0022      	movs	r2, r4
    61b2:	685b      	ldr	r3, [r3, #4]
    61b4:	9901      	ldr	r1, [sp, #4]
    61b6:	4798      	blx	r3
    61b8:	0004      	movs	r4, r0
}
    61ba:	0020      	movs	r0, r4
    61bc:	b005      	add	sp, #20
    61be:	bdf0      	pop	{r4, r5, r6, r7, pc}
	if (available(ep) < len)
    61c0:	0030      	movs	r0, r6
    61c2:	f7ff ff51 	bl	6068 <_ZN14USBDeviceClass9availableEm>
    61c6:	4284      	cmp	r4, r0
    61c8:	d904      	bls.n	61d4 <_ZN14USBDeviceClass4recvEmPvm+0x44>
		len = available(ep);
    61ca:	0029      	movs	r1, r5
    61cc:	0030      	movs	r0, r6
    61ce:	f7ff ff4b 	bl	6068 <_ZN14USBDeviceClass9availableEm>
    61d2:	0004      	movs	r4, r0
	armRecv(ep);
    61d4:	0029      	movs	r1, r5
    61d6:	0030      	movs	r0, r6
    61d8:	f7ff ffbe 	bl	6158 <_ZN14USBDeviceClass7armRecvEm>
	inline void epBank0DisableTransferComplete(ep_t ep) { usb.DeviceEndpoint[ep].EPINTENCLR.bit.TRCPT0 = 1; }
    61dc:	2101      	movs	r1, #1
    61de:	b2eb      	uxtb	r3, r5
    61e0:	4f19      	ldr	r7, [pc, #100]	; (6248 <_ZN14USBDeviceClass4recvEmPvm+0xb8>)
    61e2:	9303      	str	r3, [sp, #12]
    61e4:	015b      	lsls	r3, r3, #5
    61e6:	9302      	str	r3, [sp, #8]
    61e8:	9a02      	ldr	r2, [sp, #8]
    61ea:	683b      	ldr	r3, [r7, #0]
	memcpy(_data, udd_ep_out_cache_buffer[ep], len);
    61ec:	9801      	ldr	r0, [sp, #4]
    61ee:	189b      	adds	r3, r3, r2
    61f0:	33ff      	adds	r3, #255	; 0xff
    61f2:	7a5a      	ldrb	r2, [r3, #9]
    61f4:	430a      	orrs	r2, r1
    61f6:	4915      	ldr	r1, [pc, #84]	; (624c <_ZN14USBDeviceClass4recvEmPvm+0xbc>)
    61f8:	725a      	strb	r2, [r3, #9]
    61fa:	01ab      	lsls	r3, r5, #6
    61fc:	18c9      	adds	r1, r1, r3
    61fe:	0022      	movs	r2, r4
    6200:	f003 f8d5 	bl	93ae <memcpy>
	if (len && !available(ep)) {
    6204:	2c00      	cmp	r4, #0
    6206:	d0d8      	beq.n	61ba <_ZN14USBDeviceClass4recvEmPvm+0x2a>
    6208:	0029      	movs	r1, r5
    620a:	0030      	movs	r0, r6
    620c:	f7ff ff2c 	bl	6068 <_ZN14USBDeviceClass9availableEm>
    6210:	2800      	cmp	r0, #0
    6212:	d1d2      	bne.n	61ba <_ZN14USBDeviceClass4recvEmPvm+0x2a>
	inline void epBank0ResetReady(ep_t ep) { usb.DeviceEndpoint[ep].EPSTATUSCLR.bit.BK0RDY = 1; }
    6214:	2140      	movs	r1, #64	; 0x40
    6216:	9b03      	ldr	r3, [sp, #12]
    6218:	683a      	ldr	r2, [r7, #0]
    621a:	3308      	adds	r3, #8
    621c:	015b      	lsls	r3, r3, #5
    621e:	18d3      	adds	r3, r2, r3
    6220:	7918      	ldrb	r0, [r3, #4]
    6222:	4301      	orrs	r1, r0
    6224:	7119      	strb	r1, [r3, #4]
	inline void epBank0AckTransferComplete(ep_t ep) { usb.DeviceEndpoint[ep].EPINTFLAG.reg = USB_DEVICE_EPINTFLAG_TRCPT(1); }
    6226:	2101      	movs	r1, #1
    6228:	71d9      	strb	r1, [r3, #7]
	inline void epBank0EnableTransferComplete(ep_t ep) { usb.DeviceEndpoint[ep].EPINTENSET.bit.TRCPT0 = 1; }
    622a:	2101      	movs	r1, #1
    622c:	9b02      	ldr	r3, [sp, #8]
    622e:	18d3      	adds	r3, r2, r3
    6230:	33ff      	adds	r3, #255	; 0xff
    6232:	7a9a      	ldrb	r2, [r3, #10]
    6234:	430a      	orrs	r2, r1
    6236:	729a      	strb	r2, [r3, #10]
    6238:	e7bf      	b.n	61ba <_ZN14USBDeviceClass4recvEmPvm+0x2a>
		return -1;
    623a:	2401      	movs	r4, #1
    623c:	4264      	negs	r4, r4
    623e:	e7bc      	b.n	61ba <_ZN14USBDeviceClass4recvEmPvm+0x2a>
    6240:	20000b10 	.word	0x20000b10
    6244:	20000664 	.word	0x20000664
    6248:	20000b18 	.word	0x20000b18
    624c:	2000084c 	.word	0x2000084c

00006250 <_ZN14USBDeviceClass4recvEm>:
{
    6250:	b513      	push	{r0, r1, r4, lr}
	if (recv(ep, &c, 1) != 1) {
    6252:	466b      	mov	r3, sp
    6254:	1ddc      	adds	r4, r3, #7
    6256:	0022      	movs	r2, r4
    6258:	2301      	movs	r3, #1
    625a:	f7ff ff99 	bl	6190 <_ZN14USBDeviceClass4recvEmPvm>
    625e:	2801      	cmp	r0, #1
    6260:	d101      	bne.n	6266 <_ZN14USBDeviceClass4recvEm+0x16>
		return c;
    6262:	7820      	ldrb	r0, [r4, #0]
}
    6264:	bd16      	pop	{r1, r2, r4, pc}
		return -1;
    6266:	2001      	movs	r0, #1
    6268:	4240      	negs	r0, r0
    626a:	e7fb      	b.n	6264 <_ZN14USBDeviceClass4recvEm+0x14>

0000626c <_ZN14USBDeviceClass4sendEmPKvm>:
	0
};

// Blocking Send of data to an endpoint
uint32_t USBDeviceClass::send(uint32_t ep, const void *data, uint32_t len)
{
    626c:	b5f0      	push	{r4, r5, r6, r7, lr}
    626e:	001e      	movs	r6, r3
	uint32_t written = 0;
	uint32_t length = 0;

	if (!_usbConfiguration)
    6270:	4b35      	ldr	r3, [pc, #212]	; (6348 <_ZN14USBDeviceClass4sendEmPKvm+0xdc>)
{
    6272:	b085      	sub	sp, #20
	if (!_usbConfiguration)
    6274:	681b      	ldr	r3, [r3, #0]
{
    6276:	000f      	movs	r7, r1
    6278:	9201      	str	r2, [sp, #4]
	if (!_usbConfiguration)
    627a:	2b00      	cmp	r3, #0
    627c:	d035      	beq.n	62ea <_ZN14USBDeviceClass4sendEmPKvm+0x7e>
		return -1;
	if (len > 16384)
    627e:	2380      	movs	r3, #128	; 0x80
    6280:	01db      	lsls	r3, r3, #7
    6282:	429e      	cmp	r6, r3
    6284:	d831      	bhi.n	62ea <_ZN14USBDeviceClass4sendEmPKvm+0x7e>
	inline void epBank1SetAddress(ep_t ep, void *addr) { EP[ep].DeviceDescBank[1].ADDR.reg = (uint32_t)addr; }
    6286:	2500      	movs	r5, #0
		} else {
			length = len;
		}

		/* memcopy could be safer in multi threaded environment */
		memcpy(&udd_ep_in_cache_buffer[ep], data, length);
    6288:	4a30      	ldr	r2, [pc, #192]	; (634c <_ZN14USBDeviceClass4sendEmPKvm+0xe0>)
    628a:	018b      	lsls	r3, r1, #6
    628c:	18d3      	adds	r3, r2, r3
    628e:	9302      	str	r3, [sp, #8]
	while (len != 0)
    6290:	2e00      	cmp	r6, #0
    6292:	d02c      	beq.n	62ee <_ZN14USBDeviceClass4sendEmPKvm+0x82>
	inline bool epBank1IsReady(ep_t ep)    { return usb.DeviceEndpoint[ep].EPSTATUS.bit.BK1RDY; }
    6294:	4b2e      	ldr	r3, [pc, #184]	; (6350 <_ZN14USBDeviceClass4sendEmPKvm+0xe4>)
    6296:	681b      	ldr	r3, [r3, #0]
    6298:	9303      	str	r3, [sp, #12]
    629a:	23ff      	movs	r3, #255	; 0xff
    629c:	403b      	ands	r3, r7
    629e:	001c      	movs	r4, r3
    62a0:	9300      	str	r3, [sp, #0]
    62a2:	3408      	adds	r4, #8
    62a4:	9b03      	ldr	r3, [sp, #12]
    62a6:	0164      	lsls	r4, r4, #5
    62a8:	191c      	adds	r4, r3, r4
    62aa:	79a3      	ldrb	r3, [r4, #6]
    62ac:	09db      	lsrs	r3, r3, #7
		if (usbd.epBank1IsReady(ep)) {
    62ae:	d021      	beq.n	62f4 <_ZN14USBDeviceClass4sendEmPKvm+0x88>
			uint32_t timeout = microsecondsToClockCycles(TX_TIMEOUT_MS * 1000) / 23;
    62b0:	4b28      	ldr	r3, [pc, #160]	; (6354 <_ZN14USBDeviceClass4sendEmPKvm+0xe8>)
    62b2:	4929      	ldr	r1, [pc, #164]	; (6358 <_ZN14USBDeviceClass4sendEmPKvm+0xec>)
    62b4:	6818      	ldr	r0, [r3, #0]
    62b6:	f001 f8d7 	bl	7468 <__udivsi3>
    62ba:	4b28      	ldr	r3, [pc, #160]	; (635c <_ZN14USBDeviceClass4sendEmPKvm+0xf0>)
    62bc:	2117      	movs	r1, #23
    62be:	4358      	muls	r0, r3
    62c0:	f001 f8d2 	bl	7468 <__udivsi3>
				if (LastTransmitTimedOut[ep] || timeout-- == 0) {
    62c4:	4b26      	ldr	r3, [pc, #152]	; (6360 <_ZN14USBDeviceClass4sendEmPKvm+0xf4>)
	inline bool epBank1IsTransferComplete(ep_t ep)  { return usb.DeviceEndpoint[ep].EPINTFLAG.bit.TRCPT1; }
    62c6:	79e2      	ldrb	r2, [r4, #7]
			while (!usbd.epBank1IsTransferComplete(ep)) {
    62c8:	0792      	lsls	r2, r2, #30
    62ca:	d413      	bmi.n	62f4 <_ZN14USBDeviceClass4sendEmPKvm+0x88>
				if (LastTransmitTimedOut[ep] || timeout-- == 0) {
    62cc:	5dda      	ldrb	r2, [r3, r7]
    62ce:	2a00      	cmp	r2, #0
    62d0:	d101      	bne.n	62d6 <_ZN14USBDeviceClass4sendEmPKvm+0x6a>
    62d2:	3801      	subs	r0, #1
    62d4:	d2f7      	bcs.n	62c6 <_ZN14USBDeviceClass4sendEmPKvm+0x5a>
					LastTransmitTimedOut[ep] = 1;
    62d6:	2201      	movs	r2, #1
    62d8:	55da      	strb	r2, [r3, r7]
	inline void epBank1SetByteCount(ep_t ep, uint16_t bc) { EP[ep].DeviceDescBank[1].PCKSIZE.bit.BYTE_COUNT = bc; }
    62da:	9b00      	ldr	r3, [sp, #0]
    62dc:	015a      	lsls	r2, r3, #5
    62de:	4b1c      	ldr	r3, [pc, #112]	; (6350 <_ZN14USBDeviceClass4sendEmPKvm+0xe4>)
    62e0:	189b      	adds	r3, r3, r2
    62e2:	699a      	ldr	r2, [r3, #24]
    62e4:	0b92      	lsrs	r2, r2, #14
    62e6:	0392      	lsls	r2, r2, #14
    62e8:	619a      	str	r2, [r3, #24]
					return -1;
    62ea:	2501      	movs	r5, #1
    62ec:	426d      	negs	r5, r5
		written += length;
		len -= length;
		data = (char *)data + length;
	}
	return written;
}
    62ee:	0028      	movs	r0, r5
    62f0:	b005      	add	sp, #20
    62f2:	bdf0      	pop	{r4, r5, r6, r7, pc}
		LastTransmitTimedOut[ep] = 0;
    62f4:	2200      	movs	r2, #0
    62f6:	4b1a      	ldr	r3, [pc, #104]	; (6360 <_ZN14USBDeviceClass4sendEmPKvm+0xf4>)
    62f8:	0034      	movs	r4, r6
    62fa:	55da      	strb	r2, [r3, r7]
    62fc:	2e3f      	cmp	r6, #63	; 0x3f
    62fe:	d900      	bls.n	6302 <_ZN14USBDeviceClass4sendEmPKvm+0x96>
    6300:	243f      	movs	r4, #63	; 0x3f
		memcpy(&udd_ep_in_cache_buffer[ep], data, length);
    6302:	0022      	movs	r2, r4
    6304:	9901      	ldr	r1, [sp, #4]
    6306:	9802      	ldr	r0, [sp, #8]
    6308:	f003 f851 	bl	93ae <memcpy>
	inline void epBank1SetAddress(ep_t ep, void *addr) { EP[ep].DeviceDescBank[1].ADDR.reg = (uint32_t)addr; }
    630c:	9b00      	ldr	r3, [sp, #0]
	inline void epBank1SetByteCount(ep_t ep, uint16_t bc) { EP[ep].DeviceDescBank[1].PCKSIZE.bit.BYTE_COUNT = bc; }
    630e:	04a1      	lsls	r1, r4, #18
	inline void epBank1SetAddress(ep_t ep, void *addr) { EP[ep].DeviceDescBank[1].ADDR.reg = (uint32_t)addr; }
    6310:	015a      	lsls	r2, r3, #5
    6312:	4b0f      	ldr	r3, [pc, #60]	; (6350 <_ZN14USBDeviceClass4sendEmPKvm+0xe4>)
	inline void epBank1SetByteCount(ep_t ep, uint16_t bc) { EP[ep].DeviceDescBank[1].PCKSIZE.bit.BYTE_COUNT = bc; }
    6314:	0c89      	lsrs	r1, r1, #18
	inline void epBank1SetAddress(ep_t ep, void *addr) { EP[ep].DeviceDescBank[1].ADDR.reg = (uint32_t)addr; }
    6316:	189b      	adds	r3, r3, r2
    6318:	9a02      	ldr	r2, [sp, #8]
		written += length;
    631a:	192d      	adds	r5, r5, r4
    631c:	615a      	str	r2, [r3, #20]
	inline void epBank1SetByteCount(ep_t ep, uint16_t bc) { EP[ep].DeviceDescBank[1].PCKSIZE.bit.BYTE_COUNT = bc; }
    631e:	699a      	ldr	r2, [r3, #24]
		len -= length;
    6320:	1b36      	subs	r6, r6, r4
    6322:	0b92      	lsrs	r2, r2, #14
    6324:	0392      	lsls	r2, r2, #14
    6326:	430a      	orrs	r2, r1
    6328:	619a      	str	r2, [r3, #24]
	inline void epBank1AckTransferComplete(ep_t ep) { usb.DeviceEndpoint[ep].EPINTFLAG.reg = USB_DEVICE_EPINTFLAG_TRCPT(2); }
    632a:	9b00      	ldr	r3, [sp, #0]
    632c:	9a03      	ldr	r2, [sp, #12]
    632e:	3308      	adds	r3, #8
    6330:	015b      	lsls	r3, r3, #5
    6332:	18d3      	adds	r3, r2, r3
    6334:	2202      	movs	r2, #2
    6336:	71da      	strb	r2, [r3, #7]
	inline void epBank1SetReady(ep_t ep)   { usb.DeviceEndpoint[ep].EPSTATUSSET.bit.BK1RDY = 1; }
    6338:	7959      	ldrb	r1, [r3, #5]
    633a:	3a82      	subs	r2, #130	; 0x82
    633c:	430a      	orrs	r2, r1
    633e:	715a      	strb	r2, [r3, #5]
		data = (char *)data + length;
    6340:	9b01      	ldr	r3, [sp, #4]
    6342:	191b      	adds	r3, r3, r4
    6344:	9301      	str	r3, [sp, #4]
	while (len != 0)
    6346:	e7a3      	b.n	6290 <_ZN14USBDeviceClass4sendEmPKvm+0x24>
    6348:	20000b10 	.word	0x20000b10
    634c:	2000068c 	.word	0x2000068c
    6350:	20000b18 	.word	0x20000b18
    6354:	20000088 	.word	0x20000088
    6358:	000f4240 	.word	0x000f4240
    635c:	00011170 	.word	0x00011170
    6360:	20000681 	.word	0x20000681

00006364 <_ZN14USBDeviceClass7armSendEmPKvm>:

uint32_t USBDeviceClass::armSend(uint32_t ep, const void* data, uint32_t len)
{
    6364:	b570      	push	{r4, r5, r6, lr}
    6366:	000d      	movs	r5, r1
    6368:	001c      	movs	r4, r3
	memcpy(&udd_ep_in_cache_buffer[ep], data, len);
    636a:	4e0d      	ldr	r6, [pc, #52]	; (63a0 <_ZN14USBDeviceClass7armSendEmPKvm+0x3c>)
    636c:	01ab      	lsls	r3, r5, #6
    636e:	18f6      	adds	r6, r6, r3
{
    6370:	0011      	movs	r1, r2
	memcpy(&udd_ep_in_cache_buffer[ep], data, len);
    6372:	0030      	movs	r0, r6
    6374:	0022      	movs	r2, r4
    6376:	f003 f81a 	bl	93ae <memcpy>
	inline void epBank1SetAddress(ep_t ep, void *addr) { EP[ep].DeviceDescBank[1].ADDR.reg = (uint32_t)addr; }
    637a:	b2ed      	uxtb	r5, r5
    637c:	4909      	ldr	r1, [pc, #36]	; (63a4 <_ZN14USBDeviceClass7armSendEmPKvm+0x40>)
    637e:	016d      	lsls	r5, r5, #5
    6380:	194d      	adds	r5, r1, r5
    6382:	616e      	str	r6, [r5, #20]
	inline void epBank1SetMultiPacketSize(ep_t ep, uint16_t s) { EP[ep].DeviceDescBank[1].PCKSIZE.bit.MULTI_PACKET_SIZE = s; }
    6384:	69ab      	ldr	r3, [r5, #24]
    6386:	4a08      	ldr	r2, [pc, #32]	; (63a8 <_ZN14USBDeviceClass7armSendEmPKvm+0x44>)
	usbd.epBank1SetAddress(ep, &udd_ep_in_cache_buffer[ep]);
	usbd.epBank1SetMultiPacketSize(ep, 0);
	usbd.epBank1SetByteCount(ep, len);

	return len;
}
    6388:	0020      	movs	r0, r4
    638a:	4013      	ands	r3, r2
    638c:	61ab      	str	r3, [r5, #24]
	inline void epBank1SetByteCount(ep_t ep, uint16_t bc) { EP[ep].DeviceDescBank[1].PCKSIZE.bit.BYTE_COUNT = bc; }
    638e:	69ab      	ldr	r3, [r5, #24]
    6390:	04a2      	lsls	r2, r4, #18
    6392:	0b9b      	lsrs	r3, r3, #14
    6394:	0c92      	lsrs	r2, r2, #18
    6396:	039b      	lsls	r3, r3, #14
    6398:	4313      	orrs	r3, r2
    639a:	61ab      	str	r3, [r5, #24]
    639c:	bd70      	pop	{r4, r5, r6, pc}
    639e:	46c0      	nop			; (mov r8, r8)
    63a0:	2000068c 	.word	0x2000068c
    63a4:	20000b18 	.word	0x20000b18
    63a8:	f0003fff 	.word	0xf0003fff

000063ac <_ZN14USBDeviceClass11sendControlEPKvm>:

uint32_t USBDeviceClass::sendControl(const void* _data, uint32_t len)
{
    63ac:	b5f7      	push	{r0, r1, r2, r4, r5, r6, r7, lr}
	const uint8_t *data = reinterpret_cast<const uint8_t *>(_data);
	uint32_t length = len;
	uint32_t sent = 0;
	uint32_t pos = 0;

	if (_dry_run == true)
    63ae:	4b10      	ldr	r3, [pc, #64]	; (63f0 <_ZN14USBDeviceClass11sendControlEPKvm+0x44>)
{
    63b0:	9001      	str	r0, [sp, #4]
	if (_dry_run == true)
    63b2:	781b      	ldrb	r3, [r3, #0]
{
    63b4:	000f      	movs	r7, r1
    63b6:	0015      	movs	r5, r2
	if (_dry_run == true)
    63b8:	2b00      	cmp	r3, #0
    63ba:	d10c      	bne.n	63d6 <_ZN14USBDeviceClass11sendControlEPKvm+0x2a>
		return length;

	if (_pack_message == true) {
    63bc:	4b0d      	ldr	r3, [pc, #52]	; (63f4 <_ZN14USBDeviceClass11sendControlEPKvm+0x48>)
    63be:	0016      	movs	r6, r2
    63c0:	781c      	ldrb	r4, [r3, #0]
    63c2:	2c00      	cmp	r4, #0
    63c4:	d009      	beq.n	63da <_ZN14USBDeviceClass11sendControlEPKvm+0x2e>
		memcpy(&_pack_buffer[_pack_size], data, len);
    63c6:	4e0c      	ldr	r6, [pc, #48]	; (63f8 <_ZN14USBDeviceClass11sendControlEPKvm+0x4c>)
    63c8:	480c      	ldr	r0, [pc, #48]	; (63fc <_ZN14USBDeviceClass11sendControlEPKvm+0x50>)
    63ca:	8834      	ldrh	r4, [r6, #0]
    63cc:	1900      	adds	r0, r0, r4
		_pack_size += len;
    63ce:	1964      	adds	r4, r4, r5
		memcpy(&_pack_buffer[_pack_size], data, len);
    63d0:	f002 ffed 	bl	93ae <memcpy>
		_pack_size += len;
    63d4:	8034      	strh	r4, [r6, #0]
		pos += sent;
		len -= sent;
 	}

	return length;
}
    63d6:	0028      	movs	r0, r5
    63d8:	bdfe      	pop	{r1, r2, r3, r4, r5, r6, r7, pc}
 	while (len > 0)
    63da:	2e00      	cmp	r6, #0
    63dc:	d0fb      	beq.n	63d6 <_ZN14USBDeviceClass11sendControlEPKvm+0x2a>
		sent = armSend(EP0, data + pos, len);
    63de:	193a      	adds	r2, r7, r4
    63e0:	0033      	movs	r3, r6
    63e2:	2100      	movs	r1, #0
    63e4:	9801      	ldr	r0, [sp, #4]
    63e6:	f7ff ffbd 	bl	6364 <_ZN14USBDeviceClass7armSendEmPKvm>
		pos += sent;
    63ea:	1824      	adds	r4, r4, r0
		len -= sent;
    63ec:	1a36      	subs	r6, r6, r0
 	while (len > 0)
    63ee:	e7f4      	b.n	63da <_ZN14USBDeviceClass11sendControlEPKvm+0x2e>
    63f0:	20000a0c 	.word	0x20000a0c
    63f4:	20000b0d 	.word	0x20000b0d
    63f8:	20000b0e 	.word	0x20000b0e
    63fc:	20000a0d 	.word	0x20000a0d

00006400 <_ZN14USBDeviceClass20sendStringDescriptorEPKhh>:
{
    6400:	b5f8      	push	{r3, r4, r5, r6, r7, lr}
		return false;
    6402:	2000      	movs	r0, #0
{
    6404:	af00      	add	r7, sp, #0
    6406:	000e      	movs	r6, r1
    6408:	0015      	movs	r5, r2
	if (maxlen < 2)
    640a:	2a01      	cmp	r2, #1
    640c:	dd26      	ble.n	645c <_ZN14USBDeviceClass20sendStringDescriptorEPKhh+0x5c>
	uint8_t buffer[maxlen];
    640e:	1dd3      	adds	r3, r2, #7
    6410:	466a      	mov	r2, sp
    6412:	08db      	lsrs	r3, r3, #3
    6414:	00db      	lsls	r3, r3, #3
    6416:	1ad3      	subs	r3, r2, r3
    6418:	469d      	mov	sp, r3
	buffer[0] = strlen((const char*)string) * 2 + 2;
    641a:	0008      	movs	r0, r1
    641c:	f003 fd48 	bl	9eb0 <strlen>
	uint8_t buffer[maxlen];
    6420:	466c      	mov	r4, sp
	buffer[1] = 0x03;
    6422:	2303      	movs	r3, #3
		buffer[i] = 0;
    6424:	2100      	movs	r1, #0
	buffer[0] = strlen((const char*)string) * 2 + 2;
    6426:	3001      	adds	r0, #1
    6428:	0040      	lsls	r0, r0, #1
    642a:	7020      	strb	r0, [r4, #0]
	buffer[1] = 0x03;
    642c:	7063      	strb	r3, [r4, #1]
    642e:	1e5a      	subs	r2, r3, #1
    6430:	b2d2      	uxtb	r2, r2
	for (i = 2; i < maxlen && *string; i++) {
    6432:	4295      	cmp	r5, r2
    6434:	dd0b      	ble.n	644e <_ZN14USBDeviceClass20sendStringDescriptorEPKhh+0x4e>
    6436:	7830      	ldrb	r0, [r6, #0]
    6438:	2800      	cmp	r0, #0
    643a:	d008      	beq.n	644e <_ZN14USBDeviceClass20sendStringDescriptorEPKhh+0x4e>
		buffer[i++] = *string++;
    643c:	3601      	adds	r6, #1
    643e:	54a0      	strb	r0, [r4, r2]
		if (i == maxlen) break;
    6440:	429d      	cmp	r5, r3
    6442:	d003      	beq.n	644c <_ZN14USBDeviceClass20sendStringDescriptorEPKhh+0x4c>
		buffer[i] = 0;
    6444:	54e1      	strb	r1, [r4, r3]
    6446:	3302      	adds	r3, #2
    6448:	b2db      	uxtb	r3, r3
	for (i = 2; i < maxlen && *string; i++) {
    644a:	e7f0      	b.n	642e <_ZN14USBDeviceClass20sendStringDescriptorEPKhh+0x2e>
    644c:	002a      	movs	r2, r5
	return USBDevice.sendControl(buffer, i);
    644e:	0021      	movs	r1, r4
    6450:	4803      	ldr	r0, [pc, #12]	; (6460 <_ZN14USBDeviceClass20sendStringDescriptorEPKhh+0x60>)
    6452:	f7ff ffab 	bl	63ac <_ZN14USBDeviceClass11sendControlEPKvm>
    6456:	1e43      	subs	r3, r0, #1
    6458:	4198      	sbcs	r0, r3
    645a:	b2c0      	uxtb	r0, r0
}
    645c:	46bd      	mov	sp, r7
    645e:	bdf8      	pop	{r3, r4, r5, r6, r7, pc}
    6460:	20000660 	.word	0x20000660

00006464 <_ZN14USBDeviceClass17sendConfigurationEm>:
{
    6464:	b5f0      	push	{r4, r5, r6, r7, lr}
	uint32_t total = 0;
    6466:	2700      	movs	r7, #0
	_dry_run = true;
    6468:	2601      	movs	r6, #1
{
    646a:	b087      	sub	sp, #28
	_dry_run = true;
    646c:	4b1e      	ldr	r3, [pc, #120]	; (64e8 <_ZN14USBDeviceClass17sendConfigurationEm+0x84>)
{
    646e:	9100      	str	r1, [sp, #0]
	uint8_t interfaces = SendInterfaces(&total);
    6470:	a902      	add	r1, sp, #8
	_dry_run = true;
    6472:	701e      	strb	r6, [r3, #0]
{
    6474:	0005      	movs	r5, r0
	uint32_t total = 0;
    6476:	9702      	str	r7, [sp, #8]
	uint8_t interfaces = SendInterfaces(&total);
    6478:	f7ff fc76 	bl	5d68 <_ZN14USBDeviceClass14SendInterfacesEPm>
	ConfigDescriptor config = D_CONFIG((uint16_t)(total + sizeof(ConfigDescriptor)), interfaces);
    647c:	ac03      	add	r4, sp, #12
	uint8_t interfaces = SendInterfaces(&total);
    647e:	9001      	str	r0, [sp, #4]
	ConfigDescriptor config = D_CONFIG((uint16_t)(total + sizeof(ConfigDescriptor)), interfaces);
    6480:	2209      	movs	r2, #9
    6482:	0039      	movs	r1, r7
    6484:	0020      	movs	r0, r4
    6486:	f002 ffad 	bl	93e4 <memset>
    648a:	2309      	movs	r3, #9
    648c:	7023      	strb	r3, [r4, #0]
    648e:	2302      	movs	r3, #2
    6490:	7063      	strb	r3, [r4, #1]
    6492:	339e      	adds	r3, #158	; 0x9e
    6494:	71e3      	strb	r3, [r4, #7]
    6496:	335a      	adds	r3, #90	; 0x5a
    6498:	7223      	strb	r3, [r4, #8]
    649a:	9b02      	ldr	r3, [sp, #8]
    649c:	7166      	strb	r6, [r4, #5]
    649e:	3309      	adds	r3, #9
    64a0:	8063      	strh	r3, [r4, #2]
    64a2:	466b      	mov	r3, sp
    64a4:	791b      	ldrb	r3, [r3, #4]
    64a6:	7123      	strb	r3, [r4, #4]
	_dry_run = false;
    64a8:	4b0f      	ldr	r3, [pc, #60]	; (64e8 <_ZN14USBDeviceClass17sendConfigurationEm+0x84>)
    64aa:	701f      	strb	r7, [r3, #0]
	if (maxlen == sizeof(ConfigDescriptor)) {
    64ac:	9b00      	ldr	r3, [sp, #0]
    64ae:	2b09      	cmp	r3, #9
    64b0:	d107      	bne.n	64c2 <_ZN14USBDeviceClass17sendConfigurationEm+0x5e>
		sendControl(&config, sizeof(ConfigDescriptor));
    64b2:	001a      	movs	r2, r3
    64b4:	0021      	movs	r1, r4
		sendControl(_pack_buffer, _pack_size);
    64b6:	0028      	movs	r0, r5
    64b8:	f7ff ff78 	bl	63ac <_ZN14USBDeviceClass11sendControlEPKvm>
}
    64bc:	2001      	movs	r0, #1
    64be:	b007      	add	sp, #28
    64c0:	bdf0      	pop	{r4, r5, r6, r7, pc}
		_pack_message = true;
    64c2:	4b0a      	ldr	r3, [pc, #40]	; (64ec <_ZN14USBDeviceClass17sendConfigurationEm+0x88>)
	sendControl(&config, sizeof(ConfigDescriptor));
    64c4:	2209      	movs	r2, #9
		_pack_message = true;
    64c6:	701e      	strb	r6, [r3, #0]
		_pack_size = 0;
    64c8:	4e09      	ldr	r6, [pc, #36]	; (64f0 <_ZN14USBDeviceClass17sendConfigurationEm+0x8c>)
	sendControl(&config, sizeof(ConfigDescriptor));
    64ca:	0021      	movs	r1, r4
    64cc:	0028      	movs	r0, r5
	total = 0;
    64ce:	9702      	str	r7, [sp, #8]
		_pack_size = 0;
    64d0:	8037      	strh	r7, [r6, #0]
	sendControl(&config, sizeof(ConfigDescriptor));
    64d2:	f7ff ff6b 	bl	63ac <_ZN14USBDeviceClass11sendControlEPKvm>
	SendInterfaces(&total);
    64d6:	a902      	add	r1, sp, #8
    64d8:	0028      	movs	r0, r5
    64da:	f7ff fc45 	bl	5d68 <_ZN14USBDeviceClass14SendInterfacesEPm>
		_pack_message = false;
    64de:	4b03      	ldr	r3, [pc, #12]	; (64ec <_ZN14USBDeviceClass17sendConfigurationEm+0x88>)
		sendControl(_pack_buffer, _pack_size);
    64e0:	8832      	ldrh	r2, [r6, #0]
		_pack_message = false;
    64e2:	701f      	strb	r7, [r3, #0]
		sendControl(_pack_buffer, _pack_size);
    64e4:	4903      	ldr	r1, [pc, #12]	; (64f4 <_ZN14USBDeviceClass17sendConfigurationEm+0x90>)
    64e6:	e7e6      	b.n	64b6 <_ZN14USBDeviceClass17sendConfigurationEm+0x52>
    64e8:	20000a0c 	.word	0x20000a0c
    64ec:	20000b0d 	.word	0x20000b0d
    64f0:	20000b0e 	.word	0x20000b0e
    64f4:	20000a0d 	.word	0x20000a0d

000064f8 <_ZN14USBDeviceClass14sendDescriptorER8USBSetup>:
{
    64f8:	b570      	push	{r4, r5, r6, lr}
	uint8_t t = setup.wValueH;
    64fa:	78ce      	ldrb	r6, [r1, #3]
{
    64fc:	b092      	sub	sp, #72	; 0x48
    64fe:	0005      	movs	r5, r0
    6500:	000c      	movs	r4, r1
	if (t == USB_CONFIGURATION_DESCRIPTOR_TYPE)
    6502:	2e02      	cmp	r6, #2
    6504:	d108      	bne.n	6518 <_ZN14USBDeviceClass14sendDescriptorER8USBSetup+0x20>
		return USBDevice.sendConfiguration(setup.wLength);
    6506:	88c9      	ldrh	r1, [r1, #6]
    6508:	482b      	ldr	r0, [pc, #172]	; (65b8 <_ZN14USBDeviceClass14sendDescriptorER8USBSetup+0xc0>)
    650a:	f7ff ffab 	bl	6464 <_ZN14USBDeviceClass17sendConfigurationEm>
    650e:	1e43      	subs	r3, r0, #1
    6510:	4198      	sbcs	r0, r3
    6512:	b2c0      	uxtb	r0, r0
}
    6514:	b012      	add	sp, #72	; 0x48
    6516:	bd70      	pop	{r4, r5, r6, pc}
	ret = PluggableUSB().getDescriptor(setup);
    6518:	f000 ff82 	bl	7420 <_Z12PluggableUSBv>
    651c:	0021      	movs	r1, r4
    651e:	f000 ff4f 	bl	73c0 <_ZN13PluggableUSB_13getDescriptorER8USBSetup>
	if (ret != 0) {
    6522:	2800      	cmp	r0, #0
    6524:	d003      	beq.n	652e <_ZN14USBDeviceClass14sendDescriptorER8USBSetup+0x36>
		return (ret > 0 ? true : false);
    6526:	17c3      	asrs	r3, r0, #31
    6528:	1a18      	subs	r0, r3, r0
    652a:	0fc0      	lsrs	r0, r0, #31
    652c:	e7f2      	b.n	6514 <_ZN14USBDeviceClass14sendDescriptorER8USBSetup+0x1c>
	if (t == USB_DEVICE_DESCRIPTOR_TYPE)
    652e:	2e01      	cmp	r6, #1
    6530:	d10b      	bne.n	654a <_ZN14USBDeviceClass14sendDescriptorER8USBSetup+0x52>
		if (setup.wLength == 8)
    6532:	88e2      	ldrh	r2, [r4, #6]
    6534:	4921      	ldr	r1, [pc, #132]	; (65bc <_ZN14USBDeviceClass14sendDescriptorER8USBSetup+0xc4>)
		if (*desc_addr > setup.wLength) {
    6536:	2a11      	cmp	r2, #17
    6538:	dc10      	bgt.n	655c <_ZN14USBDeviceClass14sendDescriptorER8USBSetup+0x64>
			desc_length = setup.wLength;
    653a:	b2d2      	uxtb	r2, r2
	if (desc_length == 0) {
    653c:	2a00      	cmp	r2, #0
    653e:	d00d      	beq.n	655c <_ZN14USBDeviceClass14sendDescriptorER8USBSetup+0x64>
	sendControl(desc_addr, desc_length);
    6540:	0028      	movs	r0, r5
    6542:	f7ff ff33 	bl	63ac <_ZN14USBDeviceClass11sendControlEPKvm>
	return true;
    6546:	2001      	movs	r0, #1
    6548:	e7e4      	b.n	6514 <_ZN14USBDeviceClass14sendDescriptorER8USBSetup+0x1c>
	else if (USB_STRING_DESCRIPTOR_TYPE == t)
    654a:	2e03      	cmp	r6, #3
    654c:	d1e2      	bne.n	6514 <_ZN14USBDeviceClass14sendDescriptorER8USBSetup+0x1c>
		if (setup.wValueL == 0) {
    654e:	78a3      	ldrb	r3, [r4, #2]
    6550:	2b00      	cmp	r3, #0
    6552:	d105      	bne.n	6560 <_ZN14USBDeviceClass14sendDescriptorER8USBSetup+0x68>
		if (*desc_addr > setup.wLength) {
    6554:	88e2      	ldrh	r2, [r4, #6]
    6556:	491a      	ldr	r1, [pc, #104]	; (65c0 <_ZN14USBDeviceClass14sendDescriptorER8USBSetup+0xc8>)
    6558:	2a03      	cmp	r2, #3
    655a:	ddee      	ble.n	653a <_ZN14USBDeviceClass14sendDescriptorER8USBSetup+0x42>
		desc_length = *desc_addr;
    655c:	780a      	ldrb	r2, [r1, #0]
    655e:	e7ef      	b.n	6540 <_ZN14USBDeviceClass14sendDescriptorER8USBSetup+0x48>
		else if (setup.wValueL == IPRODUCT) {
    6560:	2b02      	cmp	r3, #2
    6562:	d105      	bne.n	6570 <_ZN14USBDeviceClass14sendDescriptorER8USBSetup+0x78>
			return sendStringDescriptor(STRING_PRODUCT, setup.wLength);
    6564:	79a2      	ldrb	r2, [r4, #6]
    6566:	4917      	ldr	r1, [pc, #92]	; (65c4 <_ZN14USBDeviceClass14sendDescriptorER8USBSetup+0xcc>)
			return sendStringDescriptor(STRING_MANUFACTURER, setup.wLength);
    6568:	0028      	movs	r0, r5
    656a:	f7ff ff49 	bl	6400 <_ZN14USBDeviceClass20sendStringDescriptorEPKhh>
    656e:	e7d1      	b.n	6514 <_ZN14USBDeviceClass14sendDescriptorER8USBSetup+0x1c>
		else if (setup.wValueL == IMANUFACTURER) {
    6570:	2b01      	cmp	r3, #1
    6572:	d102      	bne.n	657a <_ZN14USBDeviceClass14sendDescriptorER8USBSetup+0x82>
			return sendStringDescriptor(STRING_MANUFACTURER, setup.wLength);
    6574:	79a2      	ldrb	r2, [r4, #6]
    6576:	4914      	ldr	r1, [pc, #80]	; (65c8 <_ZN14USBDeviceClass14sendDescriptorER8USBSetup+0xd0>)
    6578:	e7f6      	b.n	6568 <_ZN14USBDeviceClass14sendDescriptorER8USBSetup+0x70>
		else if (setup.wValueL == ISERIAL) {
    657a:	2b03      	cmp	r3, #3
    657c:	d1ca      	bne.n	6514 <_ZN14USBDeviceClass14sendDescriptorER8USBSetup+0x1c>
			utox8(SERIAL_NUMBER_WORD_0, &name[0]);
    657e:	4b13      	ldr	r3, [pc, #76]	; (65cc <_ZN14USBDeviceClass14sendDescriptorER8USBSetup+0xd4>)
    6580:	a901      	add	r1, sp, #4
    6582:	6818      	ldr	r0, [r3, #0]
    6584:	f7ff f9d4 	bl	5930 <_ZL5utox8mPc>
			utox8(SERIAL_NUMBER_WORD_1, &name[8]);
    6588:	4b11      	ldr	r3, [pc, #68]	; (65d0 <_ZN14USBDeviceClass14sendDescriptorER8USBSetup+0xd8>)
    658a:	a903      	add	r1, sp, #12
    658c:	6818      	ldr	r0, [r3, #0]
    658e:	f7ff f9cf 	bl	5930 <_ZL5utox8mPc>
			utox8(SERIAL_NUMBER_WORD_2, &name[16]);
    6592:	4b10      	ldr	r3, [pc, #64]	; (65d4 <_ZN14USBDeviceClass14sendDescriptorER8USBSetup+0xdc>)
    6594:	a905      	add	r1, sp, #20
    6596:	6818      	ldr	r0, [r3, #0]
    6598:	f7ff f9ca 	bl	5930 <_ZL5utox8mPc>
			utox8(SERIAL_NUMBER_WORD_3, &name[24]);
    659c:	4b0e      	ldr	r3, [pc, #56]	; (65d8 <_ZN14USBDeviceClass14sendDescriptorER8USBSetup+0xe0>)
    659e:	a907      	add	r1, sp, #28
    65a0:	6818      	ldr	r0, [r3, #0]
    65a2:	f7ff f9c5 	bl	5930 <_ZL5utox8mPc>
			PluggableUSB().getShortName(&name[32]);
    65a6:	f000 ff3b 	bl	7420 <_Z12PluggableUSBv>
    65aa:	a909      	add	r1, sp, #36	; 0x24
    65ac:	f000 ff18 	bl	73e0 <_ZN13PluggableUSB_12getShortNameEPc>
			return sendStringDescriptor((uint8_t*)name, setup.wLength);
    65b0:	79a2      	ldrb	r2, [r4, #6]
    65b2:	a901      	add	r1, sp, #4
    65b4:	e7d8      	b.n	6568 <_ZN14USBDeviceClass14sendDescriptorER8USBSetup+0x70>
    65b6:	46c0      	nop			; (mov r8, r8)
    65b8:	20000660 	.word	0x20000660
    65bc:	0000ba36 	.word	0x0000ba36
    65c0:	0000ba26 	.word	0x0000ba26
    65c4:	0000ba10 	.word	0x0000ba10
    65c8:	0000ba2a 	.word	0x0000ba2a
    65cc:	0080a00c 	.word	0x0080a00c
    65d0:	0080a040 	.word	0x0080a040
    65d4:	0080a044 	.word	0x0080a044
    65d8:	0080a048 	.word	0x0080a048

000065dc <_ZN14USBDeviceClass19handleStandardSetupER8USBSetup>:
	// Set the byte count as zero
	usbd.epBank1SetByteCount(ep, 0);
}

bool USBDeviceClass::handleStandardSetup(USBSetup &setup)
{
    65dc:	b573      	push	{r0, r1, r4, r5, r6, lr}
    65de:	0006      	movs	r6, r0
	switch (setup.bRequest) {
    65e0:	7848      	ldrb	r0, [r1, #1]
{
    65e2:	000d      	movs	r5, r1
	switch (setup.bRequest) {
    65e4:	280b      	cmp	r0, #11
    65e6:	d811      	bhi.n	660c <_ZN14USBDeviceClass19handleStandardSetupER8USBSetup+0x30>
    65e8:	f000 ff34 	bl	7454 <__gnu_thumb1_case_uqi>
    65ec:	2e101d06 	.word	0x2e101d06
    65f0:	70484310 	.word	0x70484310
    65f4:	6c694f4c 	.word	0x6c694f4c
	case GET_STATUS:
		if (setup.bmRequestType == 0)  // device
    65f8:	7809      	ldrb	r1, [r1, #0]
    65fa:	aa01      	add	r2, sp, #4
    65fc:	2900      	cmp	r1, #0
    65fe:	d107      	bne.n	6610 <_ZN14USBDeviceClass19handleStandardSetupER8USBSetup+0x34>
		{
			// Send the device status
			// TODO: Check current configuration for power mode (if device is configured)
			// TODO: Check if remote wake-up is enabled
			uint8_t buff[] = { 0, 0 };
			armSend(0, buff, 2);
    6600:	2302      	movs	r3, #2
			uint8_t buff[] = { 0, 0 };
    6602:	7011      	strb	r1, [r2, #0]
    6604:	7051      	strb	r1, [r2, #1]
			armSend(0, buff, 2);
    6606:	0030      	movs	r0, r6
    6608:	f7ff feac 	bl	6364 <_ZN14USBDeviceClass7armSendEmPKvm>
			return true;
    660c:	2001      	movs	r0, #1
		return true;

	default:
		return true;
	}
}
    660e:	bd76      	pop	{r1, r2, r4, r5, r6, pc}
			uint8_t buff[] = { 0, 0 };
    6610:	2300      	movs	r3, #0
    6612:	7013      	strb	r3, [r2, #0]
    6614:	7053      	strb	r3, [r2, #1]
			if (isEndpointHalt == 1)
    6616:	4b2e      	ldr	r3, [pc, #184]	; (66d0 <_ZN14USBDeviceClass19handleStandardSetupER8USBSetup+0xf4>)
			if (isRemoteWakeUpEnabled == 1)
    6618:	781b      	ldrb	r3, [r3, #0]
    661a:	2b01      	cmp	r3, #1
    661c:	d100      	bne.n	6620 <_ZN14USBDeviceClass19handleStandardSetupER8USBSetup+0x44>
				buff[0] = 1;
    661e:	7013      	strb	r3, [r2, #0]
			armSend(0, buff, 2);
    6620:	2302      	movs	r3, #2
		armSend(0, (void*)&_usbSetInterface, 1);
    6622:	2100      	movs	r1, #0
    6624:	e7ef      	b.n	6606 <_ZN14USBDeviceClass19handleStandardSetupER8USBSetup+0x2a>
		if (setup.wValueL == 1) // DEVICEREMOTEWAKEUP
    6626:	788a      	ldrb	r2, [r1, #2]
    6628:	2300      	movs	r3, #0
    662a:	2a01      	cmp	r2, #1
    662c:	d104      	bne.n	6638 <_ZN14USBDeviceClass19handleStandardSetupER8USBSetup+0x5c>
			uint8_t buff[] = { 0, 0 };
    662e:	aa01      	add	r2, sp, #4
    6630:	7013      	strb	r3, [r2, #0]
    6632:	7053      	strb	r3, [r2, #1]
			if (isRemoteWakeUpEnabled == 1)
    6634:	4b27      	ldr	r3, [pc, #156]	; (66d4 <_ZN14USBDeviceClass19handleStandardSetupER8USBSetup+0xf8>)
    6636:	e7ef      	b.n	6618 <_ZN14USBDeviceClass19handleStandardSetupER8USBSetup+0x3c>
			isEndpointHalt = 0;
    6638:	4a25      	ldr	r2, [pc, #148]	; (66d0 <_ZN14USBDeviceClass19handleStandardSetupER8USBSetup+0xf4>)
    663a:	7013      	strb	r3, [r2, #0]
    663c:	4a26      	ldr	r2, [pc, #152]	; (66d8 <_ZN14USBDeviceClass19handleStandardSetupER8USBSetup+0xfc>)
    663e:	6993      	ldr	r3, [r2, #24]
    6640:	0b9b      	lsrs	r3, r3, #14
    6642:	039b      	lsls	r3, r3, #14
    6644:	6193      	str	r3, [r2, #24]
    6646:	e7e1      	b.n	660c <_ZN14USBDeviceClass19handleStandardSetupER8USBSetup+0x30>
		if (setup.wValueL == 1) // DEVICEREMOTEWAKEUP
    6648:	788c      	ldrb	r4, [r1, #2]
    664a:	2c01      	cmp	r4, #1
    664c:	d106      	bne.n	665c <_ZN14USBDeviceClass19handleStandardSetupER8USBSetup+0x80>
			uint8_t buff[] = { 0 };
    664e:	2100      	movs	r1, #0
			isRemoteWakeUpEnabled = 1;
    6650:	4b20      	ldr	r3, [pc, #128]	; (66d4 <_ZN14USBDeviceClass19handleStandardSetupER8USBSetup+0xf8>)
			uint8_t buff[] = { 0 };
    6652:	aa01      	add	r2, sp, #4
			isRemoteWakeUpEnabled = 1;
    6654:	701c      	strb	r4, [r3, #0]
			uint8_t buff[] = { 0 };
    6656:	7011      	strb	r1, [r2, #0]
			armSend(0, buff, 1);
    6658:	0023      	movs	r3, r4
    665a:	e7d4      	b.n	6606 <_ZN14USBDeviceClass19handleStandardSetupER8USBSetup+0x2a>
		if (setup.wValueL == 0) // ENDPOINTHALT
    665c:	2c00      	cmp	r4, #0
    665e:	d108      	bne.n	6672 <_ZN14USBDeviceClass19handleStandardSetupER8USBSetup+0x96>
			isEndpointHalt = 1;
    6660:	2001      	movs	r0, #1
    6662:	4b1b      	ldr	r3, [pc, #108]	; (66d0 <_ZN14USBDeviceClass19handleStandardSetupER8USBSetup+0xf4>)
    6664:	4a1c      	ldr	r2, [pc, #112]	; (66d8 <_ZN14USBDeviceClass19handleStandardSetupER8USBSetup+0xfc>)
    6666:	7018      	strb	r0, [r3, #0]
    6668:	6993      	ldr	r3, [r2, #24]
    666a:	0b9b      	lsrs	r3, r3, #14
    666c:	039b      	lsls	r3, r3, #14
    666e:	6193      	str	r3, [r2, #24]
			return true;
    6670:	e7cd      	b.n	660e <_ZN14USBDeviceClass19handleStandardSetupER8USBSetup+0x32>
		setAddress(setup.wValueL);
    6672:	78a9      	ldrb	r1, [r5, #2]
    6674:	0030      	movs	r0, r6
    6676:	f7ff fc29 	bl	5ecc <_ZN14USBDeviceClass10setAddressEm>
    667a:	e7c7      	b.n	660c <_ZN14USBDeviceClass19handleStandardSetupER8USBSetup+0x30>
		return sendDescriptor(setup);
    667c:	0030      	movs	r0, r6
    667e:	f7ff ff3b 	bl	64f8 <_ZN14USBDeviceClass14sendDescriptorER8USBSetup>
    6682:	e7c4      	b.n	660e <_ZN14USBDeviceClass19handleStandardSetupER8USBSetup+0x32>
		armSend(0, (void*)&_usbConfiguration, 1);
    6684:	2301      	movs	r3, #1
    6686:	4a15      	ldr	r2, [pc, #84]	; (66dc <_ZN14USBDeviceClass19handleStandardSetupER8USBSetup+0x100>)
    6688:	e7cb      	b.n	6622 <_ZN14USBDeviceClass19handleStandardSetupER8USBSetup+0x46>
		if (REQUEST_DEVICE == (setup.bmRequestType & REQUEST_RECIPIENT)) {
    668a:	780b      	ldrb	r3, [r1, #0]
			return false;
    668c:	2000      	movs	r0, #0
		if (REQUEST_DEVICE == (setup.bmRequestType & REQUEST_RECIPIENT)) {
    668e:	06db      	lsls	r3, r3, #27
    6690:	d1bd      	bne.n	660e <_ZN14USBDeviceClass19handleStandardSetupER8USBSetup+0x32>
			initEndpoints();
    6692:	0030      	movs	r0, r6
    6694:	f7ff fcd6 	bl	6044 <_ZN14USBDeviceClass13initEndpointsEv>
	inline void epBank1EnableTransferComplete(ep_t ep) { usb.DeviceEndpoint[ep].EPINTENSET.bit.TRCPT1 = 1; }
    6698:	202a      	movs	r0, #42	; 0x2a
    669a:	2102      	movs	r1, #2
			_usbConfiguration = setup.wValueL;
    669c:	78aa      	ldrb	r2, [r5, #2]
    669e:	4b0f      	ldr	r3, [pc, #60]	; (66dc <_ZN14USBDeviceClass19handleStandardSetupER8USBSetup+0x100>)
    66a0:	30ff      	adds	r0, #255	; 0xff
    66a2:	601a      	str	r2, [r3, #0]
    66a4:	4a0c      	ldr	r2, [pc, #48]	; (66d8 <_ZN14USBDeviceClass19handleStandardSetupER8USBSetup+0xfc>)
    66a6:	6813      	ldr	r3, [r2, #0]
    66a8:	5c1c      	ldrb	r4, [r3, r0]
    66aa:	4321      	orrs	r1, r4
	inline void epBank0EnableTransferComplete(ep_t ep) { usb.DeviceEndpoint[ep].EPINTENSET.bit.TRCPT0 = 1; }
    66ac:	244a      	movs	r4, #74	; 0x4a
	inline void epBank1EnableTransferComplete(ep_t ep) { usb.DeviceEndpoint[ep].EPINTENSET.bit.TRCPT1 = 1; }
    66ae:	5419      	strb	r1, [r3, r0]
	inline void epBank0EnableTransferComplete(ep_t ep) { usb.DeviceEndpoint[ep].EPINTENSET.bit.TRCPT0 = 1; }
    66b0:	34ff      	adds	r4, #255	; 0xff
    66b2:	5d19      	ldrb	r1, [r3, r4]
    66b4:	3829      	subs	r0, #41	; 0x29
    66b6:	38ff      	subs	r0, #255	; 0xff
    66b8:	4301      	orrs	r1, r0
    66ba:	5519      	strb	r1, [r3, r4]
    66bc:	e7d4      	b.n	6668 <_ZN14USBDeviceClass19handleStandardSetupER8USBSetup+0x8c>
		armSend(0, (void*)&_usbSetInterface, 1);
    66be:	2301      	movs	r3, #1
    66c0:	4a07      	ldr	r2, [pc, #28]	; (66e0 <_ZN14USBDeviceClass19handleStandardSetupER8USBSetup+0x104>)
    66c2:	e7ae      	b.n	6622 <_ZN14USBDeviceClass19handleStandardSetupER8USBSetup+0x46>
		_usbSetInterface = setup.wValueL;
    66c4:	788a      	ldrb	r2, [r1, #2]
    66c6:	4b06      	ldr	r3, [pc, #24]	; (66e0 <_ZN14USBDeviceClass19handleStandardSetupER8USBSetup+0x104>)
    66c8:	601a      	str	r2, [r3, #0]
    66ca:	e7b7      	b.n	663c <_ZN14USBDeviceClass19handleStandardSetupER8USBSetup+0x60>
		return false;
    66cc:	2000      	movs	r0, #0
    66ce:	e79e      	b.n	660e <_ZN14USBDeviceClass19handleStandardSetupER8USBSetup+0x32>
    66d0:	20000680 	.word	0x20000680
    66d4:	20000688 	.word	0x20000688
    66d8:	20000b18 	.word	0x20000b18
    66dc:	20000b10 	.word	0x20000b10
    66e0:	20000b14 	.word	0x20000b14

000066e4 <_ZN14USBDeviceClass10ISRHandlerEv>:

void USBDeviceClass::ISRHandler()
{

	if (_pack_message == true) {
    66e4:	4b3c      	ldr	r3, [pc, #240]	; (67d8 <_ZN14USBDeviceClass10ISRHandlerEv+0xf4>)
{
    66e6:	b5f7      	push	{r0, r1, r2, r4, r5, r6, r7, lr}
	if (_pack_message == true) {
    66e8:	781c      	ldrb	r4, [r3, #0]
{
    66ea:	0007      	movs	r7, r0
	if (_pack_message == true) {
    66ec:	2c00      	cmp	r4, #0
    66ee:	d15e      	bne.n	67ae <_ZN14USBDeviceClass10ISRHandlerEv+0xca>
	inline bool isEndOfResetInterrupt()        { return usb.INTFLAG.bit.EORST; }
    66f0:	4e3a      	ldr	r6, [pc, #232]	; (67dc <_ZN14USBDeviceClass10ISRHandlerEv+0xf8>)
    66f2:	6833      	ldr	r3, [r6, #0]
    66f4:	8b9b      	ldrh	r3, [r3, #28]
		return;
	}
	// End-Of-Reset
	if (usbd.isEndOfResetInterrupt())
    66f6:	071b      	lsls	r3, r3, #28
    66f8:	d50e      	bpl.n	6718 <_ZN14USBDeviceClass10ISRHandlerEv+0x34>
    66fa:	0021      	movs	r1, r4
    66fc:	0020      	movs	r0, r4
    66fe:	f7ff f93d 	bl	597c <_ZN14USBDeviceClass6initEPEmm.part.5>
	inline void epBank0EnableSetupReceived(ep_t ep)    { usb.DeviceEndpoint[ep].EPINTENSET.bit.RXSTP = 1; }
    6702:	6832      	ldr	r2, [r6, #0]
    6704:	2310      	movs	r3, #16
    6706:	0011      	movs	r1, r2
    6708:	31ff      	adds	r1, #255	; 0xff
    670a:	7a88      	ldrb	r0, [r1, #10]
    670c:	4303      	orrs	r3, r0
    670e:	728b      	strb	r3, [r1, #10]
		initEP(0, USB_ENDPOINT_TYPE_CONTROL);

		// Enable Setup-Received interrupt
		usbd.epBank0EnableSetupReceived(0);

		_usbConfiguration = 0;
    6710:	4b33      	ldr	r3, [pc, #204]	; (67e0 <_ZN14USBDeviceClass10ISRHandlerEv+0xfc>)
    6712:	601c      	str	r4, [r3, #0]
	inline void ackEndOfResetInterrupt()       { usb.INTFLAG.reg = USB_DEVICE_INTFLAG_EORST; }
    6714:	2308      	movs	r3, #8
    6716:	8393      	strh	r3, [r2, #28]
	inline bool isStartOfFrameInterrupt()      { return usb.INTFLAG.bit.SOF; }
    6718:	6833      	ldr	r3, [r6, #0]
    671a:	8b9a      	ldrh	r2, [r3, #28]

		usbd.ackEndOfResetInterrupt();
	}

	// Start-Of-Frame
	if (usbd.isStartOfFrameInterrupt())
    671c:	0752      	lsls	r2, r2, #29
    671e:	d501      	bpl.n	6724 <_ZN14USBDeviceClass10ISRHandlerEv+0x40>
	inline void ackStartOfFrameInterrupt()     { usb.INTFLAG.reg = USB_DEVICE_INTFLAG_SOF; }
    6720:	2204      	movs	r2, #4
    6722:	839a      	strh	r2, [r3, #28]
	inline bool epBank0IsSetupReceived(ep_t ep)     { return usb.DeviceEndpoint[ep].EPINTFLAG.bit.RXSTP; }
    6724:	33ff      	adds	r3, #255	; 0xff
    6726:	7a1a      	ldrb	r2, [r3, #8]
		}
#endif
	}

	// Endpoint 0 Received Setup interrupt
	if (usbd.epBank0IsSetupReceived(0))
    6728:	06d2      	lsls	r2, r2, #27
    672a:	d520      	bpl.n	676e <_ZN14USBDeviceClass10ISRHandlerEv+0x8a>
	inline void epBank0AckSetupReceived(ep_t ep)    { usb.DeviceEndpoint[ep].EPINTFLAG.reg = USB_DEVICE_EPINTFLAG_RXSTP; }
    672c:	2210      	movs	r2, #16
    672e:	721a      	strb	r2, [r3, #8]
	inline void epBank0ResetReady(ep_t ep) { usb.DeviceEndpoint[ep].EPSTATUSCLR.bit.BK0RDY = 1; }
    6730:	7959      	ldrb	r1, [r3, #5]
    6732:	3230      	adds	r2, #48	; 0x30
    6734:	430a      	orrs	r2, r1
    6736:	715a      	strb	r2, [r3, #5]
		/* Clear the Bank 0 ready flag on Control OUT */
		// The RAM Buffer is empty: we can receive data
		usbd.epBank0ResetReady(0);

		bool ok;
		if (REQUEST_STANDARD == (setup->bmRequestType & REQUEST_TYPE)) {
    6738:	2360      	movs	r3, #96	; 0x60
    673a:	492a      	ldr	r1, [pc, #168]	; (67e4 <_ZN14USBDeviceClass10ISRHandlerEv+0x100>)
			// Standard Requests
			ok = handleStandardSetup(*setup);
    673c:	0038      	movs	r0, r7
		if (REQUEST_STANDARD == (setup->bmRequestType & REQUEST_TYPE)) {
    673e:	780a      	ldrb	r2, [r1, #0]
    6740:	421a      	tst	r2, r3
    6742:	d135      	bne.n	67b0 <_ZN14USBDeviceClass10ISRHandlerEv+0xcc>
			ok = handleStandardSetup(*setup);
    6744:	f7ff ff4a 	bl	65dc <_ZN14USBDeviceClass19handleStandardSetupER8USBSetup>
		} else {
			// Class Interface Requests
			ok = handleClassInterfaceSetup(*setup);
		}

		if (ok) {
    6748:	2800      	cmp	r0, #0
    674a:	d034      	beq.n	67b6 <_ZN14USBDeviceClass10ISRHandlerEv+0xd2>
	inline void epBank1SetReady(ep_t ep)   { usb.DeviceEndpoint[ep].EPSTATUSSET.bit.BK1RDY = 1; }
    674c:	2280      	movs	r2, #128	; 0x80
    674e:	6833      	ldr	r3, [r6, #0]
    6750:	4252      	negs	r2, r2
    6752:	33ff      	adds	r3, #255	; 0xff
    6754:	7999      	ldrb	r1, [r3, #6]
    6756:	430a      	orrs	r2, r1
	USB->DEVICE.DeviceEndpoint[ep].EPSTATUSSET.reg = USB_DEVICE_EPSTATUSSET_STALLRQ(2);
    6758:	719a      	strb	r2, [r3, #6]
	inline bool epBank1IsStalled(ep_t ep)           { return usb.DeviceEndpoint[ep].EPINTFLAG.bit.STALL1; }
    675a:	6833      	ldr	r3, [r6, #0]
    675c:	33ff      	adds	r3, #255	; 0xff
    675e:	7a1a      	ldrb	r2, [r3, #8]
			usbd.epBank1SetReady(0);
		} else {
			stall(0);
		}

		if (usbd.epBank1IsStalled(0))
    6760:	0652      	lsls	r2, r2, #25
    6762:	d504      	bpl.n	676e <_ZN14USBDeviceClass10ISRHandlerEv+0x8a>
	inline void epBank1AckStalled(ep_t ep)          { usb.DeviceEndpoint[ep].EPINTFLAG.reg = USB_DEVICE_EPINTFLAG_STALL(2); }
    6764:	2240      	movs	r2, #64	; 0x40
    6766:	721a      	strb	r2, [r3, #8]
	inline void epBank1DisableStalled(ep_t ep)          { usb.DeviceEndpoint[ep].EPINTENCLR.bit.STALL1 = 1; }
    6768:	7a59      	ldrb	r1, [r3, #9]
    676a:	430a      	orrs	r2, r1
    676c:	725a      	strb	r2, [r3, #9]
	inline uint16_t epInterruptSummary() { return usb.EPINTSMRY.reg; }
    676e:	6833      	ldr	r3, [r6, #0]
		}

	} // end Received Setup handler

	uint8_t i=0;
	uint8_t ept_int = usbd.epInterruptSummary() & 0xFE; // Remove endpoint number 0 (setup)
    6770:	2500      	movs	r5, #0
    6772:	8c1c      	ldrh	r4, [r3, #32]
    6774:	2301      	movs	r3, #1
    6776:	439c      	bics	r4, r3
    6778:	b2e4      	uxtb	r4, r4
	while (ept_int != 0)
	{
		// Check if endpoint has a pending interrupt
		if ((ept_int & (1 << i)) != 0)
    677a:	9301      	str	r3, [sp, #4]
    677c:	b2e9      	uxtb	r1, r5
	while (ept_int != 0)
    677e:	2c00      	cmp	r4, #0
    6780:	d015      	beq.n	67ae <_ZN14USBDeviceClass10ISRHandlerEv+0xca>
		if ((ept_int & (1 << i)) != 0)
    6782:	0023      	movs	r3, r4
    6784:	412b      	asrs	r3, r5
    6786:	9a01      	ldr	r2, [sp, #4]
    6788:	4213      	tst	r3, r2
    678a:	d00d      	beq.n	67a8 <_ZN14USBDeviceClass10ISRHandlerEv+0xc4>
	inline bool epBank0IsTransferComplete(ep_t ep)  { return usb.DeviceEndpoint[ep].EPINTFLAG.bit.TRCPT0; }
    678c:	002b      	movs	r3, r5
    678e:	6832      	ldr	r2, [r6, #0]
    6790:	3308      	adds	r3, #8
    6792:	015b      	lsls	r3, r3, #5
    6794:	18d3      	adds	r3, r2, r3
    6796:	79da      	ldrb	r2, [r3, #7]
		{
			// Endpoint Transfer Complete (0/1) Interrupt
			if (usbd.epBank0IsTransferComplete(i) ||
    6798:	07d2      	lsls	r2, r2, #31
    679a:	d413      	bmi.n	67c4 <_ZN14USBDeviceClass10ISRHandlerEv+0xe0>
	inline bool epBank1IsTransferComplete(ep_t ep)  { return usb.DeviceEndpoint[ep].EPINTFLAG.bit.TRCPT1; }
    679c:	79db      	ldrb	r3, [r3, #7]
    679e:	079b      	lsls	r3, r3, #30
    67a0:	d410      	bmi.n	67c4 <_ZN14USBDeviceClass10ISRHandlerEv+0xe0>
					epHandlers[i]->handleEndpoint();
				} else {
					handleEndpoint(i);
				}
			}
			ept_int &= ~(1 << i);
    67a2:	9b01      	ldr	r3, [sp, #4]
    67a4:	40ab      	lsls	r3, r5
    67a6:	439c      	bics	r4, r3
    67a8:	3501      	adds	r5, #1
		}
		i++;
		if (i > USB_EPT_NUM)
    67aa:	2d09      	cmp	r5, #9
    67ac:	d1e6      	bne.n	677c <_ZN14USBDeviceClass10ISRHandlerEv+0x98>
			break;  // fire exit
	}
}
    67ae:	bdf7      	pop	{r0, r1, r2, r4, r5, r6, r7, pc}
			ok = handleClassInterfaceSetup(*setup);
    67b0:	f7ff fbb0 	bl	5f14 <_ZN14USBDeviceClass25handleClassInterfaceSetupER8USBSetup>
    67b4:	e7c8      	b.n	6748 <_ZN14USBDeviceClass10ISRHandlerEv+0x64>
	USB->DEVICE.DeviceEndpoint[ep].EPSTATUSSET.reg = USB_DEVICE_EPSTATUSSET_STALLRQ(2);
    67b6:	2220      	movs	r2, #32
    67b8:	4b0b      	ldr	r3, [pc, #44]	; (67e8 <_ZN14USBDeviceClass10ISRHandlerEv+0x104>)
    67ba:	e7cd      	b.n	6758 <_ZN14USBDeviceClass10ISRHandlerEv+0x74>
					epHandlers[i]->handleEndpoint();
    67bc:	6803      	ldr	r3, [r0, #0]
    67be:	681b      	ldr	r3, [r3, #0]
    67c0:	4798      	blx	r3
    67c2:	e7ee      	b.n	67a2 <_ZN14USBDeviceClass10ISRHandlerEv+0xbe>
				if (epHandlers[i]) {
    67c4:	4b09      	ldr	r3, [pc, #36]	; (67ec <_ZN14USBDeviceClass10ISRHandlerEv+0x108>)
    67c6:	00aa      	lsls	r2, r5, #2
    67c8:	58d0      	ldr	r0, [r2, r3]
    67ca:	2800      	cmp	r0, #0
    67cc:	d1f6      	bne.n	67bc <_ZN14USBDeviceClass10ISRHandlerEv+0xd8>
					handleEndpoint(i);
    67ce:	0038      	movs	r0, r7
    67d0:	f7ff fae0 	bl	5d94 <_ZN14USBDeviceClass14handleEndpointEh>
    67d4:	e7e5      	b.n	67a2 <_ZN14USBDeviceClass10ISRHandlerEv+0xbe>
    67d6:	46c0      	nop			; (mov r8, r8)
    67d8:	20000b0d 	.word	0x20000b0d
    67dc:	20000b18 	.word	0x20000b18
    67e0:	20000b10 	.word	0x20000b10
    67e4:	2000084c 	.word	0x2000084c
    67e8:	410050ff 	.word	0x410050ff
    67ec:	20000664 	.word	0x20000664

000067f0 <UDD_Handler>:
extern "C" void UDD_Handler(void) {
    67f0:	b510      	push	{r4, lr}
	USBDevice.ISRHandler();
    67f2:	4802      	ldr	r0, [pc, #8]	; (67fc <UDD_Handler+0xc>)
    67f4:	f7ff ff76 	bl	66e4 <_ZN14USBDeviceClass10ISRHandlerEv>
}
    67f8:	bd10      	pop	{r4, pc}
    67fa:	46c0      	nop			; (mov r8, r8)
    67fc:	20000660 	.word	0x20000660

00006800 <_GLOBAL__sub_I__ZN20USBDevice_SAMD21G18x5resetEv>:
	USBDevice_SAMD21G18x() : usb(USB->DEVICE) {
    6800:	4a01      	ldr	r2, [pc, #4]	; (6808 <_GLOBAL__sub_I__ZN20USBDevice_SAMD21G18x5resetEv+0x8>)
    6802:	4b02      	ldr	r3, [pc, #8]	; (680c <_GLOBAL__sub_I__ZN20USBDevice_SAMD21G18x5resetEv+0xc>)
    6804:	601a      	str	r2, [r3, #0]
 * USB Device instance
 * -------------------
 */

// USBDevice class instance
USBDeviceClass USBDevice;
    6806:	4770      	bx	lr
    6808:	41005000 	.word	0x41005000
    680c:	20000b18 	.word	0x20000b18

00006810 <init>:
 *   - During reset, all PORT lines are configured as inputs with input buffers, output buffers and pull disabled.
 */
void init( void )
{
  // Set Systick to 1ms interval, common to all Cortex-M variants
  if ( SysTick_Config( SystemCoreClock / 1000 ) )
    6810:	21fa      	movs	r1, #250	; 0xfa
    6812:	4b31      	ldr	r3, [pc, #196]	; (68d8 <init+0xc8>)
{
    6814:	b510      	push	{r4, lr}
  if ( SysTick_Config( SystemCoreClock / 1000 ) )
    6816:	6818      	ldr	r0, [r3, #0]
    6818:	0089      	lsls	r1, r1, #2
    681a:	f000 fe25 	bl	7468 <__udivsi3>
           function <b>SysTick_Config</b> is not included. In this case, the file <b><i>device</i>.h</b>
           must contain a vendor-specific implementation of this function.
 */
__STATIC_INLINE uint32_t SysTick_Config(uint32_t ticks)
{
  if ((ticks - 1UL) > SysTick_LOAD_RELOAD_Msk)
    681e:	4b2f      	ldr	r3, [pc, #188]	; (68dc <init+0xcc>)
    6820:	3801      	subs	r0, #1
    6822:	4298      	cmp	r0, r3
    6824:	d856      	bhi.n	68d4 <init+0xc4>
  {
    return (1UL);                                                   /* Reload value impossible */
  }

  SysTick->LOAD  = (uint32_t)(ticks - 1UL);                         /* set reload register */
    6826:	492e      	ldr	r1, [pc, #184]	; (68e0 <init+0xd0>)
    SCB->SHP[_SHP_IDX(IRQn)] = ((uint32_t)(SCB->SHP[_SHP_IDX(IRQn)] & ~(0xFFUL << _BIT_SHIFT(IRQn))) |
    6828:	4a2e      	ldr	r2, [pc, #184]	; (68e4 <init+0xd4>)
  SysTick->LOAD  = (uint32_t)(ticks - 1UL);                         /* set reload register */
    682a:	6048      	str	r0, [r1, #4]
    SCB->SHP[_SHP_IDX(IRQn)] = ((uint32_t)(SCB->SHP[_SHP_IDX(IRQn)] & ~(0xFFUL << _BIT_SHIFT(IRQn))) |
    682c:	20c0      	movs	r0, #192	; 0xc0
    682e:	6a13      	ldr	r3, [r2, #32]
    6830:	0600      	lsls	r0, r0, #24
    6832:	021b      	lsls	r3, r3, #8
    6834:	0a1b      	lsrs	r3, r3, #8
    6836:	4303      	orrs	r3, r0
    6838:	6213      	str	r3, [r2, #32]
  NVIC_SetPriority (SysTick_IRQn, (1UL << __NVIC_PRIO_BITS) - 1UL); /* set Priority for Systick Interrupt */
  SysTick->VAL   = 0UL;                                             /* Load the SysTick Counter Value */
    683a:	2400      	movs	r4, #0
  SysTick->CTRL  = SysTick_CTRL_CLKSOURCE_Msk |
    683c:	2307      	movs	r3, #7
  SysTick->VAL   = 0UL;                                             /* Load the SysTick Counter Value */
    683e:	608c      	str	r4, [r1, #8]
  SysTick->CTRL  = SysTick_CTRL_CLKSOURCE_Msk |
    6840:	600b      	str	r3, [r1, #0]
    SCB->SHP[_SHP_IDX(IRQn)] = ((uint32_t)(SCB->SHP[_SHP_IDX(IRQn)] & ~(0xFFUL << _BIT_SHIFT(IRQn))) |
    6842:	2180      	movs	r1, #128	; 0x80
    6844:	6a13      	ldr	r3, [r2, #32]
    6846:	0609      	lsls	r1, r1, #24
    6848:	021b      	lsls	r3, r3, #8
    684a:	0a1b      	lsrs	r3, r3, #8
    684c:	430b      	orrs	r3, r1
    684e:	6213      	str	r3, [r2, #32]
//
//  // Clock EIC for I/O interrupts
//  PM->APBAMASK.reg |= PM_APBAMASK_EIC ;

  // Clock SERCOM for Serial
  PM->APBCMASK.reg |= PM_APBCMASK_SERCOM0 | PM_APBCMASK_SERCOM1 | PM_APBCMASK_SERCOM2 | PM_APBCMASK_SERCOM3 | PM_APBCMASK_SERCOM4 | PM_APBCMASK_SERCOM5 ;
    6850:	22fc      	movs	r2, #252	; 0xfc
    6852:	4b25      	ldr	r3, [pc, #148]	; (68e8 <init+0xd8>)
    6854:	6a19      	ldr	r1, [r3, #32]
    6856:	430a      	orrs	r2, r1
    6858:	621a      	str	r2, [r3, #32]

  // Clock TC/TCC for Pulse and Analog
  PM->APBCMASK.reg |= PM_APBCMASK_TCC0 | PM_APBCMASK_TCC1 | PM_APBCMASK_TCC2 | PM_APBCMASK_TC3 | PM_APBCMASK_TC4 | PM_APBCMASK_TC5 ;
    685a:	22fc      	movs	r2, #252	; 0xfc
    685c:	6a19      	ldr	r1, [r3, #32]
    685e:	0192      	lsls	r2, r2, #6
    6860:	430a      	orrs	r2, r1
    6862:	621a      	str	r2, [r3, #32]

  // Clock ADC/DAC for Analog
  PM->APBCMASK.reg |= PM_APBCMASK_ADC | PM_APBCMASK_DAC ;
    6864:	22a0      	movs	r2, #160	; 0xa0
    6866:	6a19      	ldr	r1, [r3, #32]
    6868:	02d2      	lsls	r2, r2, #11
    686a:	430a      	orrs	r2, r1
    686c:	621a      	str	r2, [r3, #32]

  // Setup all pins (digital and analog) in INPUT mode (default is nothing)
  for (uint32_t ul = 0 ; ul < NUM_DIGITAL_PINS ; ul++ )
  {
    pinMode( ul, INPUT ) ;
    686e:	0020      	movs	r0, r4
    6870:	2100      	movs	r1, #0
  for (uint32_t ul = 0 ; ul < NUM_DIGITAL_PINS ; ul++ )
    6872:	3401      	adds	r4, #1
    pinMode( ul, INPUT ) ;
    6874:	f000 f876 	bl	6964 <pinMode>
  for (uint32_t ul = 0 ; ul < NUM_DIGITAL_PINS ; ul++ )
    6878:	2c0f      	cmp	r4, #15
    687a:	d1f8      	bne.n	686e <init+0x5e>
  }

  // Initialize Analog Controller
  // Setting clock
  while(GCLK->STATUS.reg & GCLK_STATUS_SYNCBUSY);
    687c:	4b1b      	ldr	r3, [pc, #108]	; (68ec <init+0xdc>)
    687e:	001c      	movs	r4, r3
    6880:	785a      	ldrb	r2, [r3, #1]
    6882:	b252      	sxtb	r2, r2
    6884:	2a00      	cmp	r2, #0
    6886:	dbfb      	blt.n	6880 <init+0x70>

  GCLK->CLKCTRL.reg = GCLK_CLKCTRL_ID( GCM_ADC ) | // Generic Clock ADC
    6888:	4a19      	ldr	r2, [pc, #100]	; (68f0 <init+0xe0>)
    688a:	805a      	strh	r2, [r3, #2]
                      GCLK_CLKCTRL_GEN_GCLK0     | // Generic Clock Generator 0 is source
                      GCLK_CLKCTRL_CLKEN ;

  while( ADC->STATUS.bit.SYNCBUSY == 1 );          // Wait for synchronization of registers between the clock domains
    688c:	4b19      	ldr	r3, [pc, #100]	; (68f4 <init+0xe4>)
    688e:	001a      	movs	r2, r3
    6890:	7e59      	ldrb	r1, [r3, #25]
    6892:	09c9      	lsrs	r1, r1, #7
    6894:	2901      	cmp	r1, #1
    6896:	d0fb      	beq.n	6890 <init+0x80>

  ADC->CTRLB.reg = ADC_CTRLB_PRESCALER_DIV512 |    // Divide Clock by 512.
    6898:	21e4      	movs	r1, #228	; 0xe4
    689a:	00c9      	lsls	r1, r1, #3
    689c:	8099      	strh	r1, [r3, #4]
                   ADC_CTRLB_RESSEL_10BIT;         // 10 bits resolution as default

  ADC->SAMPCTRL.reg = 0x3f;                        // Set max Sampling Time Length
    689e:	213f      	movs	r1, #63	; 0x3f
    68a0:	70d9      	strb	r1, [r3, #3]

  while( ADC->STATUS.bit.SYNCBUSY == 1 );          // Wait for synchronization of registers between the clock domains
    68a2:	7e53      	ldrb	r3, [r2, #25]
    68a4:	09db      	lsrs	r3, r3, #7
    68a6:	2b01      	cmp	r3, #1
    68a8:	d0fb      	beq.n	68a2 <init+0x92>

  ADC->INPUTCTRL.reg = ADC_INPUTCTRL_MUXNEG_GND;   // No Negative input (Internal Ground)
    68aa:	23c0      	movs	r3, #192	; 0xc0

  // Averaging (see datasheet table in AVGCTRL register description)
  ADC->AVGCTRL.reg = ADC_AVGCTRL_SAMPLENUM_1 |    // 1 sample only (no oversampling nor averaging)
    68ac:	2000      	movs	r0, #0
  ADC->INPUTCTRL.reg = ADC_INPUTCTRL_MUXNEG_GND;   // No Negative input (Internal Ground)
    68ae:	015b      	lsls	r3, r3, #5
    68b0:	6113      	str	r3, [r2, #16]
  ADC->AVGCTRL.reg = ADC_AVGCTRL_SAMPLENUM_1 |    // 1 sample only (no oversampling nor averaging)
    68b2:	7090      	strb	r0, [r2, #2]
                     ADC_AVGCTRL_ADJRES(0x0ul);   // Adjusting result by 0

  analogReference( AR_DEFAULT ) ; // Analog Reference is AREF pin (3.3v)
    68b4:	f000 f824 	bl	6900 <analogReference>

  // Initialize DAC
  // Setting clock
  while ( GCLK->STATUS.reg & GCLK_STATUS_SYNCBUSY );
    68b8:	7863      	ldrb	r3, [r4, #1]
    68ba:	b25b      	sxtb	r3, r3
    68bc:	2b00      	cmp	r3, #0
    68be:	dbfb      	blt.n	68b8 <init+0xa8>
  GCLK->CLKCTRL.reg = GCLK_CLKCTRL_ID( GCM_DAC ) | // Generic Clock ADC
    68c0:	4b0d      	ldr	r3, [pc, #52]	; (68f8 <init+0xe8>)
                      GCLK_CLKCTRL_GEN_GCLK0     | // Generic Clock Generator 0 is source
                      GCLK_CLKCTRL_CLKEN ;

  while ( DAC->STATUS.bit.SYNCBUSY == 1 ); // Wait for synchronization of registers between the clock domains
    68c2:	4a0e      	ldr	r2, [pc, #56]	; (68fc <init+0xec>)
  GCLK->CLKCTRL.reg = GCLK_CLKCTRL_ID( GCM_DAC ) | // Generic Clock ADC
    68c4:	8063      	strh	r3, [r4, #2]
  while ( DAC->STATUS.bit.SYNCBUSY == 1 ); // Wait for synchronization of registers between the clock domains
    68c6:	79d3      	ldrb	r3, [r2, #7]
    68c8:	09db      	lsrs	r3, r3, #7
    68ca:	2b01      	cmp	r3, #1
    68cc:	d0fb      	beq.n	68c6 <init+0xb6>
  DAC->CTRLB.reg = DAC_CTRLB_REFSEL_AVCC | // Using the 3.3V reference
    68ce:	2341      	movs	r3, #65	; 0x41
    68d0:	7053      	strb	r3, [r2, #1]
                   DAC_CTRLB_EOEN ;        // External Output Enable (Vout)
}
    68d2:	bd10      	pop	{r4, pc}
    68d4:	e7fe      	b.n	68d4 <init+0xc4>
    68d6:	46c0      	nop			; (mov r8, r8)
    68d8:	20000088 	.word	0x20000088
    68dc:	00ffffff 	.word	0x00ffffff
    68e0:	e000e010 	.word	0xe000e010
    68e4:	e000ed00 	.word	0xe000ed00
    68e8:	40000400 	.word	0x40000400
    68ec:	40000c00 	.word	0x40000c00
    68f0:	0000401e 	.word	0x0000401e
    68f4:	42004000 	.word	0x42004000
    68f8:	00004021 	.word	0x00004021
    68fc:	42004800 	.word	0x42004800

00006900 <analogReference>:
static int _writeResolution = 8;

// Wait for synchronization of registers between the clock domains
static __inline__ void syncADC() __attribute__((always_inline, unused));
static void syncADC() {
  while (ADC->STATUS.bit.SYNCBUSY == 1)
    6900:	4a16      	ldr	r2, [pc, #88]	; (695c <analogReference+0x5c>)
 * External Reference should be between 1v and VDDANA-0.6v=2.7v
 *
 * Warning : On Arduino Zero board the input/output voltage for SAMD21G18 is 3.3 volts maximum
 */
void analogReference(eAnalogReference mode)
{
    6902:	b500      	push	{lr}
    6904:	0013      	movs	r3, r2
  while (ADC->STATUS.bit.SYNCBUSY == 1)
    6906:	7e51      	ldrb	r1, [r2, #25]
    6908:	09c9      	lsrs	r1, r1, #7
    690a:	2901      	cmp	r1, #1
    690c:	d0fb      	beq.n	6906 <analogReference+0x6>
  syncADC();
  switch (mode)
    690e:	3801      	subs	r0, #1
    6910:	2804      	cmp	r0, #4
    6912:	d816      	bhi.n	6942 <analogReference+0x42>
      ADC->INPUTCTRL.bit.GAIN = ADC_INPUTCTRL_GAIN_1X_Val;      // Gain Factor Selection
      ADC->REFCTRL.bit.REFSEL = ADC_REFCTRL_REFSEL_INT1V_Val;   // 1.0V voltage reference
      break;

    case AR_INTERNAL1V65:
      ADC->INPUTCTRL.bit.GAIN = ADC_INPUTCTRL_GAIN_1X_Val;      // Gain Factor Selection
    6914:	6919      	ldr	r1, [r3, #16]
    6916:	4a12      	ldr	r2, [pc, #72]	; (6960 <analogReference+0x60>)
    6918:	400a      	ands	r2, r1
      ADC->REFCTRL.bit.REFSEL = ADC_REFCTRL_REFSEL_INTVCC1_Val; // 1/2 VDDANA = 0.5* 3V3 = 1.65V
    691a:	210f      	movs	r1, #15
      ADC->INPUTCTRL.bit.GAIN = ADC_INPUTCTRL_GAIN_1X_Val;      // Gain Factor Selection
    691c:	611a      	str	r2, [r3, #16]
      ADC->REFCTRL.bit.REFSEL = ADC_REFCTRL_REFSEL_INTVCC1_Val; // 1/2 VDDANA = 0.5* 3V3 = 1.65V
    691e:	785a      	ldrb	r2, [r3, #1]
    6920:	438a      	bics	r2, r1
  switch (mode)
    6922:	f000 fd97 	bl	7454 <__gnu_thumb1_case_uqi>
    6926:	0803      	.short	0x0803
    6928:	0b06      	.short	0x0b06
    692a:	03          	.byte	0x03
    692b:	00          	.byte	0x00
      ADC->REFCTRL.bit.REFSEL = ADC_REFCTRL_REFSEL_INTVCC0_Val; // 1/1.48 VDDANA = 1/1.48* 3V3 = 2.2297
    692c:	0011      	movs	r1, r2
    692e:	2201      	movs	r2, #1
      ADC->REFCTRL.bit.REFSEL = ADC_REFCTRL_REFSEL_INTVCC1_Val; // 1/2 VDDANA = 0.5* 3V3 = 1.65V
    6930:	430a      	orrs	r2, r1
    6932:	705a      	strb	r2, [r3, #1]
    default:
      ADC->INPUTCTRL.bit.GAIN = ADC_INPUTCTRL_GAIN_DIV2_Val;
      ADC->REFCTRL.bit.REFSEL = ADC_REFCTRL_REFSEL_INTVCC1_Val; // 1/2 VDDANA = 0.5* 3V3 = 1.65V
      break;
  }
}
    6934:	bd00      	pop	{pc}
      ADC->REFCTRL.bit.REFSEL = ADC_REFCTRL_REFSEL_AREFA_Val;
    6936:	0011      	movs	r1, r2
    6938:	2203      	movs	r2, #3
    693a:	e7f9      	b.n	6930 <analogReference+0x30>
      ADC->REFCTRL.bit.REFSEL = ADC_REFCTRL_REFSEL_INTVCC1_Val; // 1/2 VDDANA = 0.5* 3V3 = 1.65V
    693c:	0011      	movs	r1, r2
    693e:	2202      	movs	r2, #2
    6940:	e7f6      	b.n	6930 <analogReference+0x30>
      ADC->INPUTCTRL.bit.GAIN = ADC_INPUTCTRL_GAIN_DIV2_Val;
    6942:	23f0      	movs	r3, #240	; 0xf0
    6944:	6911      	ldr	r1, [r2, #16]
    6946:	051b      	lsls	r3, r3, #20
    6948:	430b      	orrs	r3, r1
      ADC->REFCTRL.bit.REFSEL = ADC_REFCTRL_REFSEL_INTVCC1_Val; // 1/2 VDDANA = 0.5* 3V3 = 1.65V
    694a:	210f      	movs	r1, #15
      ADC->INPUTCTRL.bit.GAIN = ADC_INPUTCTRL_GAIN_DIV2_Val;
    694c:	6113      	str	r3, [r2, #16]
      ADC->REFCTRL.bit.REFSEL = ADC_REFCTRL_REFSEL_INTVCC1_Val; // 1/2 VDDANA = 0.5* 3V3 = 1.65V
    694e:	7853      	ldrb	r3, [r2, #1]
    6950:	438b      	bics	r3, r1
    6952:	0019      	movs	r1, r3
    6954:	2302      	movs	r3, #2
    6956:	430b      	orrs	r3, r1
    6958:	7053      	strb	r3, [r2, #1]
}
    695a:	e7eb      	b.n	6934 <analogReference+0x34>
    695c:	42004000 	.word	0x42004000
    6960:	f0ffffff 	.word	0xf0ffffff

00006964 <pinMode>:
#endif

void pinMode( uint32_t ulPin, uint32_t ulMode )
{
  // Handle the case the pin isn't usable as PIO
  if ( g_APinDescription[ulPin].ulPinType == PIO_NOT_A_PIN )
    6964:	2318      	movs	r3, #24
{
    6966:	b530      	push	{r4, r5, lr}
  if ( g_APinDescription[ulPin].ulPinType == PIO_NOT_A_PIN )
    6968:	001d      	movs	r5, r3
{
    696a:	0004      	movs	r4, r0
  if ( g_APinDescription[ulPin].ulPinType == PIO_NOT_A_PIN )
    696c:	4345      	muls	r5, r0
    696e:	2008      	movs	r0, #8
    6970:	4a20      	ldr	r2, [pc, #128]	; (69f4 <pinMode+0x90>)
    6972:	1955      	adds	r5, r2, r5
    6974:	5628      	ldrsb	r0, [r5, r0]
    6976:	3001      	adds	r0, #1
    6978:	d014      	beq.n	69a4 <pinMode+0x40>
  {
    return ;
  }

  // Set pin mode according to chapter '22.6.3 I/O Pin Configuration'
  switch ( ulMode )
    697a:	2903      	cmp	r1, #3
    697c:	d812      	bhi.n	69a4 <pinMode+0x40>
    697e:	0008      	movs	r0, r1
      PORT->Group[g_APinDescription[ulPin].ulPort].OUTSET.reg = (uint32_t)(1<<g_APinDescription[ulPin].ulPin) ;
    break ;

    case INPUT_PULLDOWN:
      // Set pin to input mode with pull-down resistor enabled
      PORT->Group[g_APinDescription[ulPin].ulPort].PINCFG[g_APinDescription[ulPin].ulPin].reg=(uint8_t)(PORT_PINCFG_INEN|PORT_PINCFG_PULLEN) ;
    6980:	4363      	muls	r3, r4
    6982:	56d1      	ldrsb	r1, [r2, r3]
    6984:	18d3      	adds	r3, r2, r3
  switch ( ulMode )
    6986:	f000 fd65 	bl	7454 <__gnu_thumb1_case_uqi>
    698a:	2802      	.short	0x2802
    698c:	1b0e      	.short	0x1b0e
      PORT->Group[g_APinDescription[ulPin].ulPort].PINCFG[g_APinDescription[ulPin].ulPin].reg=(uint8_t)(PORT_PINCFG_INEN) ;
    698e:	6858      	ldr	r0, [r3, #4]
    6990:	01cb      	lsls	r3, r1, #7
    6992:	2102      	movs	r1, #2
    6994:	4a18      	ldr	r2, [pc, #96]	; (69f8 <pinMode+0x94>)
    6996:	189b      	adds	r3, r3, r2
    6998:	181a      	adds	r2, r3, r0
    699a:	3240      	adds	r2, #64	; 0x40
    699c:	7011      	strb	r1, [r2, #0]
      PORT->Group[g_APinDescription[ulPin].ulPort].DIRCLR.reg = (uint32_t)(1<<g_APinDescription[ulPin].ulPin) ;
    699e:	2201      	movs	r2, #1
    69a0:	4082      	lsls	r2, r0
    69a2:	605a      	str	r2, [r3, #4]

    default:
      // do nothing
    break ;
  }
}
    69a4:	bd30      	pop	{r4, r5, pc}
      PORT->Group[g_APinDescription[ulPin].ulPort].PINCFG[g_APinDescription[ulPin].ulPin].reg=(uint8_t)(PORT_PINCFG_INEN|PORT_PINCFG_PULLEN) ;
    69a6:	6858      	ldr	r0, [r3, #4]
    69a8:	01cb      	lsls	r3, r1, #7
    69aa:	2106      	movs	r1, #6
    69ac:	4a12      	ldr	r2, [pc, #72]	; (69f8 <pinMode+0x94>)
    69ae:	189b      	adds	r3, r3, r2
    69b0:	181a      	adds	r2, r3, r0
    69b2:	3240      	adds	r2, #64	; 0x40
    69b4:	7011      	strb	r1, [r2, #0]
      PORT->Group[g_APinDescription[ulPin].ulPort].DIRCLR.reg = (uint32_t)(1<<g_APinDescription[ulPin].ulPin) ;
    69b6:	2201      	movs	r2, #1
    69b8:	4082      	lsls	r2, r0
    69ba:	605a      	str	r2, [r3, #4]
      PORT->Group[g_APinDescription[ulPin].ulPort].OUTSET.reg = (uint32_t)(1<<g_APinDescription[ulPin].ulPin) ;
    69bc:	619a      	str	r2, [r3, #24]
    break ;
    69be:	e7f1      	b.n	69a4 <pinMode+0x40>
      PORT->Group[g_APinDescription[ulPin].ulPort].PINCFG[g_APinDescription[ulPin].ulPin].reg=(uint8_t)(PORT_PINCFG_INEN|PORT_PINCFG_PULLEN) ;
    69c0:	6858      	ldr	r0, [r3, #4]
    69c2:	01cb      	lsls	r3, r1, #7
    69c4:	2106      	movs	r1, #6
    69c6:	4a0c      	ldr	r2, [pc, #48]	; (69f8 <pinMode+0x94>)
    69c8:	189b      	adds	r3, r3, r2
    69ca:	181a      	adds	r2, r3, r0
    69cc:	3240      	adds	r2, #64	; 0x40
    69ce:	7011      	strb	r1, [r2, #0]
      PORT->Group[g_APinDescription[ulPin].ulPort].DIRCLR.reg = (uint32_t)(1<<g_APinDescription[ulPin].ulPin) ;
    69d0:	2201      	movs	r2, #1
    69d2:	4082      	lsls	r2, r0
    69d4:	605a      	str	r2, [r3, #4]
      PORT->Group[g_APinDescription[ulPin].ulPort].OUTCLR.reg = (uint32_t)(1<<g_APinDescription[ulPin].ulPin) ;
    69d6:	615a      	str	r2, [r3, #20]
    break ;
    69d8:	e7e4      	b.n	69a4 <pinMode+0x40>
      PORT->Group[g_APinDescription[ulPin].ulPort].PINCFG[g_APinDescription[ulPin].ulPin].reg=(uint8_t)(PORT_PINCFG_INEN) ;
    69da:	6858      	ldr	r0, [r3, #4]
    69dc:	01cb      	lsls	r3, r1, #7
    69de:	2102      	movs	r1, #2
    69e0:	4a05      	ldr	r2, [pc, #20]	; (69f8 <pinMode+0x94>)
    69e2:	189b      	adds	r3, r3, r2
    69e4:	181a      	adds	r2, r3, r0
    69e6:	3240      	adds	r2, #64	; 0x40
    69e8:	7011      	strb	r1, [r2, #0]
      PORT->Group[g_APinDescription[ulPin].ulPort].DIRSET.reg = (uint32_t)(1<<g_APinDescription[ulPin].ulPin) ;
    69ea:	2201      	movs	r2, #1
    69ec:	4082      	lsls	r2, r0
    69ee:	609a      	str	r2, [r3, #8]
    break ;
    69f0:	e7d8      	b.n	69a4 <pinMode+0x40>
    69f2:	46c0      	nop			; (mov r8, r8)
    69f4:	0000ba48 	.word	0x0000ba48
    69f8:	41004400 	.word	0x41004400

000069fc <digitalWrite>:

void digitalWrite( uint32_t ulPin, uint32_t ulVal )
{
  // Handle the case the pin isn't usable as PIO
  if ( g_APinDescription[ulPin].ulPinType == PIO_NOT_A_PIN )
    69fc:	2318      	movs	r3, #24
{
    69fe:	b5f0      	push	{r4, r5, r6, r7, lr}
  if ( g_APinDescription[ulPin].ulPinType == PIO_NOT_A_PIN )
    6a00:	2408      	movs	r4, #8
    6a02:	4358      	muls	r0, r3
    6a04:	4a11      	ldr	r2, [pc, #68]	; (6a4c <digitalWrite+0x50>)
    6a06:	1813      	adds	r3, r2, r0
    6a08:	571c      	ldrsb	r4, [r3, r4]
    6a0a:	3401      	adds	r4, #1
    6a0c:	d01b      	beq.n	6a46 <digitalWrite+0x4a>
    return ;
  }

  EPortType port = g_APinDescription[ulPin].ulPort;
  uint32_t pin = g_APinDescription[ulPin].ulPin;
  uint32_t pinMask = (1ul << pin);
    6a0e:	2601      	movs	r6, #1
    6a10:	0035      	movs	r5, r6
  uint32_t pin = g_APinDescription[ulPin].ulPin;
    6a12:	685f      	ldr	r7, [r3, #4]

  if ( (PORT->Group[port].DIRSET.reg & pinMask) == 0 ) {
    6a14:	5683      	ldrsb	r3, [r0, r2]
  uint32_t pinMask = (1ul << pin);
    6a16:	40bd      	lsls	r5, r7
  if ( (PORT->Group[port].DIRSET.reg & pinMask) == 0 ) {
    6a18:	4a0d      	ldr	r2, [pc, #52]	; (6a50 <digitalWrite+0x54>)
    6a1a:	01db      	lsls	r3, r3, #7
    6a1c:	189a      	adds	r2, r3, r2
    6a1e:	6890      	ldr	r0, [r2, #8]
    6a20:	4228      	tst	r0, r5
    6a22:	d10b      	bne.n	6a3c <digitalWrite+0x40>
    // the pin is not an output, disable pull-up if val is LOW, otherwise enable pull-up
    PORT->Group[port].PINCFG[pin].bit.PULLEN = ((ulVal == LOW) ? 0 : 1) ;
    6a24:	000c      	movs	r4, r1
    6a26:	1e60      	subs	r0, r4, #1
    6a28:	4184      	sbcs	r4, r0
    6a2a:	19d2      	adds	r2, r2, r7
    6a2c:	3240      	adds	r2, #64	; 0x40
    6a2e:	7810      	ldrb	r0, [r2, #0]
    6a30:	4034      	ands	r4, r6
    6a32:	3603      	adds	r6, #3
    6a34:	00a4      	lsls	r4, r4, #2
    6a36:	43b0      	bics	r0, r6
    6a38:	4320      	orrs	r0, r4
    6a3a:	7010      	strb	r0, [r2, #0]
  }

  switch ( ulVal )
  {
    case LOW:
      PORT->Group[port].OUTCLR.reg = pinMask;
    6a3c:	4a04      	ldr	r2, [pc, #16]	; (6a50 <digitalWrite+0x54>)
    6a3e:	189b      	adds	r3, r3, r2
  switch ( ulVal )
    6a40:	2900      	cmp	r1, #0
    6a42:	d101      	bne.n	6a48 <digitalWrite+0x4c>
      PORT->Group[port].OUTCLR.reg = pinMask;
    6a44:	615d      	str	r5, [r3, #20]
      PORT->Group[port].OUTSET.reg = pinMask;
    break ;
  }

  return ;
}
    6a46:	bdf0      	pop	{r4, r5, r6, r7, pc}
      PORT->Group[port].OUTSET.reg = pinMask;
    6a48:	619d      	str	r5, [r3, #24]
    break ;
    6a4a:	e7fc      	b.n	6a46 <digitalWrite+0x4a>
    6a4c:	0000ba48 	.word	0x0000ba48
    6a50:	41004400 	.word	0x41004400

00006a54 <pinPeripheral>:

#include "Arduino.h"
#include "wiring_private.h"

int pinPeripheral( uint32_t ulPin, EPioType ulPeripheral )
{
    6a54:	b5f8      	push	{r3, r4, r5, r6, r7, lr}
    6a56:	0003      	movs	r3, r0
  // Handle the case the pin isn't usable as PIO
  if ( g_APinDescription[ulPin].ulPinType == PIO_NOT_A_PIN )
    6a58:	2018      	movs	r0, #24
    6a5a:	4358      	muls	r0, r3
    6a5c:	4a2a      	ldr	r2, [pc, #168]	; (6b08 <pinPeripheral+0xb4>)
    6a5e:	1810      	adds	r0, r2, r0
    6a60:	7a00      	ldrb	r0, [r0, #8]
    6a62:	b240      	sxtb	r0, r0
  {
    return -1 ;
    6a64:	0004      	movs	r4, r0
  if ( g_APinDescription[ulPin].ulPinType == PIO_NOT_A_PIN )
    6a66:	3001      	adds	r0, #1
    6a68:	d013      	beq.n	6a92 <pinPeripheral+0x3e>
  }

  switch ( ulPeripheral )
    6a6a:	1c48      	adds	r0, r1, #1
    case PIO_NOT_A_PIN:
      return -1l ;
    break ;
  }

  return 0l ;
    6a6c:	2400      	movs	r4, #0
  switch ( ulPeripheral )
    6a6e:	280c      	cmp	r0, #12
    6a70:	d80f      	bhi.n	6a92 <pinPeripheral+0x3e>
    6a72:	f000 fcef 	bl	7454 <__gnu_thumb1_case_uqi>
    6a76:	1c45      	.short	0x1c45
    6a78:	1c1c1c1c 	.word	0x1c1c1c1c
    6a7c:	071c1c1c 	.word	0x071c1c1c
    6a80:	0707      	.short	0x0707
    6a82:	07          	.byte	0x07
    6a83:	00          	.byte	0x00
      if ( ulPeripheral == PIO_INPUT )
    6a84:	2909      	cmp	r1, #9
    6a86:	d106      	bne.n	6a96 <pinPeripheral+0x42>
        pinMode( ulPin, INPUT ) ;
    6a88:	2100      	movs	r1, #0
          pinMode( ulPin, INPUT_PULLUP ) ;
    6a8a:	0018      	movs	r0, r3
    6a8c:	f7ff ff6a 	bl	6964 <pinMode>
  return 0l ;
    6a90:	2400      	movs	r4, #0
}
    6a92:	0020      	movs	r0, r4
    6a94:	bdf8      	pop	{r3, r4, r5, r6, r7, pc}
        if ( ulPeripheral == PIO_INPUT_PULLUP )
    6a96:	290a      	cmp	r1, #10
    6a98:	d101      	bne.n	6a9e <pinPeripheral+0x4a>
          pinMode( ulPin, INPUT_PULLUP ) ;
    6a9a:	3908      	subs	r1, #8
    6a9c:	e7f5      	b.n	6a8a <pinPeripheral+0x36>
  return 0l ;
    6a9e:	2400      	movs	r4, #0
          if ( ulPeripheral == PIO_OUTPUT )
    6aa0:	290b      	cmp	r1, #11
    6aa2:	d1f6      	bne.n	6a92 <pinPeripheral+0x3e>
            pinMode( ulPin, OUTPUT ) ;
    6aa4:	390a      	subs	r1, #10
    6aa6:	0018      	movs	r0, r3
    6aa8:	f7ff ff5c 	bl	6964 <pinMode>
    6aac:	e7f1      	b.n	6a92 <pinPeripheral+0x3e>
      if ( g_APinDescription[ulPin].ulPin & 1 ) // is pin odd?
    6aae:	2018      	movs	r0, #24
    6ab0:	4343      	muls	r3, r0
    6ab2:	18d0      	adds	r0, r2, r3
    6ab4:	6846      	ldr	r6, [r0, #4]
    6ab6:	2501      	movs	r5, #1
    6ab8:	0034      	movs	r4, r6
    6aba:	56d2      	ldrsb	r2, [r2, r3]
        temp = (PORT->Group[g_APinDescription[ulPin].ulPort].PMUX[g_APinDescription[ulPin].ulPin >> 1].reg) & PORT_PMUX_PMUXE( 0xF ) ;
    6abc:	4813      	ldr	r0, [pc, #76]	; (6b0c <pinPeripheral+0xb8>)
    6abe:	01d2      	lsls	r2, r2, #7
    6ac0:	1812      	adds	r2, r2, r0
    6ac2:	0873      	lsrs	r3, r6, #1
    6ac4:	18d3      	adds	r3, r2, r3
    6ac6:	3330      	adds	r3, #48	; 0x30
      if ( g_APinDescription[ulPin].ulPin & 1 ) // is pin odd?
    6ac8:	402c      	ands	r4, r5
        temp = (PORT->Group[g_APinDescription[ulPin].ulPort].PMUX[g_APinDescription[ulPin].ulPin >> 1].reg) & PORT_PMUX_PMUXE( 0xF ) ;
    6aca:	7818      	ldrb	r0, [r3, #0]
      if ( g_APinDescription[ulPin].ulPin & 1 ) // is pin odd?
    6acc:	2c00      	cmp	r4, #0
    6ace:	d00b      	beq.n	6ae8 <pinPeripheral+0x94>
        PORT->Group[g_APinDescription[ulPin].ulPort].PMUX[g_APinDescription[ulPin].ulPin >> 1].reg = temp|PORT_PMUX_PMUXO( ulPeripheral ) ;
    6ad0:	240f      	movs	r4, #15
    6ad2:	0109      	lsls	r1, r1, #4
    6ad4:	4020      	ands	r0, r4
    6ad6:	4301      	orrs	r1, r0
    6ad8:	b2c9      	uxtb	r1, r1
        PORT->Group[g_APinDescription[ulPin].ulPort].PINCFG[g_APinDescription[ulPin].ulPin].reg |= PORT_PINCFG_PMUXEN ;
    6ada:	1992      	adds	r2, r2, r6
        PORT->Group[g_APinDescription[ulPin].ulPort].PMUX[g_APinDescription[ulPin].ulPin >> 1].reg = temp|PORT_PMUX_PMUXO( ulPeripheral ) ;
    6adc:	7019      	strb	r1, [r3, #0]
        PORT->Group[g_APinDescription[ulPin].ulPort].PINCFG[g_APinDescription[ulPin].ulPin].reg |= PORT_PINCFG_PMUXEN ;
    6ade:	3240      	adds	r2, #64	; 0x40
    6ae0:	7813      	ldrb	r3, [r2, #0]
    6ae2:	431d      	orrs	r5, r3
    6ae4:	7015      	strb	r5, [r2, #0]
    6ae6:	e7d3      	b.n	6a90 <pinPeripheral+0x3c>
        PORT->Group[g_APinDescription[ulPin].ulPort].PMUX[g_APinDescription[ulPin].ulPin >> 1].reg = temp|PORT_PMUX_PMUXE( ulPeripheral ) ;
    6ae8:	270f      	movs	r7, #15
    6aea:	43b8      	bics	r0, r7
    6aec:	4301      	orrs	r1, r0
        PORT->Group[g_APinDescription[ulPin].ulPort].PINCFG[g_APinDescription[ulPin].ulPin].reg |= PORT_PINCFG_PMUXEN ; // Enable port mux
    6aee:	1992      	adds	r2, r2, r6
        PORT->Group[g_APinDescription[ulPin].ulPort].PMUX[g_APinDescription[ulPin].ulPin >> 1].reg = temp|PORT_PMUX_PMUXE( ulPeripheral ) ;
    6af0:	b2c9      	uxtb	r1, r1
    6af2:	7019      	strb	r1, [r3, #0]
        PORT->Group[g_APinDescription[ulPin].ulPort].PINCFG[g_APinDescription[ulPin].ulPin].reg |= PORT_PINCFG_PMUXEN ; // Enable port mux
    6af4:	0013      	movs	r3, r2
    6af6:	3340      	adds	r3, #64	; 0x40
    6af8:	781a      	ldrb	r2, [r3, #0]
    6afa:	4315      	orrs	r5, r2
    6afc:	701d      	strb	r5, [r3, #0]
    6afe:	e7c8      	b.n	6a92 <pinPeripheral+0x3e>
      return -1l ;
    6b00:	2401      	movs	r4, #1
    6b02:	4264      	negs	r4, r4
    6b04:	e7c5      	b.n	6a92 <pinPeripheral+0x3e>
    6b06:	46c0      	nop			; (mov r8, r8)
    6b08:	0000ba48 	.word	0x0000ba48
    6b0c:	41004400 	.word	0x41004400

00006b10 <_ZN6StringD1Ev>:
	init();
	char buf[33];
	*this = dtostrf(value, (decimalPlaces + 2), decimalPlaces, buf);
}

String::~String()
    6b10:	b510      	push	{r4, lr}
    6b12:	0004      	movs	r4, r0
{
	free(buffer);
    6b14:	6800      	ldr	r0, [r0, #0]
    6b16:	f002 fc1f 	bl	9358 <free>
}
    6b1a:	0020      	movs	r0, r4
    6b1c:	bd10      	pop	{r4, pc}

00006b1e <_ZN6String10invalidateEv>:
	capacity = 0;
	len = 0;
}

void String::invalidate(void)
{
    6b1e:	b510      	push	{r4, lr}
    6b20:	0004      	movs	r4, r0
	if (buffer) free(buffer);
    6b22:	6800      	ldr	r0, [r0, #0]
    6b24:	2800      	cmp	r0, #0
    6b26:	d001      	beq.n	6b2c <_ZN6String10invalidateEv+0xe>
    6b28:	f002 fc16 	bl	9358 <free>
	buffer = NULL;
    6b2c:	2300      	movs	r3, #0
    6b2e:	6023      	str	r3, [r4, #0]
	capacity = len = 0;
    6b30:	60a3      	str	r3, [r4, #8]
    6b32:	6063      	str	r3, [r4, #4]
}
    6b34:	bd10      	pop	{r4, pc}

00006b36 <_ZN6String12changeBufferEj>:
	}
	return 0;
}

unsigned char String::changeBuffer(unsigned int maxStrLen)
{
    6b36:	b570      	push	{r4, r5, r6, lr}
    6b38:	0004      	movs	r4, r0
    6b3a:	000d      	movs	r5, r1
	char *newbuffer = (char *)realloc(buffer, maxStrLen + 1);
    6b3c:	6800      	ldr	r0, [r0, #0]
    6b3e:	3101      	adds	r1, #1
    6b40:	f003 f970 	bl	9e24 <realloc>
    6b44:	1e03      	subs	r3, r0, #0
	if (newbuffer) {
    6b46:	d001      	beq.n	6b4c <_ZN6String12changeBufferEj+0x16>
		buffer = newbuffer;
		capacity = maxStrLen;
		return 1;
    6b48:	2001      	movs	r0, #1
		capacity = maxStrLen;
    6b4a:	c428      	stmia	r4!, {r3, r5}
	}
	return 0;
}
    6b4c:	bd70      	pop	{r4, r5, r6, pc}

00006b4e <_ZN6String7reserveEj>:
	if (buffer && capacity >= size) return 1;
    6b4e:	6803      	ldr	r3, [r0, #0]
{
    6b50:	b510      	push	{r4, lr}
    6b52:	0004      	movs	r4, r0
	if (buffer && capacity >= size) return 1;
    6b54:	2b00      	cmp	r3, #0
    6b56:	d004      	beq.n	6b62 <_ZN6String7reserveEj+0x14>
    6b58:	6843      	ldr	r3, [r0, #4]
    6b5a:	428b      	cmp	r3, r1
    6b5c:	d301      	bcc.n	6b62 <_ZN6String7reserveEj+0x14>
		if (len == 0) buffer[0] = 0;
    6b5e:	2001      	movs	r0, #1
}
    6b60:	bd10      	pop	{r4, pc}
	if (changeBuffer(size)) {
    6b62:	0020      	movs	r0, r4
    6b64:	f7ff ffe7 	bl	6b36 <_ZN6String12changeBufferEj>
    6b68:	2800      	cmp	r0, #0
    6b6a:	d0f9      	beq.n	6b60 <_ZN6String7reserveEj+0x12>
		if (len == 0) buffer[0] = 0;
    6b6c:	68a3      	ldr	r3, [r4, #8]
    6b6e:	2b00      	cmp	r3, #0
    6b70:	d1f5      	bne.n	6b5e <_ZN6String7reserveEj+0x10>
    6b72:	6822      	ldr	r2, [r4, #0]
    6b74:	7013      	strb	r3, [r2, #0]
    6b76:	e7f2      	b.n	6b5e <_ZN6String7reserveEj+0x10>

00006b78 <_ZN6String4copyEPKcj>:
/*********************************************/
/*  Copy and Move                            */
/*********************************************/

String & String::copy(const char *cstr, unsigned int length)
{
    6b78:	b570      	push	{r4, r5, r6, lr}
    6b7a:	000e      	movs	r6, r1
	if (!reserve(length)) {
    6b7c:	0011      	movs	r1, r2
{
    6b7e:	0004      	movs	r4, r0
    6b80:	0015      	movs	r5, r2
	if (!reserve(length)) {
    6b82:	f7ff ffe4 	bl	6b4e <_ZN6String7reserveEj>
    6b86:	2800      	cmp	r0, #0
    6b88:	d104      	bne.n	6b94 <_ZN6String4copyEPKcj+0x1c>
		invalidate();
    6b8a:	0020      	movs	r0, r4
    6b8c:	f7ff ffc7 	bl	6b1e <_ZN6String10invalidateEv>
		return *this;
	}
	len = length;
	strcpy(buffer, cstr);
	return *this;
}
    6b90:	0020      	movs	r0, r4
    6b92:	bd70      	pop	{r4, r5, r6, pc}
	len = length;
    6b94:	60a5      	str	r5, [r4, #8]
	strcpy(buffer, cstr);
    6b96:	0031      	movs	r1, r6
    6b98:	6820      	ldr	r0, [r4, #0]
    6b9a:	f003 f981 	bl	9ea0 <strcpy>
	return *this;
    6b9e:	e7f7      	b.n	6b90 <_ZN6String4copyEPKcj+0x18>

00006ba0 <_ZN6StringC1EPKc>:
	buffer = NULL;
    6ba0:	2300      	movs	r3, #0
String::String(const char *cstr)
    6ba2:	b570      	push	{r4, r5, r6, lr}
    6ba4:	0004      	movs	r4, r0
    6ba6:	000d      	movs	r5, r1
	buffer = NULL;
    6ba8:	6003      	str	r3, [r0, #0]
	capacity = 0;
    6baa:	6043      	str	r3, [r0, #4]
	len = 0;
    6bac:	6083      	str	r3, [r0, #8]
	if (cstr) copy(cstr, strlen(cstr));
    6bae:	4299      	cmp	r1, r3
    6bb0:	d007      	beq.n	6bc2 <_ZN6StringC1EPKc+0x22>
    6bb2:	0008      	movs	r0, r1
    6bb4:	f003 f97c 	bl	9eb0 <strlen>
    6bb8:	0029      	movs	r1, r5
    6bba:	0002      	movs	r2, r0
    6bbc:	0020      	movs	r0, r4
    6bbe:	f7ff ffdb 	bl	6b78 <_ZN6String4copyEPKcj>
}
    6bc2:	0020      	movs	r0, r4
    6bc4:	bd70      	pop	{r4, r5, r6, pc}

00006bc6 <_Z11initVariantv>:
  PERIPH_WIRE.disableWIRE();
}

#endif

void initVariant() {
    6bc6:	b510      	push	{r4, lr}
  }
  disable_battery_fet(!batteryPresent);
#endif

  // NINA - SPI boot
  pinMode(NINA_GPIO0, OUTPUT);
    6bc8:	2101      	movs	r1, #1
    6bca:	201e      	movs	r0, #30
    6bcc:	f7ff feca 	bl	6964 <pinMode>
  digitalWrite(NINA_GPIO0, HIGH);
    6bd0:	2101      	movs	r1, #1
    6bd2:	201e      	movs	r0, #30
    6bd4:	f7ff ff12 	bl	69fc <digitalWrite>

  // disable NINA
  pinMode(NINA_RESETN, OUTPUT);
    6bd8:	2101      	movs	r1, #1
    6bda:	201f      	movs	r0, #31
    6bdc:	f7ff fec2 	bl	6964 <pinMode>
  digitalWrite(NINA_RESETN, HIGH);
    6be0:	2101      	movs	r1, #1
    6be2:	201f      	movs	r0, #31
    6be4:	f7ff ff0a 	bl	69fc <digitalWrite>
}
    6be8:	bd10      	pop	{r4, pc}
	...

00006bec <SERCOM5_Handler>:

// Serial1
Uart Serial1(&sercom5, PIN_SERIAL1_RX, PIN_SERIAL1_TX, PAD_SERIAL1_RX, PAD_SERIAL1_TX);

void SERCOM5_Handler()
{
    6bec:	b510      	push	{r4, lr}
  Serial1.IrqHandler();
    6bee:	4802      	ldr	r0, [pc, #8]	; (6bf8 <SERCOM5_Handler+0xc>)
    6bf0:	f000 faeb 	bl	71ca <_ZN4Uart10IrqHandlerEv>
}
    6bf4:	bd10      	pop	{r4, pc}
    6bf6:	46c0      	nop			; (mov r8, r8)
    6bf8:	20000c1c 	.word	0x20000c1c

00006bfc <SERCOM4_Handler>:

// Serial2
Uart Serial2(&sercom4, PIN_SERIAL2_RX, PIN_SERIAL2_TX, PAD_SERIAL2_RX, PAD_SERIAL2_TX, PIN_SERIAL2_RTS, PIN_SERIAL2_CTS);

void SERCOM4_Handler()
{
    6bfc:	b510      	push	{r4, lr}
  Serial2.IrqHandler();
    6bfe:	4802      	ldr	r0, [pc, #8]	; (6c08 <SERCOM4_Handler+0xc>)
    6c00:	f000 fae3 	bl	71ca <_ZN4Uart10IrqHandlerEv>
}
    6c04:	bd10      	pop	{r4, pc}
    6c06:	46c0      	nop			; (mov r8, r8)
    6c08:	20000e58 	.word	0x20000e58

00006c0c <_GLOBAL__sub_I_g_APinDescription>:
    6c0c:	b57f      	push	{r0, r1, r2, r3, r4, r5, r6, lr}
SERCOM sercom0(SERCOM0);
    6c0e:	4919      	ldr	r1, [pc, #100]	; (6c74 <_GLOBAL__sub_I_g_APinDescription+0x68>)
    6c10:	4819      	ldr	r0, [pc, #100]	; (6c78 <_GLOBAL__sub_I_g_APinDescription+0x6c>)
    6c12:	f000 f84b 	bl	6cac <_ZN6SERCOMC1EP6Sercom>
SERCOM sercom1(SERCOM1);
    6c16:	4919      	ldr	r1, [pc, #100]	; (6c7c <_GLOBAL__sub_I_g_APinDescription+0x70>)
    6c18:	4819      	ldr	r0, [pc, #100]	; (6c80 <_GLOBAL__sub_I_g_APinDescription+0x74>)
    6c1a:	f000 f847 	bl	6cac <_ZN6SERCOMC1EP6Sercom>
SERCOM sercom2(SERCOM2);
    6c1e:	4919      	ldr	r1, [pc, #100]	; (6c84 <_GLOBAL__sub_I_g_APinDescription+0x78>)
    6c20:	4819      	ldr	r0, [pc, #100]	; (6c88 <_GLOBAL__sub_I_g_APinDescription+0x7c>)
    6c22:	f000 f843 	bl	6cac <_ZN6SERCOMC1EP6Sercom>
SERCOM sercom3(SERCOM3);
    6c26:	4919      	ldr	r1, [pc, #100]	; (6c8c <_GLOBAL__sub_I_g_APinDescription+0x80>)
    6c28:	4819      	ldr	r0, [pc, #100]	; (6c90 <_GLOBAL__sub_I_g_APinDescription+0x84>)
    6c2a:	f000 f83f 	bl	6cac <_ZN6SERCOMC1EP6Sercom>
SERCOM sercom4(SERCOM4);
    6c2e:	4c19      	ldr	r4, [pc, #100]	; (6c94 <_GLOBAL__sub_I_g_APinDescription+0x88>)
    6c30:	4919      	ldr	r1, [pc, #100]	; (6c98 <_GLOBAL__sub_I_g_APinDescription+0x8c>)
    6c32:	0020      	movs	r0, r4
    6c34:	f000 f83a 	bl	6cac <_ZN6SERCOMC1EP6Sercom>
SERCOM sercom5(SERCOM5);
    6c38:	4e18      	ldr	r6, [pc, #96]	; (6c9c <_GLOBAL__sub_I_g_APinDescription+0x90>)
    6c3a:	4919      	ldr	r1, [pc, #100]	; (6ca0 <_GLOBAL__sub_I_g_APinDescription+0x94>)
    6c3c:	0030      	movs	r0, r6
    6c3e:	f000 f835 	bl	6cac <_ZN6SERCOMC1EP6Sercom>
Uart Serial1(&sercom5, PIN_SERIAL1_RX, PIN_SERIAL1_TX, PAD_SERIAL1_RX, PAD_SERIAL1_TX);
    6c42:	2501      	movs	r5, #1
    6c44:	2303      	movs	r3, #3
    6c46:	0031      	movs	r1, r6
    6c48:	9501      	str	r5, [sp, #4]
    6c4a:	9300      	str	r3, [sp, #0]
    6c4c:	220d      	movs	r2, #13
    6c4e:	330b      	adds	r3, #11
    6c50:	4814      	ldr	r0, [pc, #80]	; (6ca4 <_GLOBAL__sub_I_g_APinDescription+0x98>)
    6c52:	f000 fa4f 	bl	70f4 <_ZN4UartC1EP6SERCOMhh11SercomRXPad15SercomUartTXPad>
Uart Serial2(&sercom4, PIN_SERIAL2_RX, PIN_SERIAL2_TX, PAD_SERIAL2_RX, PAD_SERIAL2_TX, PIN_SERIAL2_RTS, PIN_SERIAL2_CTS);
    6c56:	231d      	movs	r3, #29
    6c58:	9303      	str	r3, [sp, #12]
    6c5a:	3b01      	subs	r3, #1
    6c5c:	9302      	str	r3, [sp, #8]
    6c5e:	3b1a      	subs	r3, #26
    6c60:	9301      	str	r3, [sp, #4]
    6c62:	9500      	str	r5, [sp, #0]
    6c64:	3318      	adds	r3, #24
    6c66:	221b      	movs	r2, #27
    6c68:	0021      	movs	r1, r4
    6c6a:	480f      	ldr	r0, [pc, #60]	; (6ca8 <_GLOBAL__sub_I_g_APinDescription+0x9c>)
    6c6c:	f000 f9fe 	bl	706c <_ZN4UartC1EP6SERCOMhh11SercomRXPad15SercomUartTXPadhh>
}
    6c70:	bd7f      	pop	{r0, r1, r2, r3, r4, r5, r6, pc}
    6c72:	46c0      	nop			; (mov r8, r8)
    6c74:	42000800 	.word	0x42000800
    6c78:	20001094 	.word	0x20001094
    6c7c:	42000c00 	.word	0x42000c00
    6c80:	20001098 	.word	0x20001098
    6c84:	42001000 	.word	0x42001000
    6c88:	2000109c 	.word	0x2000109c
    6c8c:	42001400 	.word	0x42001400
    6c90:	200010a0 	.word	0x200010a0
    6c94:	200010a4 	.word	0x200010a4
    6c98:	42001800 	.word	0x42001800
    6c9c:	200010a8 	.word	0x200010a8
    6ca0:	42001c00 	.word	0x42001c00
    6ca4:	20000c1c 	.word	0x20000c1c
    6ca8:	20000e58 	.word	0x20000e58

00006cac <_ZN6SERCOMC1EP6Sercom>:
#define WIRE_RISE_TIME_NANOSECONDS 125
#endif

SERCOM::SERCOM(Sercom* s)
{
  sercom = s;
    6cac:	6001      	str	r1, [r0, #0]
}
    6cae:	4770      	bx	lr

00006cb0 <_ZN6SERCOM9initFrameE18SercomUartCharSize15SercomDataOrder16SercomParityMode19SercomNumberStopBit>:
    sercom->USART.BAUD.FRAC.FP   = (baudTimes8 % 8);
    sercom->USART.BAUD.FRAC.BAUD = (baudTimes8 / 8);
  }
}
void SERCOM::initFrame(SercomUartCharSize charSize, SercomDataOrder dataOrder, SercomParityMode parityMode, SercomNumberStopBit nbStopBits)
{
    6cb0:	b5f0      	push	{r4, r5, r6, r7, lr}
    6cb2:	ac05      	add	r4, sp, #20
    6cb4:	7825      	ldrb	r5, [r4, #0]
  //Setting the CTRLA register
  sercom->USART.CTRLA.reg |=	SERCOM_USART_CTRLA_FORM( (parityMode == SERCOM_NO_PARITY ? 0 : 1) ) |
    6cb6:	6804      	ldr	r4, [r0, #0]
    6cb8:	1e98      	subs	r0, r3, #2
    6cba:	1e47      	subs	r7, r0, #1
    6cbc:	41b8      	sbcs	r0, r7
                dataOrder << SERCOM_USART_CTRLA_DORD_Pos;
    6cbe:	6826      	ldr	r6, [r4, #0]
    6cc0:	0792      	lsls	r2, r2, #30
  sercom->USART.CTRLA.reg |=	SERCOM_USART_CTRLA_FORM( (parityMode == SERCOM_NO_PARITY ? 0 : 1) ) |
    6cc2:	0600      	lsls	r0, r0, #24
                dataOrder << SERCOM_USART_CTRLA_DORD_Pos;
    6cc4:	4332      	orrs	r2, r6
    6cc6:	4302      	orrs	r2, r0

  //Setting the CTRLB register
  sercom->USART.CTRLB.reg |=	SERCOM_USART_CTRLB_CHSIZE(charSize) |
    6cc8:	2007      	movs	r0, #7
  sercom->USART.CTRLA.reg |=	SERCOM_USART_CTRLA_FORM( (parityMode == SERCOM_NO_PARITY ? 0 : 1) ) |
    6cca:	6022      	str	r2, [r4, #0]
  sercom->USART.CTRLB.reg |=	SERCOM_USART_CTRLB_CHSIZE(charSize) |
    6ccc:	4001      	ands	r1, r0
                nbStopBits << SERCOM_USART_CTRLB_SBMODE_Pos |
    6cce:	01ad      	lsls	r5, r5, #6
                (parityMode == SERCOM_NO_PARITY ? 0 : parityMode) << SERCOM_USART_CTRLB_PMODE_Pos; //If no parity use default value
    6cd0:	6862      	ldr	r2, [r4, #4]
    6cd2:	4329      	orrs	r1, r5
    6cd4:	2000      	movs	r0, #0
    6cd6:	2b02      	cmp	r3, #2
    6cd8:	d000      	beq.n	6cdc <_ZN6SERCOM9initFrameE18SercomUartCharSize15SercomDataOrder16SercomParityMode19SercomNumberStopBit+0x2c>
    6cda:	0358      	lsls	r0, r3, #13
    6cdc:	4311      	orrs	r1, r2
    6cde:	4301      	orrs	r1, r0
  sercom->USART.CTRLB.reg |=	SERCOM_USART_CTRLB_CHSIZE(charSize) |
    6ce0:	6061      	str	r1, [r4, #4]
}
    6ce2:	bdf0      	pop	{r4, r5, r6, r7, pc}

00006ce4 <_ZN6SERCOM8initPadsE15SercomUartTXPad11SercomRXPad>:

void SERCOM::initPads(SercomUartTXPad txPad, SercomRXPad rxPad)
{
    6ce4:	b510      	push	{r4, lr}
  //Setting the CTRLA register
  sercom->USART.CTRLA.reg |=	SERCOM_USART_CTRLA_TXPO(txPad) |
                SERCOM_USART_CTRLA_RXPO(rxPad);
    6ce6:	24c0      	movs	r4, #192	; 0xc0
  sercom->USART.CTRLA.reg |=	SERCOM_USART_CTRLA_TXPO(txPad) |
    6ce8:	6803      	ldr	r3, [r0, #0]
                SERCOM_USART_CTRLA_RXPO(rxPad);
    6cea:	03a4      	lsls	r4, r4, #14
    6cec:	6818      	ldr	r0, [r3, #0]
    6cee:	0512      	lsls	r2, r2, #20
    6cf0:	4022      	ands	r2, r4
    6cf2:	4302      	orrs	r2, r0
  sercom->USART.CTRLA.reg |=	SERCOM_USART_CTRLA_TXPO(txPad) |
    6cf4:	20c0      	movs	r0, #192	; 0xc0
    6cf6:	0409      	lsls	r1, r1, #16
    6cf8:	0280      	lsls	r0, r0, #10
    6cfa:	4001      	ands	r1, r0
                SERCOM_USART_CTRLA_RXPO(rxPad);
    6cfc:	4311      	orrs	r1, r2
  sercom->USART.CTRLA.reg |=	SERCOM_USART_CTRLA_TXPO(txPad) |
    6cfe:	6019      	str	r1, [r3, #0]

  // Enable Transceiver and Receiver
  sercom->USART.CTRLB.reg |= SERCOM_USART_CTRLB_TXEN | SERCOM_USART_CTRLB_RXEN ;
    6d00:	685a      	ldr	r2, [r3, #4]
    6d02:	4310      	orrs	r0, r2
    6d04:	6058      	str	r0, [r3, #4]
}
    6d06:	bd10      	pop	{r4, pc}

00006d08 <_ZN6SERCOM9resetUARTEv>:

void SERCOM::resetUART()
{
  // Start the Software Reset
  sercom->USART.CTRLA.bit.SWRST = 1 ;
    6d08:	2201      	movs	r2, #1
    6d0a:	6803      	ldr	r3, [r0, #0]
    6d0c:	6819      	ldr	r1, [r3, #0]
    6d0e:	430a      	orrs	r2, r1
    6d10:	601a      	str	r2, [r3, #0]

  while ( sercom->USART.CTRLA.bit.SWRST || sercom->USART.SYNCBUSY.bit.SWRST )
    6d12:	681a      	ldr	r2, [r3, #0]
    6d14:	07d2      	lsls	r2, r2, #31
    6d16:	d4fc      	bmi.n	6d12 <_ZN6SERCOM9resetUARTEv+0xa>
    6d18:	69da      	ldr	r2, [r3, #28]
    6d1a:	07d2      	lsls	r2, r2, #31
    6d1c:	d4f9      	bmi.n	6d12 <_ZN6SERCOM9resetUARTEv+0xa>
  {
    // Wait for both bits Software Reset from CTRLA and SYNCBUSY coming back to 0
  }
}
    6d1e:	4770      	bx	lr

00006d20 <_ZN6SERCOM10enableUARTEv>:

void SERCOM::enableUART()
{
  //Setting  the enable bit to 1
  sercom->USART.CTRLA.bit.ENABLE = 0x1u;
    6d20:	2202      	movs	r2, #2
    6d22:	6803      	ldr	r3, [r0, #0]
    6d24:	6819      	ldr	r1, [r3, #0]
    6d26:	430a      	orrs	r2, r1
    6d28:	601a      	str	r2, [r3, #0]

  //Wait for then enable bit from SYNCBUSY is equal to 0;
  while(sercom->USART.SYNCBUSY.bit.ENABLE);
    6d2a:	69da      	ldr	r2, [r3, #28]
    6d2c:	0792      	lsls	r2, r2, #30
    6d2e:	d4fc      	bmi.n	6d2a <_ZN6SERCOM10enableUARTEv+0xa>
}
    6d30:	4770      	bx	lr

00006d32 <_ZN6SERCOM9flushUARTEv>:
}

bool SERCOM::isDataRegisterEmptyUART()
{
  //DRE : Data Register Empty
  return sercom->USART.INTFLAG.bit.DRE;
    6d32:	6803      	ldr	r3, [r0, #0]
    6d34:	7e1a      	ldrb	r2, [r3, #24]
  if(isDataRegisterEmptyUART())
    6d36:	07d2      	lsls	r2, r2, #31
    6d38:	d402      	bmi.n	6d40 <_ZN6SERCOM9flushUARTEv+0xe>
  while(!sercom->USART.INTFLAG.bit.TXC);
    6d3a:	7e1a      	ldrb	r2, [r3, #24]
    6d3c:	0792      	lsls	r2, r2, #30
    6d3e:	d5fc      	bpl.n	6d3a <_ZN6SERCOM9flushUARTEv+0x8>
}
    6d40:	4770      	bx	lr

00006d42 <_ZN6SERCOM15clearStatusUARTEv>:
  sercom->USART.STATUS.reg = SERCOM_USART_STATUS_RESETVALUE;
    6d42:	2200      	movs	r2, #0
    6d44:	6803      	ldr	r3, [r0, #0]
    6d46:	835a      	strh	r2, [r3, #26]
}
    6d48:	4770      	bx	lr

00006d4a <_ZN6SERCOM17availableDataUARTEv>:
  return sercom->USART.INTFLAG.bit.RXC;
    6d4a:	6803      	ldr	r3, [r0, #0]
    6d4c:	7e18      	ldrb	r0, [r3, #24]
    6d4e:	0740      	lsls	r0, r0, #29
    6d50:	0fc0      	lsrs	r0, r0, #31
}
    6d52:	4770      	bx	lr

00006d54 <_ZN6SERCOM11isUARTErrorEv>:
  return sercom->USART.INTFLAG.bit.ERROR;
    6d54:	6803      	ldr	r3, [r0, #0]
    6d56:	7e18      	ldrb	r0, [r3, #24]
    6d58:	09c0      	lsrs	r0, r0, #7
}
    6d5a:	4770      	bx	lr

00006d5c <_ZN6SERCOM20acknowledgeUARTErrorEv>:
  sercom->USART.INTFLAG.bit.ERROR = 1;
    6d5c:	2380      	movs	r3, #128	; 0x80
    6d5e:	6802      	ldr	r2, [r0, #0]
    6d60:	425b      	negs	r3, r3
    6d62:	7e11      	ldrb	r1, [r2, #24]
    6d64:	430b      	orrs	r3, r1
    6d66:	7613      	strb	r3, [r2, #24]
}
    6d68:	4770      	bx	lr

00006d6a <_ZN6SERCOM16isFrameErrorUARTEv>:
  return sercom->USART.STATUS.bit.FERR;
    6d6a:	6803      	ldr	r3, [r0, #0]
    6d6c:	8b58      	ldrh	r0, [r3, #26]
    6d6e:	0780      	lsls	r0, r0, #30
    6d70:	0fc0      	lsrs	r0, r0, #31
}
    6d72:	4770      	bx	lr

00006d74 <_ZN6SERCOM19clearFrameErrorUARTEv>:
  sercom->USART.STATUS.bit.FERR = 1;
    6d74:	2302      	movs	r3, #2
    6d76:	6802      	ldr	r2, [r0, #0]
    6d78:	8b51      	ldrh	r1, [r2, #26]
    6d7a:	430b      	orrs	r3, r1
    6d7c:	8353      	strh	r3, [r2, #26]
}
    6d7e:	4770      	bx	lr

00006d80 <_ZN6SERCOM23isDataRegisterEmptyUARTEv>:
  return sercom->USART.INTFLAG.bit.DRE;
    6d80:	6803      	ldr	r3, [r0, #0]
    6d82:	7e18      	ldrb	r0, [r3, #24]
    6d84:	07c0      	lsls	r0, r0, #31
    6d86:	0fc0      	lsrs	r0, r0, #31
}
    6d88:	4770      	bx	lr

00006d8a <_ZN6SERCOM12readDataUARTEv>:

uint8_t SERCOM::readDataUART()
{
  return sercom->USART.DATA.bit.DATA;
    6d8a:	6803      	ldr	r3, [r0, #0]
    6d8c:	8d18      	ldrh	r0, [r3, #40]	; 0x28
    6d8e:	b2c0      	uxtb	r0, r0
}
    6d90:	4770      	bx	lr

00006d92 <_ZN6SERCOM13writeDataUARTEh>:
  return sercom->USART.INTFLAG.bit.DRE;
    6d92:	6803      	ldr	r3, [r0, #0]
    6d94:	7e1a      	ldrb	r2, [r3, #24]

int SERCOM::writeDataUART(uint8_t data)
{
  // Wait for data register to be empty
  while(!isDataRegisterEmptyUART());
    6d96:	07d2      	lsls	r2, r2, #31
    6d98:	d5fc      	bpl.n	6d94 <_ZN6SERCOM13writeDataUARTEh+0x2>

  //Put data into DATA register
  sercom->USART.DATA.reg = (uint16_t)data;
    6d9a:	b289      	uxth	r1, r1
  return 1;
}
    6d9c:	2001      	movs	r0, #1
  sercom->USART.DATA.reg = (uint16_t)data;
    6d9e:	8519      	strh	r1, [r3, #40]	; 0x28
}
    6da0:	4770      	bx	lr

00006da2 <_ZN6SERCOM36enableDataRegisterEmptyInterruptUARTEv>:

void SERCOM::enableDataRegisterEmptyInterruptUART()
{
  sercom->USART.INTENSET.reg = SERCOM_USART_INTENSET_DRE;
    6da2:	2201      	movs	r2, #1
    6da4:	6803      	ldr	r3, [r0, #0]
    6da6:	759a      	strb	r2, [r3, #22]
}
    6da8:	4770      	bx	lr

00006daa <_ZN6SERCOM37disableDataRegisterEmptyInterruptUARTEv>:

void SERCOM::disableDataRegisterEmptyInterruptUART()
{
  sercom->USART.INTENCLR.reg = SERCOM_USART_INTENCLR_DRE;
    6daa:	2201      	movs	r2, #1
    6dac:	6803      	ldr	r3, [r0, #0]
    6dae:	751a      	strb	r2, [r3, #20]
}
    6db0:	4770      	bx	lr
	...

00006db4 <_ZN6SERCOM13initClockNVICEv>:
void SERCOM::initClockNVIC( void )
{
  uint8_t clockId = 0;
  IRQn_Type IdNvic=PendSV_IRQn ; // Dummy init to intercept potential error later

  if(sercom == SERCOM0)
    6db4:	6803      	ldr	r3, [r0, #0]
    6db6:	4a21      	ldr	r2, [pc, #132]	; (6e3c <_ZN6SERCOM13initClockNVICEv+0x88>)
{
    6db8:	b530      	push	{r4, r5, lr}
  if(sercom == SERCOM0)
    6dba:	4293      	cmp	r3, r2
    6dbc:	d011      	beq.n	6de2 <_ZN6SERCOM13initClockNVICEv+0x2e>
  {
    clockId = GCM_SERCOM0_CORE;
    IdNvic = SERCOM0_IRQn;
  }
  else if(sercom == SERCOM1)
    6dbe:	4a20      	ldr	r2, [pc, #128]	; (6e40 <_ZN6SERCOM13initClockNVICEv+0x8c>)
    6dc0:	4293      	cmp	r3, r2
    6dc2:	d02f      	beq.n	6e24 <_ZN6SERCOM13initClockNVICEv+0x70>
  {
    clockId = GCM_SERCOM1_CORE;
    IdNvic = SERCOM1_IRQn;
  }
  else if(sercom == SERCOM2)
    6dc4:	4a1f      	ldr	r2, [pc, #124]	; (6e44 <_ZN6SERCOM13initClockNVICEv+0x90>)
    6dc6:	4293      	cmp	r3, r2
    6dc8:	d02f      	beq.n	6e2a <_ZN6SERCOM13initClockNVICEv+0x76>
  {
    clockId = GCM_SERCOM2_CORE;
    IdNvic = SERCOM2_IRQn;
  }
  else if(sercom == SERCOM3)
    6dca:	4a1f      	ldr	r2, [pc, #124]	; (6e48 <_ZN6SERCOM13initClockNVICEv+0x94>)
    6dcc:	4293      	cmp	r3, r2
    6dce:	d02f      	beq.n	6e30 <_ZN6SERCOM13initClockNVICEv+0x7c>
  {
    clockId = GCM_SERCOM3_CORE;
    IdNvic = SERCOM3_IRQn;
  }
  #if defined(SERCOM4)
  else if(sercom == SERCOM4)
    6dd0:	4a1e      	ldr	r2, [pc, #120]	; (6e4c <_ZN6SERCOM13initClockNVICEv+0x98>)
    6dd2:	4293      	cmp	r3, r2
    6dd4:	d02f      	beq.n	6e36 <_ZN6SERCOM13initClockNVICEv+0x82>
    clockId = GCM_SERCOM4_CORE;
    IdNvic = SERCOM4_IRQn;
  }
  #endif // SERCOM4
  #if defined(SERCOM5)
  else if(sercom == SERCOM5)
    6dd6:	4a1e      	ldr	r2, [pc, #120]	; (6e50 <_ZN6SERCOM13initClockNVICEv+0x9c>)
    6dd8:	4293      	cmp	r3, r2
    6dda:	d122      	bne.n	6e22 <_ZN6SERCOM13initClockNVICEv+0x6e>
  {
    clockId = GCM_SERCOM5_CORE;
    IdNvic = SERCOM5_IRQn;
    6ddc:	230e      	movs	r3, #14
    clockId = GCM_SERCOM5_CORE;
    6dde:	2219      	movs	r2, #25
    6de0:	e001      	b.n	6de6 <_ZN6SERCOM13initClockNVICEv+0x32>
    IdNvic = SERCOM0_IRQn;
    6de2:	2309      	movs	r3, #9
    clockId = GCM_SERCOM0_CORE;
    6de4:	2214      	movs	r2, #20
    NVIC->ISER[0U] = (uint32_t)(1UL << (((uint32_t)(int32_t)IRQn) & 0x1FUL));
    6de6:	2101      	movs	r1, #1
    NVIC->IP[_IP_IDX(IRQn)]  = ((uint32_t)(NVIC->IP[_IP_IDX(IRQn)]  & ~(0xFFUL << _BIT_SHIFT(IRQn))) |
    6de8:	2503      	movs	r5, #3
    NVIC->ISER[0U] = (uint32_t)(1UL << (((uint32_t)(int32_t)IRQn) & 0x1FUL));
    6dea:	4099      	lsls	r1, r3
    6dec:	4819      	ldr	r0, [pc, #100]	; (6e54 <_ZN6SERCOM13initClockNVICEv+0xa0>)
    NVIC->IP[_IP_IDX(IRQn)]  = ((uint32_t)(NVIC->IP[_IP_IDX(IRQn)]  & ~(0xFFUL << _BIT_SHIFT(IRQn))) |
    6dee:	24c0      	movs	r4, #192	; 0xc0
    NVIC->ISER[0U] = (uint32_t)(1UL << (((uint32_t)(int32_t)IRQn) & 0x1FUL));
    6df0:	6001      	str	r1, [r0, #0]
    NVIC->IP[_IP_IDX(IRQn)]  = ((uint32_t)(NVIC->IP[_IP_IDX(IRQn)]  & ~(0xFFUL << _BIT_SHIFT(IRQn))) |
    6df2:	0899      	lsrs	r1, r3, #2
    6df4:	402b      	ands	r3, r5
    6df6:	40ab      	lsls	r3, r5
    6df8:	35fc      	adds	r5, #252	; 0xfc
    6dfa:	409d      	lsls	r5, r3
    6dfc:	0089      	lsls	r1, r1, #2
    6dfe:	1809      	adds	r1, r1, r0
    6e00:	00a4      	lsls	r4, r4, #2
    6e02:	5908      	ldr	r0, [r1, r4]
    6e04:	43a8      	bics	r0, r5
       (((priority << (8U - __NVIC_PRIO_BITS)) & (uint32_t)0xFFUL) << _BIT_SHIFT(IRQn)));
    6e06:	25c0      	movs	r5, #192	; 0xc0
    6e08:	409d      	lsls	r5, r3
    6e0a:	002b      	movs	r3, r5
    NVIC->IP[_IP_IDX(IRQn)]  = ((uint32_t)(NVIC->IP[_IP_IDX(IRQn)]  & ~(0xFFUL << _BIT_SHIFT(IRQn))) |
    6e0c:	4303      	orrs	r3, r0
    6e0e:	510b      	str	r3, [r1, r4]
  NVIC_EnableIRQ(IdNvic);
  NVIC_SetPriority (IdNvic, SERCOM_NVIC_PRIORITY);  /* set Priority */

  //Setting clock
  GCLK->CLKCTRL.reg = GCLK_CLKCTRL_ID( clockId ) | // Generic Clock 0 (SERCOMx)
                      GCLK_CLKCTRL_GEN_GCLK0 | // Generic Clock Generator 0 is source
    6e10:	2380      	movs	r3, #128	; 0x80
    6e12:	01db      	lsls	r3, r3, #7
    6e14:	431a      	orrs	r2, r3
  GCLK->CLKCTRL.reg = GCLK_CLKCTRL_ID( clockId ) | // Generic Clock 0 (SERCOMx)
    6e16:	4b10      	ldr	r3, [pc, #64]	; (6e58 <_ZN6SERCOM13initClockNVICEv+0xa4>)
    6e18:	805a      	strh	r2, [r3, #2]
                      GCLK_CLKCTRL_CLKEN ;

  while ( GCLK->STATUS.reg & GCLK_STATUS_SYNCBUSY )
    6e1a:	785a      	ldrb	r2, [r3, #1]
    6e1c:	b252      	sxtb	r2, r2
    6e1e:	2a00      	cmp	r2, #0
    6e20:	dbfb      	blt.n	6e1a <_ZN6SERCOM13initClockNVICEv+0x66>
  {
    /* Wait for synchronization */
  }
}
    6e22:	bd30      	pop	{r4, r5, pc}
    IdNvic = SERCOM1_IRQn;
    6e24:	230a      	movs	r3, #10
    clockId = GCM_SERCOM1_CORE;
    6e26:	2215      	movs	r2, #21
    6e28:	e7dd      	b.n	6de6 <_ZN6SERCOM13initClockNVICEv+0x32>
    IdNvic = SERCOM2_IRQn;
    6e2a:	230b      	movs	r3, #11
    clockId = GCM_SERCOM2_CORE;
    6e2c:	2216      	movs	r2, #22
    6e2e:	e7da      	b.n	6de6 <_ZN6SERCOM13initClockNVICEv+0x32>
    IdNvic = SERCOM3_IRQn;
    6e30:	230c      	movs	r3, #12
    clockId = GCM_SERCOM3_CORE;
    6e32:	2217      	movs	r2, #23
    6e34:	e7d7      	b.n	6de6 <_ZN6SERCOM13initClockNVICEv+0x32>
    IdNvic = SERCOM4_IRQn;
    6e36:	230d      	movs	r3, #13
    clockId = GCM_SERCOM4_CORE;
    6e38:	2218      	movs	r2, #24
    6e3a:	e7d4      	b.n	6de6 <_ZN6SERCOM13initClockNVICEv+0x32>
    6e3c:	42000800 	.word	0x42000800
    6e40:	42000c00 	.word	0x42000c00
    6e44:	42001000 	.word	0x42001000
    6e48:	42001400 	.word	0x42001400
    6e4c:	42001800 	.word	0x42001800
    6e50:	42001c00 	.word	0x42001c00
    6e54:	e000e100 	.word	0xe000e100
    6e58:	40000c00 	.word	0x40000c00

00006e5c <_ZN6SERCOM8initUARTE14SercomUartMode20SercomUartSampleRatem>:
{
    6e5c:	b5f8      	push	{r3, r4, r5, r6, r7, lr}
    6e5e:	0004      	movs	r4, r0
    6e60:	0016      	movs	r6, r2
    6e62:	000f      	movs	r7, r1
    6e64:	001d      	movs	r5, r3
  initClockNVIC();
    6e66:	f7ff ffa5 	bl	6db4 <_ZN6SERCOM13initClockNVICEv>
  resetUART();
    6e6a:	0020      	movs	r0, r4
    6e6c:	f7ff ff4c 	bl	6d08 <_ZN6SERCOM9resetUARTEv>
  sercom->USART.CTRLA.reg =	SERCOM_USART_CTRLA_MODE(mode) |
    6e70:	221c      	movs	r2, #28
    6e72:	00bb      	lsls	r3, r7, #2
    6e74:	4013      	ands	r3, r2
                SERCOM_USART_CTRLA_SAMPR(sampleRate);
    6e76:	0772      	lsls	r2, r6, #29
  sercom->USART.CTRLA.reg =	SERCOM_USART_CTRLA_MODE(mode) |
    6e78:	6824      	ldr	r4, [r4, #0]
                SERCOM_USART_CTRLA_SAMPR(sampleRate);
    6e7a:	0c12      	lsrs	r2, r2, #16
  sercom->USART.CTRLA.reg =	SERCOM_USART_CTRLA_MODE(mode) |
    6e7c:	4313      	orrs	r3, r2
    6e7e:	6023      	str	r3, [r4, #0]
  sercom->USART.INTENSET.reg =	SERCOM_USART_INTENSET_RXC |  //Received complete
    6e80:	2384      	movs	r3, #132	; 0x84
    6e82:	75a3      	strb	r3, [r4, #22]
  if ( mode == UART_INT_CLOCK )
    6e84:	2f01      	cmp	r7, #1
    6e86:	d118      	bne.n	6eba <_ZN6SERCOM8initUARTE14SercomUartMode20SercomUartSampleRatem+0x5e>
      sampleRateValue = 16;
    6e88:	2110      	movs	r1, #16
    if (sampleRate == SAMPLE_RATE_x16) {
    6e8a:	2e01      	cmp	r6, #1
    6e8c:	d000      	beq.n	6e90 <_ZN6SERCOM8initUARTE14SercomUartMode20SercomUartSampleRatem+0x34>
      sampleRateValue = 8;
    6e8e:	3908      	subs	r1, #8
    uint32_t baudTimes8 = (SystemCoreClock * 8) / (sampleRateValue * baudrate);
    6e90:	4b0a      	ldr	r3, [pc, #40]	; (6ebc <_ZN6SERCOM8initUARTE14SercomUartMode20SercomUartSampleRatem+0x60>)
    6e92:	4369      	muls	r1, r5
    6e94:	6818      	ldr	r0, [r3, #0]
    6e96:	00c0      	lsls	r0, r0, #3
    6e98:	f000 fae6 	bl	7468 <__udivsi3>
    sercom->USART.BAUD.FRAC.FP   = (baudTimes8 % 8);
    6e9c:	2207      	movs	r2, #7
    6e9e:	89a3      	ldrh	r3, [r4, #12]
    6ea0:	4002      	ands	r2, r0
    6ea2:	04db      	lsls	r3, r3, #19
    6ea4:	0352      	lsls	r2, r2, #13
    6ea6:	0cdb      	lsrs	r3, r3, #19
    6ea8:	4313      	orrs	r3, r2
    6eaa:	81a3      	strh	r3, [r4, #12]
    sercom->USART.BAUD.FRAC.BAUD = (baudTimes8 / 8);
    6eac:	0403      	lsls	r3, r0, #16
    6eae:	89a0      	ldrh	r0, [r4, #12]
    6eb0:	0cdb      	lsrs	r3, r3, #19
    6eb2:	0b40      	lsrs	r0, r0, #13
    6eb4:	0340      	lsls	r0, r0, #13
    6eb6:	4318      	orrs	r0, r3
    6eb8:	81a0      	strh	r0, [r4, #12]
}
    6eba:	bdf8      	pop	{r3, r4, r5, r6, r7, pc}
    6ebc:	20000088 	.word	0x20000088

00006ec0 <_ZN4UartcvbEv>:
    size_t write(const uint8_t data);
    using Print::write; // pull in write(str) and write(buf, size) from Print

    void IrqHandler();

    operator bool() { return true; }
    6ec0:	2001      	movs	r0, #1
    6ec2:	4770      	bx	lr

00006ec4 <_ZN4Uart5beginEm>:
  uc_pinRTS = _pinRTS;
  uc_pinCTS = _pinCTS;
}

void Uart::begin(unsigned long baudrate)
{
    6ec4:	b510      	push	{r4, lr}
  begin(baudrate, SERIAL_8N1);
    6ec6:	6803      	ldr	r3, [r0, #0]
    6ec8:	4a01      	ldr	r2, [pc, #4]	; (6ed0 <_ZN4Uart5beginEm+0xc>)
    6eca:	6a1b      	ldr	r3, [r3, #32]
    6ecc:	4798      	blx	r3
}
    6ece:	bd10      	pop	{r4, pc}
    6ed0:	00000413 	.word	0x00000413

00006ed4 <_ZN4Uart4peekEv>:
}

template <int N>
int RingBufferN<N>::peek()
{
  if(_iTail == _iHead)
    6ed4:	0003      	movs	r3, r0
    6ed6:	33fc      	adds	r3, #252	; 0xfc
    6ed8:	69d9      	ldr	r1, [r3, #28]
    6eda:	699a      	ldr	r2, [r3, #24]
    6edc:	4291      	cmp	r1, r2
    6ede:	d003      	beq.n	6ee8 <_ZN4Uart4peekEv+0x14>
    return -1;

  return _aucBuffer[_iTail];
    6ee0:	69db      	ldr	r3, [r3, #28]
    6ee2:	18c0      	adds	r0, r0, r3
    6ee4:	7d00      	ldrb	r0, [r0, #20]
}

int Uart::peek()
{
  return rxBuffer.peek();
}
    6ee6:	4770      	bx	lr
    return -1;
    6ee8:	2001      	movs	r0, #1
    6eea:	4240      	negs	r0, r0
  return rxBuffer.peek();
    6eec:	e7fb      	b.n	6ee6 <_ZN4Uart4peekEv+0x12>

00006eee <_ZN4Uart3endEv>:
{
    6eee:	b510      	push	{r4, lr}
    6ef0:	0004      	movs	r4, r0
  sercom->resetUART();
    6ef2:	6900      	ldr	r0, [r0, #16]
    6ef4:	f7ff ff08 	bl	6d08 <_ZN6SERCOM9resetUARTEv>
  _iHead = 0;
    6ef8:	0022      	movs	r2, r4
    6efa:	2300      	movs	r3, #0
    6efc:	32fc      	adds	r2, #252	; 0xfc
    6efe:	6193      	str	r3, [r2, #24]
  _iTail = 0;
    6f00:	61d3      	str	r3, [r2, #28]
  _iHead = 0;
    6f02:	2286      	movs	r2, #134	; 0x86
    6f04:	0092      	lsls	r2, r2, #2
    6f06:	18a4      	adds	r4, r4, r2
    6f08:	6063      	str	r3, [r4, #4]
  _iTail = 0;
    6f0a:	60a3      	str	r3, [r4, #8]
}
    6f0c:	bd10      	pop	{r4, pc}

00006f0e <_ZN4Uart16extractNbStopBitEt>:
  return 1;
}

SercomNumberStopBit Uart::extractNbStopBit(uint16_t config)
{
  switch(config & HARDSER_STOP_BIT_MASK)
    6f0e:	20f0      	movs	r0, #240	; 0xf0
    6f10:	4001      	ands	r1, r0
  {
    case HARDSER_STOP_BIT_1:
    default:
      return SERCOM_STOP_BIT_1;
    6f12:	3930      	subs	r1, #48	; 0x30
    6f14:	4248      	negs	r0, r1
    6f16:	4148      	adcs	r0, r1

    case HARDSER_STOP_BIT_2:
      return SERCOM_STOP_BITS_2;
  }
}
    6f18:	4770      	bx	lr

00006f1a <_ZN4Uart15extractCharSizeEt>:

SercomUartCharSize Uart::extractCharSize(uint16_t config)
{
  switch(config & HARDSER_DATA_MASK)
    6f1a:	23f0      	movs	r3, #240	; 0xf0
    6f1c:	011b      	lsls	r3, r3, #4
    6f1e:	4019      	ands	r1, r3
    6f20:	2380      	movs	r3, #128	; 0x80
  {
    case HARDSER_DATA_5:
      return UART_CHAR_SIZE_5_BITS;

    case HARDSER_DATA_6:
      return UART_CHAR_SIZE_6_BITS;
    6f22:	2006      	movs	r0, #6
  switch(config & HARDSER_DATA_MASK)
    6f24:	009b      	lsls	r3, r3, #2
    6f26:	4299      	cmp	r1, r3
    6f28:	d00a      	beq.n	6f40 <_ZN4Uart15extractCharSizeEt+0x26>
    6f2a:	3301      	adds	r3, #1
    6f2c:	33ff      	adds	r3, #255	; 0xff

    case HARDSER_DATA_7:
      return UART_CHAR_SIZE_7_BITS;
    6f2e:	3001      	adds	r0, #1
  switch(config & HARDSER_DATA_MASK)
    6f30:	4299      	cmp	r1, r3
    6f32:	d005      	beq.n	6f40 <_ZN4Uart15extractCharSizeEt+0x26>
    6f34:	2380      	movs	r3, #128	; 0x80
      return UART_CHAR_SIZE_5_BITS;
    6f36:	3802      	subs	r0, #2
  switch(config & HARDSER_DATA_MASK)
    6f38:	005b      	lsls	r3, r3, #1
    6f3a:	4299      	cmp	r1, r3
    6f3c:	d000      	beq.n	6f40 <_ZN4Uart15extractCharSizeEt+0x26>

    case HARDSER_DATA_8:
    default:
      return UART_CHAR_SIZE_8_BITS;
    6f3e:	2000      	movs	r0, #0

  }
}
    6f40:	4770      	bx	lr

00006f42 <_ZN4Uart13extractParityEt>:

SercomParityMode Uart::extractParity(uint16_t config)
{
  switch(config & HARDSER_PARITY_MASK)
    6f42:	200f      	movs	r0, #15
    6f44:	4001      	ands	r1, r0
    case HARDSER_PARITY_NONE:
    default:
      return SERCOM_NO_PARITY;

    case HARDSER_PARITY_EVEN:
      return SERCOM_EVEN_PARITY;
    6f46:	2000      	movs	r0, #0
  switch(config & HARDSER_PARITY_MASK)
    6f48:	2901      	cmp	r1, #1
    6f4a:	d003      	beq.n	6f54 <_ZN4Uart13extractParityEt+0x12>
      return SERCOM_NO_PARITY;
    6f4c:	3902      	subs	r1, #2
    6f4e:	1e48      	subs	r0, r1, #1
    6f50:	4181      	sbcs	r1, r0
    6f52:	1c48      	adds	r0, r1, #1

    case HARDSER_PARITY_ODD:
      return SERCOM_ODD_PARITY;
  }
}
    6f54:	4770      	bx	lr
	...

00006f58 <_ZN4Uart5beginEmt>:
  pinPeripheral(uc_pinRX, g_APinDescription[uc_pinRX].ulPinType);
    6f58:	2389      	movs	r3, #137	; 0x89
{
    6f5a:	b5f0      	push	{r4, r5, r6, r7, lr}
  pinPeripheral(uc_pinRX, g_APinDescription[uc_pinRX].ulPinType);
    6f5c:	2618      	movs	r6, #24
{
    6f5e:	b085      	sub	sp, #20
    6f60:	9102      	str	r1, [sp, #8]
  pinPeripheral(uc_pinRX, g_APinDescription[uc_pinRX].ulPinType);
    6f62:	009b      	lsls	r3, r3, #2
{
    6f64:	0004      	movs	r4, r0
  pinPeripheral(uc_pinRX, g_APinDescription[uc_pinRX].ulPinType);
    6f66:	5cc0      	ldrb	r0, [r0, r3]
    6f68:	0033      	movs	r3, r6
    6f6a:	2108      	movs	r1, #8
    6f6c:	4343      	muls	r3, r0
    6f6e:	4d32      	ldr	r5, [pc, #200]	; (7038 <_ZN4Uart5beginEmt+0xe0>)
{
    6f70:	0017      	movs	r7, r2
  pinPeripheral(uc_pinRX, g_APinDescription[uc_pinRX].ulPinType);
    6f72:	18eb      	adds	r3, r5, r3
    6f74:	5659      	ldrsb	r1, [r3, r1]
    6f76:	f7ff fd6d 	bl	6a54 <pinPeripheral>
  pinPeripheral(uc_pinTX, g_APinDescription[uc_pinTX].ulPinType);
    6f7a:	4b30      	ldr	r3, [pc, #192]	; (703c <_ZN4Uart5beginEmt+0xe4>)
    6f7c:	2108      	movs	r1, #8
    6f7e:	5ce0      	ldrb	r0, [r4, r3]
    6f80:	0033      	movs	r3, r6
    6f82:	4343      	muls	r3, r0
    6f84:	18eb      	adds	r3, r5, r3
    6f86:	5659      	ldrsb	r1, [r3, r1]
    6f88:	f7ff fd64 	bl	6a54 <pinPeripheral>
  if (uc_padTX == UART_TX_RTS_CTS_PAD_0_2_3) { 
    6f8c:	4b2c      	ldr	r3, [pc, #176]	; (7040 <_ZN4Uart5beginEmt+0xe8>)
    6f8e:	5ce2      	ldrb	r2, [r4, r3]
    6f90:	9303      	str	r3, [sp, #12]
    6f92:	2a02      	cmp	r2, #2
    6f94:	d109      	bne.n	6faa <_ZN4Uart5beginEmt+0x52>
    if (uc_pinCTS != NO_CTS_PIN) {
    6f96:	3311      	adds	r3, #17
    6f98:	5ce0      	ldrb	r0, [r4, r3]
    6f9a:	28ff      	cmp	r0, #255	; 0xff
    6f9c:	d005      	beq.n	6faa <_ZN4Uart5beginEmt+0x52>
      pinPeripheral(uc_pinCTS, g_APinDescription[uc_pinCTS].ulPinType);
    6f9e:	2108      	movs	r1, #8
    6fa0:	4346      	muls	r6, r0
    6fa2:	19ae      	adds	r6, r5, r6
    6fa4:	5671      	ldrsb	r1, [r6, r1]
    6fa6:	f7ff fd55 	bl	6a54 <pinPeripheral>
  if (uc_pinRTS != NO_RTS_PIN) {
    6faa:	268a      	movs	r6, #138	; 0x8a
    6fac:	00b6      	lsls	r6, r6, #2
    6fae:	5da0      	ldrb	r0, [r4, r6]
    6fb0:	28ff      	cmp	r0, #255	; 0xff
    6fb2:	d019      	beq.n	6fe8 <_ZN4Uart5beginEmt+0x90>
    pinMode(uc_pinRTS, OUTPUT);
    6fb4:	2101      	movs	r1, #1
    6fb6:	f7ff fcd5 	bl	6964 <pinMode>
    EPortType rtsPort = g_APinDescription[uc_pinRTS].ulPort;
    6fba:	2218      	movs	r2, #24
    6fbc:	5da3      	ldrb	r3, [r4, r6]
    pul_outsetRTS = &PORT->Group[rtsPort].OUTSET.reg;
    6fbe:	4921      	ldr	r1, [pc, #132]	; (7044 <_ZN4Uart5beginEmt+0xec>)
    EPortType rtsPort = g_APinDescription[uc_pinRTS].ulPort;
    6fc0:	435a      	muls	r2, r3
    pul_outsetRTS = &PORT->Group[rtsPort].OUTSET.reg;
    6fc2:	56ab      	ldrsb	r3, [r5, r2]
    ul_pinMaskRTS = (1ul << g_APinDescription[uc_pinRTS].ulPin);
    6fc4:	18ad      	adds	r5, r5, r2
    pul_outsetRTS = &PORT->Group[rtsPort].OUTSET.reg;
    6fc6:	01db      	lsls	r3, r3, #7
    6fc8:	1858      	adds	r0, r3, r1
    6fca:	218b      	movs	r1, #139	; 0x8b
    6fcc:	0089      	lsls	r1, r1, #2
    6fce:	5060      	str	r0, [r4, r1]
    pul_outclrRTS = &PORT->Group[rtsPort].OUTCLR.reg;
    6fd0:	491d      	ldr	r1, [pc, #116]	; (7048 <_ZN4Uart5beginEmt+0xf0>)
    ul_pinMaskRTS = (1ul << g_APinDescription[uc_pinRTS].ulPin);
    6fd2:	2201      	movs	r2, #1
    pul_outclrRTS = &PORT->Group[rtsPort].OUTCLR.reg;
    6fd4:	185b      	adds	r3, r3, r1
    6fd6:	218c      	movs	r1, #140	; 0x8c
    6fd8:	0089      	lsls	r1, r1, #2
    6fda:	5063      	str	r3, [r4, r1]
    ul_pinMaskRTS = (1ul << g_APinDescription[uc_pinRTS].ulPin);
    6fdc:	6869      	ldr	r1, [r5, #4]
    6fde:	408a      	lsls	r2, r1
    6fe0:	218d      	movs	r1, #141	; 0x8d
    6fe2:	0089      	lsls	r1, r1, #2
    6fe4:	5062      	str	r2, [r4, r1]
    *pul_outclrRTS = ul_pinMaskRTS;
    6fe6:	601a      	str	r2, [r3, #0]
  sercom->initUART(UART_INT_CLOCK, SAMPLE_RATE_x16, baudrate);
    6fe8:	2201      	movs	r2, #1
    6fea:	9b02      	ldr	r3, [sp, #8]
    6fec:	0011      	movs	r1, r2
    6fee:	6920      	ldr	r0, [r4, #16]
    6ff0:	f7ff ff34 	bl	6e5c <_ZN6SERCOM8initUARTE14SercomUartMode20SercomUartSampleRatem>
  sercom->initFrame(extractCharSize(config), LSB_FIRST, extractParity(config), extractNbStopBit(config));
    6ff4:	0039      	movs	r1, r7
    6ff6:	0020      	movs	r0, r4
    6ff8:	f7ff ff8f 	bl	6f1a <_ZN4Uart15extractCharSizeEt>
    6ffc:	0039      	movs	r1, r7
    6ffe:	0005      	movs	r5, r0
    7000:	0020      	movs	r0, r4
    7002:	f7ff ff9e 	bl	6f42 <_ZN4Uart13extractParityEt>
    7006:	0039      	movs	r1, r7
    7008:	0006      	movs	r6, r0
    700a:	0020      	movs	r0, r4
    700c:	f7ff ff7f 	bl	6f0e <_ZN4Uart16extractNbStopBitEt>
    7010:	0033      	movs	r3, r6
    7012:	9000      	str	r0, [sp, #0]
    7014:	0029      	movs	r1, r5
    7016:	6920      	ldr	r0, [r4, #16]
    7018:	2201      	movs	r2, #1
    701a:	f7ff fe49 	bl	6cb0 <_ZN6SERCOM9initFrameE18SercomUartCharSize15SercomDataOrder16SercomParityMode19SercomNumberStopBit>
  sercom->initPads(uc_padTX, uc_padRX);
    701e:	4b0b      	ldr	r3, [pc, #44]	; (704c <_ZN4Uart5beginEmt+0xf4>)
    7020:	6920      	ldr	r0, [r4, #16]
    7022:	5ce2      	ldrb	r2, [r4, r3]
    7024:	9b03      	ldr	r3, [sp, #12]
    7026:	5ce1      	ldrb	r1, [r4, r3]
    7028:	f7ff fe5c 	bl	6ce4 <_ZN6SERCOM8initPadsE15SercomUartTXPad11SercomRXPad>
  sercom->enableUART();
    702c:	6920      	ldr	r0, [r4, #16]
    702e:	f7ff fe77 	bl	6d20 <_ZN6SERCOM10enableUARTEv>
}
    7032:	b005      	add	sp, #20
    7034:	bdf0      	pop	{r4, r5, r6, r7, pc}
    7036:	46c0      	nop			; (mov r8, r8)
    7038:	0000ba48 	.word	0x0000ba48
    703c:	00000225 	.word	0x00000225
    7040:	00000227 	.word	0x00000227
    7044:	41004418 	.word	0x41004418
    7048:	41004414 	.word	0x41004414
    704c:	00000226 	.word	0x00000226

00007050 <_ZN11RingBufferNILi256EEC1Ev>:
    memset( _aucBuffer, 0, N ) ;
    7050:	2280      	movs	r2, #128	; 0x80
RingBufferN<N>::RingBufferN( void )
    7052:	b510      	push	{r4, lr}
    7054:	0004      	movs	r4, r0
    memset( _aucBuffer, 0, N ) ;
    7056:	0052      	lsls	r2, r2, #1
    7058:	2100      	movs	r1, #0
    705a:	f002 f9c3 	bl	93e4 <memset>
  _iHead = 0;
    705e:	0023      	movs	r3, r4
    7060:	2200      	movs	r2, #0
    7062:	33fc      	adds	r3, #252	; 0xfc
    7064:	605a      	str	r2, [r3, #4]
}
    7066:	0020      	movs	r0, r4
  _iTail = 0;
    7068:	609a      	str	r2, [r3, #8]
}
    706a:	bd10      	pop	{r4, pc}

0000706c <_ZN4UartC1EP6SERCOMhh11SercomRXPad15SercomUartTXPadhh>:
Uart::Uart(SERCOM *_s, uint8_t _pinRX, uint8_t _pinTX, SercomRXPad _padRX, SercomUartTXPad _padTX, uint8_t _pinRTS, uint8_t _pinCTS)
    706c:	b5f0      	push	{r4, r5, r6, r7, lr}
    706e:	b085      	sub	sp, #20
    7070:	001d      	movs	r5, r3
    7072:	ab0a      	add	r3, sp, #40	; 0x28
    7074:	781b      	ldrb	r3, [r3, #0]
    7076:	0004      	movs	r4, r0
    7078:	9300      	str	r3, [sp, #0]
    707a:	ab0b      	add	r3, sp, #44	; 0x2c
    707c:	781b      	ldrb	r3, [r3, #0]
    707e:	0016      	movs	r6, r2
    7080:	9301      	str	r3, [sp, #4]
    7082:	ab0c      	add	r3, sp, #48	; 0x30
    7084:	781b      	ldrb	r3, [r3, #0]
    7086:	000f      	movs	r7, r1
    7088:	9302      	str	r3, [sp, #8]
    708a:	ab0d      	add	r3, sp, #52	; 0x34
    708c:	781b      	ldrb	r3, [r3, #0]
    708e:	9303      	str	r3, [sp, #12]
    7090:	2300      	movs	r3, #0
    7092:	6043      	str	r3, [r0, #4]
    7094:	23fa      	movs	r3, #250	; 0xfa
    7096:	009b      	lsls	r3, r3, #2
    7098:	6083      	str	r3, [r0, #8]
    709a:	4b12      	ldr	r3, [pc, #72]	; (70e4 <_ZN4UartC1EP6SERCOMhh11SercomRXPad15SercomUartTXPadhh+0x78>)
    709c:	3308      	adds	r3, #8
    709e:	6003      	str	r3, [r0, #0]
    70a0:	3014      	adds	r0, #20
    70a2:	f7ff ffd5 	bl	7050 <_ZN11RingBufferNILi256EEC1Ev>
    70a6:	0020      	movs	r0, r4
    70a8:	301d      	adds	r0, #29
    70aa:	30ff      	adds	r0, #255	; 0xff
    70ac:	f7ff ffd0 	bl	7050 <_ZN11RingBufferNILi256EEC1Ev>
  uc_pinRX = _pinRX;
    70b0:	2389      	movs	r3, #137	; 0x89
  uc_padRX = _padRX ;
    70b2:	466a      	mov	r2, sp
  uc_pinRX = _pinRX;
    70b4:	009b      	lsls	r3, r3, #2
  sercom = _s;
    70b6:	6127      	str	r7, [r4, #16]
  uc_pinRX = _pinRX;
    70b8:	54e6      	strb	r6, [r4, r3]
  uc_pinTX = _pinTX;
    70ba:	4b0b      	ldr	r3, [pc, #44]	; (70e8 <_ZN4UartC1EP6SERCOMhh11SercomRXPad15SercomUartTXPadhh+0x7c>)
  uc_padRX = _padRX ;
    70bc:	7812      	ldrb	r2, [r2, #0]
  uc_pinTX = _pinTX;
    70be:	54e5      	strb	r5, [r4, r3]
  uc_padRX = _padRX ;
    70c0:	4b0a      	ldr	r3, [pc, #40]	; (70ec <_ZN4UartC1EP6SERCOMhh11SercomRXPad15SercomUartTXPadhh+0x80>)
}
    70c2:	0020      	movs	r0, r4
  uc_padRX = _padRX ;
    70c4:	54e2      	strb	r2, [r4, r3]
  uc_padTX = _padTX;
    70c6:	466a      	mov	r2, sp
    70c8:	4b09      	ldr	r3, [pc, #36]	; (70f0 <_ZN4UartC1EP6SERCOMhh11SercomRXPad15SercomUartTXPadhh+0x84>)
    70ca:	7912      	ldrb	r2, [r2, #4]
    70cc:	54e2      	strb	r2, [r4, r3]
  uc_pinRTS = _pinRTS;
    70ce:	466a      	mov	r2, sp
    70d0:	7a12      	ldrb	r2, [r2, #8]
    70d2:	3301      	adds	r3, #1
    70d4:	54e2      	strb	r2, [r4, r3]
  uc_pinCTS = _pinCTS;
    70d6:	466a      	mov	r2, sp
    70d8:	7b12      	ldrb	r2, [r2, #12]
    70da:	3310      	adds	r3, #16
    70dc:	54e2      	strb	r2, [r4, r3]
}
    70de:	b005      	add	sp, #20
    70e0:	bdf0      	pop	{r4, r5, r6, r7, pc}
    70e2:	46c0      	nop			; (mov r8, r8)
    70e4:	0000bda8 	.word	0x0000bda8
    70e8:	00000225 	.word	0x00000225
    70ec:	00000226 	.word	0x00000226
    70f0:	00000227 	.word	0x00000227

000070f4 <_ZN4UartC1EP6SERCOMhh11SercomRXPad15SercomUartTXPad>:
Uart::Uart(SERCOM *_s, uint8_t _pinRX, uint8_t _pinTX, SercomRXPad _padRX, SercomUartTXPad _padTX) :
    70f4:	b5f7      	push	{r0, r1, r2, r4, r5, r6, r7, lr}
    70f6:	001d      	movs	r5, r3
    70f8:	ab08      	add	r3, sp, #32
    70fa:	781b      	ldrb	r3, [r3, #0]
    70fc:	0004      	movs	r4, r0
    70fe:	9300      	str	r3, [sp, #0]
    7100:	ab09      	add	r3, sp, #36	; 0x24
    7102:	781b      	ldrb	r3, [r3, #0]
    7104:	0016      	movs	r6, r2
    7106:	9301      	str	r3, [sp, #4]
    7108:	2300      	movs	r3, #0
    710a:	6043      	str	r3, [r0, #4]
    710c:	23fa      	movs	r3, #250	; 0xfa
    710e:	009b      	lsls	r3, r3, #2
    7110:	6083      	str	r3, [r0, #8]
Uart::Uart(SERCOM *_s, uint8_t _pinRX, uint8_t _pinTX, SercomRXPad _padRX, SercomUartTXPad _padTX, uint8_t _pinRTS, uint8_t _pinCTS)
    7112:	4b11      	ldr	r3, [pc, #68]	; (7158 <_ZN4UartC1EP6SERCOMhh11SercomRXPad15SercomUartTXPad+0x64>)
Uart::Uart(SERCOM *_s, uint8_t _pinRX, uint8_t _pinTX, SercomRXPad _padRX, SercomUartTXPad _padTX) :
    7114:	000f      	movs	r7, r1
Uart::Uart(SERCOM *_s, uint8_t _pinRX, uint8_t _pinTX, SercomRXPad _padRX, SercomUartTXPad _padTX, uint8_t _pinRTS, uint8_t _pinCTS)
    7116:	3308      	adds	r3, #8
    7118:	6003      	str	r3, [r0, #0]
    711a:	3014      	adds	r0, #20
    711c:	f7ff ff98 	bl	7050 <_ZN11RingBufferNILi256EEC1Ev>
    7120:	0020      	movs	r0, r4
    7122:	301d      	adds	r0, #29
    7124:	30ff      	adds	r0, #255	; 0xff
    7126:	f7ff ff93 	bl	7050 <_ZN11RingBufferNILi256EEC1Ev>
  uc_pinRX = _pinRX;
    712a:	2389      	movs	r3, #137	; 0x89
  uc_padRX = _padRX ;
    712c:	466a      	mov	r2, sp
  uc_pinRX = _pinRX;
    712e:	009b      	lsls	r3, r3, #2
  sercom = _s;
    7130:	6127      	str	r7, [r4, #16]
  uc_pinRX = _pinRX;
    7132:	54e6      	strb	r6, [r4, r3]
  uc_pinTX = _pinTX;
    7134:	4b09      	ldr	r3, [pc, #36]	; (715c <_ZN4UartC1EP6SERCOMhh11SercomRXPad15SercomUartTXPad+0x68>)
  uc_padRX = _padRX ;
    7136:	7812      	ldrb	r2, [r2, #0]
  uc_pinTX = _pinTX;
    7138:	54e5      	strb	r5, [r4, r3]
  uc_padRX = _padRX ;
    713a:	4b09      	ldr	r3, [pc, #36]	; (7160 <_ZN4UartC1EP6SERCOMhh11SercomRXPad15SercomUartTXPad+0x6c>)
}
    713c:	0020      	movs	r0, r4
  uc_padRX = _padRX ;
    713e:	54e2      	strb	r2, [r4, r3]
  uc_padTX = _padTX;
    7140:	466a      	mov	r2, sp
    7142:	4b08      	ldr	r3, [pc, #32]	; (7164 <_ZN4UartC1EP6SERCOMhh11SercomRXPad15SercomUartTXPad+0x70>)
    7144:	7912      	ldrb	r2, [r2, #4]
    7146:	54e2      	strb	r2, [r4, r3]
  uc_pinRTS = _pinRTS;
    7148:	228a      	movs	r2, #138	; 0x8a
    714a:	3b29      	subs	r3, #41	; 0x29
    714c:	3bff      	subs	r3, #255	; 0xff
    714e:	0092      	lsls	r2, r2, #2
    7150:	54a3      	strb	r3, [r4, r2]
  uc_pinCTS = _pinCTS;
    7152:	3210      	adds	r2, #16
    7154:	54a3      	strb	r3, [r4, r2]
}
    7156:	bdfe      	pop	{r1, r2, r3, r4, r5, r6, r7, pc}
    7158:	0000bda8 	.word	0x0000bda8
    715c:	00000225 	.word	0x00000225
    7160:	00000226 	.word	0x00000226
    7164:	00000227 	.word	0x00000227

00007168 <_ZN11RingBufferNILi256EE9availableEv>:
  int delta = _iHead - _iTail;
    7168:	0003      	movs	r3, r0
    716a:	33fc      	adds	r3, #252	; 0xfc
    716c:	6858      	ldr	r0, [r3, #4]
    716e:	689b      	ldr	r3, [r3, #8]
    7170:	1ac0      	subs	r0, r0, r3
  if(delta < 0)
    7172:	d501      	bpl.n	7178 <_ZN11RingBufferNILi256EE9availableEv+0x10>
    return N + delta;
    7174:	3001      	adds	r0, #1
    7176:	30ff      	adds	r0, #255	; 0xff
}
    7178:	4770      	bx	lr

0000717a <_ZN4Uart5flushEv>:
{
    717a:	b510      	push	{r4, lr}
    717c:	0004      	movs	r4, r0
  while(txBuffer.available()); // wait until TX buffer is empty
    717e:	0020      	movs	r0, r4
    7180:	301d      	adds	r0, #29
    7182:	30ff      	adds	r0, #255	; 0xff
    7184:	f7ff fff0 	bl	7168 <_ZN11RingBufferNILi256EE9availableEv>
    7188:	2800      	cmp	r0, #0
    718a:	d1f8      	bne.n	717e <_ZN4Uart5flushEv+0x4>
  sercom->flushUART();
    718c:	6920      	ldr	r0, [r4, #16]
    718e:	f7ff fdd0 	bl	6d32 <_ZN6SERCOM9flushUARTEv>
}
    7192:	bd10      	pop	{r4, pc}

00007194 <_ZN4Uart9availableEv>:
{
    7194:	b510      	push	{r4, lr}
  return rxBuffer.available();
    7196:	3014      	adds	r0, #20
    7198:	f7ff ffe6 	bl	7168 <_ZN11RingBufferNILi256EE9availableEv>
}
    719c:	bd10      	pop	{r4, pc}

0000719e <_ZN11RingBufferNILi256EE17availableForStoreEv>:
  if (_iHead >= _iTail)
    719e:	0003      	movs	r3, r0
    71a0:	33fc      	adds	r3, #252	; 0xfc
    71a2:	6859      	ldr	r1, [r3, #4]
    71a4:	689a      	ldr	r2, [r3, #8]
    71a6:	4291      	cmp	r1, r2
    71a8:	db04      	blt.n	71b4 <_ZN11RingBufferNILi256EE17availableForStoreEv+0x16>
    return N - 1 - _iHead + _iTail;
    71aa:	685a      	ldr	r2, [r3, #4]
    71ac:	6898      	ldr	r0, [r3, #8]
    71ae:	1a80      	subs	r0, r0, r2
    71b0:	30ff      	adds	r0, #255	; 0xff
}
    71b2:	4770      	bx	lr
    return _iTail - _iHead - 1;
    71b4:	6898      	ldr	r0, [r3, #8]
    71b6:	685b      	ldr	r3, [r3, #4]
    71b8:	1ac0      	subs	r0, r0, r3
    71ba:	3801      	subs	r0, #1
    71bc:	e7f9      	b.n	71b2 <_ZN11RingBufferNILi256EE17availableForStoreEv+0x14>

000071be <_ZN4Uart17availableForWriteEv>:
{
    71be:	b510      	push	{r4, lr}
  return txBuffer.availableForStore();
    71c0:	301d      	adds	r0, #29
    71c2:	30ff      	adds	r0, #255	; 0xff
    71c4:	f7ff ffeb 	bl	719e <_ZN11RingBufferNILi256EE17availableForStoreEv>
}
    71c8:	bd10      	pop	{r4, pc}

000071ca <_ZN4Uart10IrqHandlerEv>:
{
    71ca:	b510      	push	{r4, lr}
    71cc:	0004      	movs	r4, r0
  if (sercom->isFrameErrorUART()) {
    71ce:	6900      	ldr	r0, [r0, #16]
    71d0:	f7ff fdcb 	bl	6d6a <_ZN6SERCOM16isFrameErrorUARTEv>
    71d4:	2800      	cmp	r0, #0
    71d6:	d005      	beq.n	71e4 <_ZN4Uart10IrqHandlerEv+0x1a>
    sercom->readDataUART();
    71d8:	6920      	ldr	r0, [r4, #16]
    71da:	f7ff fdd6 	bl	6d8a <_ZN6SERCOM12readDataUARTEv>
    sercom->clearFrameErrorUART();
    71de:	6920      	ldr	r0, [r4, #16]
    71e0:	f7ff fdc8 	bl	6d74 <_ZN6SERCOM19clearFrameErrorUARTEv>
  if (sercom->availableDataUART()) {
    71e4:	6920      	ldr	r0, [r4, #16]
    71e6:	f7ff fdb0 	bl	6d4a <_ZN6SERCOM17availableDataUARTEv>
    71ea:	2800      	cmp	r0, #0
    71ec:	d020      	beq.n	7230 <_ZN4Uart10IrqHandlerEv+0x66>
    rxBuffer.store_char(sercom->readDataUART());
    71ee:	6920      	ldr	r0, [r4, #16]
    71f0:	f7ff fdcb 	bl	6d8a <_ZN6SERCOM12readDataUARTEv>
  int i = nextIndex(_iHead);
    71f4:	0022      	movs	r2, r4
    71f6:	32fc      	adds	r2, #252	; 0xfc
    71f8:	6993      	ldr	r3, [r2, #24]
  if ( i != _iTail )
    71fa:	69d1      	ldr	r1, [r2, #28]
}

template <int N>
int RingBufferN<N>::nextIndex(int index)
{
  return (uint32_t)(index + 1) % N;
    71fc:	3301      	adds	r3, #1
    71fe:	b2db      	uxtb	r3, r3
  if ( i != _iTail )
    7200:	428b      	cmp	r3, r1
    7202:	d003      	beq.n	720c <_ZN4Uart10IrqHandlerEv+0x42>
    _aucBuffer[_iHead] = c ;
    7204:	6991      	ldr	r1, [r2, #24]
    7206:	1861      	adds	r1, r4, r1
    7208:	7508      	strb	r0, [r1, #20]
    _iHead = i ;
    720a:	6193      	str	r3, [r2, #24]
    if (uc_pinRTS != NO_RTS_PIN) {
    720c:	238a      	movs	r3, #138	; 0x8a
    720e:	009b      	lsls	r3, r3, #2
    7210:	5ce3      	ldrb	r3, [r4, r3]
    7212:	2bff      	cmp	r3, #255	; 0xff
    7214:	d00c      	beq.n	7230 <_ZN4Uart10IrqHandlerEv+0x66>
    rxBuffer.store_char(sercom->readDataUART());
    7216:	0020      	movs	r0, r4
    7218:	3014      	adds	r0, #20
      if (rxBuffer.availableForStore() < RTS_RX_THRESHOLD) {
    721a:	f7ff ffc0 	bl	719e <_ZN11RingBufferNILi256EE17availableForStoreEv>
    721e:	2809      	cmp	r0, #9
    7220:	dc06      	bgt.n	7230 <_ZN4Uart10IrqHandlerEv+0x66>
        *pul_outsetRTS = ul_pinMaskRTS;
    7222:	238b      	movs	r3, #139	; 0x8b
    7224:	228d      	movs	r2, #141	; 0x8d
    7226:	009b      	lsls	r3, r3, #2
    7228:	0092      	lsls	r2, r2, #2
    722a:	58e3      	ldr	r3, [r4, r3]
    722c:	58a2      	ldr	r2, [r4, r2]
    722e:	601a      	str	r2, [r3, #0]
  if (sercom->isDataRegisterEmptyUART()) {
    7230:	6920      	ldr	r0, [r4, #16]
    7232:	f7ff fda5 	bl	6d80 <_ZN6SERCOM23isDataRegisterEmptyUARTEv>
    7236:	2800      	cmp	r0, #0
    7238:	d01a      	beq.n	7270 <_ZN4Uart10IrqHandlerEv+0xa6>
    if (txBuffer.available()) {
    723a:	0020      	movs	r0, r4
    723c:	301d      	adds	r0, #29
    723e:	30ff      	adds	r0, #255	; 0xff
    7240:	f7ff ff92 	bl	7168 <_ZN11RingBufferNILi256EE9availableEv>
    7244:	2800      	cmp	r0, #0
    7246:	d022      	beq.n	728e <_ZN4Uart10IrqHandlerEv+0xc4>
  if(_iTail == _iHead)
    7248:	2386      	movs	r3, #134	; 0x86
    724a:	009b      	lsls	r3, r3, #2
    724c:	18e3      	adds	r3, r4, r3
    724e:	6899      	ldr	r1, [r3, #8]
    7250:	685a      	ldr	r2, [r3, #4]
    7252:	4291      	cmp	r1, r2
    7254:	d018      	beq.n	7288 <_ZN4Uart10IrqHandlerEv+0xbe>
  uint8_t value = _aucBuffer[_iTail];
    7256:	218e      	movs	r1, #142	; 0x8e
    7258:	689a      	ldr	r2, [r3, #8]
    725a:	0049      	lsls	r1, r1, #1
    725c:	18a2      	adds	r2, r4, r2
    725e:	5c51      	ldrb	r1, [r2, r1]
  _iTail = nextIndex(_iTail);
    7260:	689a      	ldr	r2, [r3, #8]
  return (uint32_t)(index + 1) % N;
    7262:	3201      	adds	r2, #1
    7264:	b2d2      	uxtb	r2, r2
  _iTail = nextIndex(_iTail);
    7266:	609a      	str	r2, [r3, #8]
      sercom->writeDataUART(data);
    7268:	b2c9      	uxtb	r1, r1
    726a:	6920      	ldr	r0, [r4, #16]
    726c:	f7ff fd91 	bl	6d92 <_ZN6SERCOM13writeDataUARTEh>
  if (sercom->isUARTError()) {
    7270:	6920      	ldr	r0, [r4, #16]
    7272:	f7ff fd6f 	bl	6d54 <_ZN6SERCOM11isUARTErrorEv>
    7276:	2800      	cmp	r0, #0
    7278:	d005      	beq.n	7286 <_ZN4Uart10IrqHandlerEv+0xbc>
    sercom->acknowledgeUARTError();
    727a:	6920      	ldr	r0, [r4, #16]
    727c:	f7ff fd6e 	bl	6d5c <_ZN6SERCOM20acknowledgeUARTErrorEv>
    sercom->clearStatusUART();
    7280:	6920      	ldr	r0, [r4, #16]
    7282:	f7ff fd5e 	bl	6d42 <_ZN6SERCOM15clearStatusUARTEv>
}
    7286:	bd10      	pop	{r4, pc}
    return -1;
    7288:	2101      	movs	r1, #1
    728a:	4249      	negs	r1, r1
    728c:	e7ec      	b.n	7268 <_ZN4Uart10IrqHandlerEv+0x9e>
      sercom->disableDataRegisterEmptyInterruptUART();
    728e:	6920      	ldr	r0, [r4, #16]
    7290:	f7ff fd8b 	bl	6daa <_ZN6SERCOM37disableDataRegisterEmptyInterruptUARTEv>
    7294:	e7ec      	b.n	7270 <_ZN4Uart10IrqHandlerEv+0xa6>
	...

00007298 <_ZN4Uart5writeEh>:
{
    7298:	b570      	push	{r4, r5, r6, lr}
    729a:	0004      	movs	r4, r0
  if (sercom->isDataRegisterEmptyUART() && txBuffer.available() == 0) {
    729c:	6900      	ldr	r0, [r0, #16]
{
    729e:	000d      	movs	r5, r1
  if (sercom->isDataRegisterEmptyUART() && txBuffer.available() == 0) {
    72a0:	f7ff fd6e 	bl	6d80 <_ZN6SERCOM23isDataRegisterEmptyUARTEv>
    72a4:	2800      	cmp	r0, #0
    72a6:	d124      	bne.n	72f2 <_ZN4Uart5writeEh+0x5a>
  return (uint32_t)(index + 1) % N;
    72a8:	26ff      	movs	r6, #255	; 0xff
}

template <int N>
bool RingBufferN<N>::isFull()
{
  return (nextIndex(_iHead) == _iTail);
    72aa:	2386      	movs	r3, #134	; 0x86
    72ac:	009b      	lsls	r3, r3, #2
    72ae:	18e3      	adds	r3, r4, r3
    72b0:	685a      	ldr	r2, [r3, #4]
    72b2:	6899      	ldr	r1, [r3, #8]
  return (uint32_t)(index + 1) % N;
    72b4:	3201      	adds	r2, #1
    72b6:	4032      	ands	r2, r6
    while(txBuffer.isFull()) {
    72b8:	428a      	cmp	r2, r1
    72ba:	d12f      	bne.n	731c <_ZN4Uart5writeEh+0x84>
  __ASM volatile ("MRS %0, primask" : "=r" (result) );
    72bc:	f3ef 8310 	mrs	r3, PRIMASK
      if (interruptsEnabled) {
    72c0:	07db      	lsls	r3, r3, #31
    72c2:	d40d      	bmi.n	72e0 <_ZN4Uart5writeEh+0x48>
        uint32_t exceptionNumber = (SCB->ICSR & SCB_ICSR_VECTACTIVE_Msk);
    72c4:	4b1e      	ldr	r3, [pc, #120]	; (7340 <_ZN4Uart5writeEh+0xa8>)
    72c6:	685b      	ldr	r3, [r3, #4]
    72c8:	05db      	lsls	r3, r3, #23
    72ca:	0ddb      	lsrs	r3, r3, #23
        if (exceptionNumber == 0 ||
    72cc:	d0ed      	beq.n	72aa <_ZN4Uart5writeEh+0x12>
              NVIC_GetPriority((IRQn_Type)(exceptionNumber - 16)) > SERCOM_NVIC_PRIORITY) {
    72ce:	3b10      	subs	r3, #16
    72d0:	b25b      	sxtb	r3, r3
  if ((int32_t)(IRQn) >= 0)
    72d2:	2b00      	cmp	r3, #0
    72d4:	db19      	blt.n	730a <_ZN4Uart5writeEh+0x72>
    return((uint32_t)(((NVIC->IP[ _IP_IDX(IRQn)] >> _BIT_SHIFT(IRQn) ) & (uint32_t)0xFFUL) >> (8U - __NVIC_PRIO_BITS)));
    72d6:	089b      	lsrs	r3, r3, #2
    72d8:	33c0      	adds	r3, #192	; 0xc0
    72da:	4a1a      	ldr	r2, [pc, #104]	; (7344 <_ZN4Uart5writeEh+0xac>)
    72dc:	009b      	lsls	r3, r3, #2
    72de:	589b      	ldr	r3, [r3, r2]
      if (sercom->isDataRegisterEmptyUART()) {
    72e0:	6920      	ldr	r0, [r4, #16]
    72e2:	f7ff fd4d 	bl	6d80 <_ZN6SERCOM23isDataRegisterEmptyUARTEv>
    72e6:	2800      	cmp	r0, #0
    72e8:	d0df      	beq.n	72aa <_ZN4Uart5writeEh+0x12>
        IrqHandler();
    72ea:	0020      	movs	r0, r4
    72ec:	f7ff ff6d 	bl	71ca <_ZN4Uart10IrqHandlerEv>
    72f0:	e7db      	b.n	72aa <_ZN4Uart5writeEh+0x12>
  if (sercom->isDataRegisterEmptyUART() && txBuffer.available() == 0) {
    72f2:	0020      	movs	r0, r4
    72f4:	301d      	adds	r0, #29
    72f6:	30ff      	adds	r0, #255	; 0xff
    72f8:	f7ff ff36 	bl	7168 <_ZN11RingBufferNILi256EE9availableEv>
    72fc:	2800      	cmp	r0, #0
    72fe:	d1d3      	bne.n	72a8 <_ZN4Uart5writeEh+0x10>
    sercom->writeDataUART(data);
    7300:	0029      	movs	r1, r5
    7302:	6920      	ldr	r0, [r4, #16]
    7304:	f7ff fd45 	bl	6d92 <_ZN6SERCOM13writeDataUARTEh>
  return 1;
    7308:	e017      	b.n	733a <_ZN4Uart5writeEh+0xa2>
    return((uint32_t)(((SCB->SHP[_SHP_IDX(IRQn)] >> _BIT_SHIFT(IRQn) ) & (uint32_t)0xFFUL) >> (8U - __NVIC_PRIO_BITS)));
    730a:	220f      	movs	r2, #15
    730c:	4013      	ands	r3, r2
    730e:	3b08      	subs	r3, #8
    7310:	089b      	lsrs	r3, r3, #2
    7312:	4a0d      	ldr	r2, [pc, #52]	; (7348 <_ZN4Uart5writeEh+0xb0>)
    7314:	009b      	lsls	r3, r3, #2
    7316:	189b      	adds	r3, r3, r2
    7318:	681b      	ldr	r3, [r3, #0]
    731a:	e7e1      	b.n	72e0 <_ZN4Uart5writeEh+0x48>
  int i = nextIndex(_iHead);
    731c:	685a      	ldr	r2, [r3, #4]
  return (uint32_t)(index + 1) % N;
    731e:	3201      	adds	r2, #1
    7320:	4016      	ands	r6, r2
  if ( i != _iTail )
    7322:	689a      	ldr	r2, [r3, #8]
    7324:	4296      	cmp	r6, r2
    7326:	d005      	beq.n	7334 <_ZN4Uart5writeEh+0x9c>
    _aucBuffer[_iHead] = c ;
    7328:	218e      	movs	r1, #142	; 0x8e
    732a:	685a      	ldr	r2, [r3, #4]
    732c:	0049      	lsls	r1, r1, #1
    732e:	18a2      	adds	r2, r4, r2
    7330:	5455      	strb	r5, [r2, r1]
    _iHead = i ;
    7332:	605e      	str	r6, [r3, #4]
    sercom->enableDataRegisterEmptyInterruptUART();
    7334:	6920      	ldr	r0, [r4, #16]
    7336:	f7ff fd34 	bl	6da2 <_ZN6SERCOM36enableDataRegisterEmptyInterruptUARTEv>
}
    733a:	2001      	movs	r0, #1
    733c:	bd70      	pop	{r4, r5, r6, pc}
    733e:	46c0      	nop			; (mov r8, r8)
    7340:	e000ed00 	.word	0xe000ed00
    7344:	e000e100 	.word	0xe000e100
    7348:	e000ed1c 	.word	0xe000ed1c

0000734c <_ZN4Uart4readEv>:
  if(_iTail == _iHead)
    734c:	0003      	movs	r3, r0
    734e:	33fc      	adds	r3, #252	; 0xfc
    7350:	69d9      	ldr	r1, [r3, #28]
    7352:	699a      	ldr	r2, [r3, #24]
{
    7354:	b570      	push	{r4, r5, r6, lr}
    7356:	0004      	movs	r4, r0
    7358:	4291      	cmp	r1, r2
    735a:	d01a      	beq.n	7392 <_ZN4Uart4readEv+0x46>
  uint8_t value = _aucBuffer[_iTail];
    735c:	69da      	ldr	r2, [r3, #28]
    735e:	1882      	adds	r2, r0, r2
    7360:	7d15      	ldrb	r5, [r2, #20]
  _iTail = nextIndex(_iTail);
    7362:	69da      	ldr	r2, [r3, #28]
  return (uint32_t)(index + 1) % N;
    7364:	3201      	adds	r2, #1
    7366:	b2d2      	uxtb	r2, r2
  _iTail = nextIndex(_iTail);
    7368:	61da      	str	r2, [r3, #28]
  if (uc_pinRTS != NO_RTS_PIN) {
    736a:	238a      	movs	r3, #138	; 0x8a
    736c:	009b      	lsls	r3, r3, #2
    736e:	5ce3      	ldrb	r3, [r4, r3]
    7370:	2bff      	cmp	r3, #255	; 0xff
    7372:	d00c      	beq.n	738e <_ZN4Uart4readEv+0x42>
  int c = rxBuffer.read_char();
    7374:	0020      	movs	r0, r4
    7376:	3014      	adds	r0, #20
    if (rxBuffer.availableForStore() > RTS_RX_THRESHOLD) {
    7378:	f7ff ff11 	bl	719e <_ZN11RingBufferNILi256EE17availableForStoreEv>
    737c:	280a      	cmp	r0, #10
    737e:	dd06      	ble.n	738e <_ZN4Uart4readEv+0x42>
      *pul_outclrRTS = ul_pinMaskRTS;
    7380:	238c      	movs	r3, #140	; 0x8c
    7382:	228d      	movs	r2, #141	; 0x8d
    7384:	009b      	lsls	r3, r3, #2
    7386:	0092      	lsls	r2, r2, #2
    7388:	58e3      	ldr	r3, [r4, r3]
    738a:	58a2      	ldr	r2, [r4, r2]
    738c:	601a      	str	r2, [r3, #0]
}
    738e:	0028      	movs	r0, r5
    7390:	bd70      	pop	{r4, r5, r6, pc}
    return -1;
    7392:	2501      	movs	r5, #1
    7394:	426d      	negs	r5, r5
    7396:	e7e8      	b.n	736a <_ZN4Uart4readEv+0x1e>

00007398 <_ZN13PluggableUSB_12getInterfaceEPh>:
#ifdef PLUGGABLE_USB_ENABLED

extern uint32_t EndPoints[];

int PluggableUSB_::getInterface(uint8_t* interfaceCount)
{
    7398:	b570      	push	{r4, r5, r6, lr}
    739a:	000e      	movs	r6, r1
	int sent = 0;
    739c:	2500      	movs	r5, #0
	PluggableUSBModule* node;
	for (node = rootNode; node; node = node->next) {
    739e:	6844      	ldr	r4, [r0, #4]
    73a0:	2c00      	cmp	r4, #0
    73a2:	d00b      	beq.n	73bc <_ZN13PluggableUSB_12getInterfaceEPh+0x24>
		int res = node->getInterface(interfaceCount);
    73a4:	6823      	ldr	r3, [r4, #0]
    73a6:	0031      	movs	r1, r6
    73a8:	685b      	ldr	r3, [r3, #4]
    73aa:	0020      	movs	r0, r4
    73ac:	4798      	blx	r3
		if (res < 0)
    73ae:	2800      	cmp	r0, #0
    73b0:	db02      	blt.n	73b8 <_ZN13PluggableUSB_12getInterfaceEPh+0x20>
			return -1;
		sent += res;
    73b2:	182d      	adds	r5, r5, r0
	for (node = rootNode; node; node = node->next) {
    73b4:	68e4      	ldr	r4, [r4, #12]
    73b6:	e7f3      	b.n	73a0 <_ZN13PluggableUSB_12getInterfaceEPh+0x8>
			return -1;
    73b8:	2501      	movs	r5, #1
    73ba:	426d      	negs	r5, r5
	}
	return sent;
}
    73bc:	0028      	movs	r0, r5
    73be:	bd70      	pop	{r4, r5, r6, pc}

000073c0 <_ZN13PluggableUSB_13getDescriptorER8USBSetup>:

int PluggableUSB_::getDescriptor(USBSetup& setup)
{
    73c0:	b570      	push	{r4, r5, r6, lr}
    73c2:	000d      	movs	r5, r1
	PluggableUSBModule* node;
	for (node = rootNode; node; node = node->next) {
    73c4:	6844      	ldr	r4, [r0, #4]
    73c6:	2c00      	cmp	r4, #0
    73c8:	d008      	beq.n	73dc <_ZN13PluggableUSB_13getDescriptorER8USBSetup+0x1c>
		int ret = node->getDescriptor(setup);
    73ca:	6823      	ldr	r3, [r4, #0]
    73cc:	0029      	movs	r1, r5
    73ce:	689b      	ldr	r3, [r3, #8]
    73d0:	0020      	movs	r0, r4
    73d2:	4798      	blx	r3
		// ret!=0 -> request has been processed
		if (ret)
    73d4:	2800      	cmp	r0, #0
    73d6:	d102      	bne.n	73de <_ZN13PluggableUSB_13getDescriptorER8USBSetup+0x1e>
	for (node = rootNode; node; node = node->next) {
    73d8:	68e4      	ldr	r4, [r4, #12]
    73da:	e7f4      	b.n	73c6 <_ZN13PluggableUSB_13getDescriptorER8USBSetup+0x6>
			return ret;
	}
	return 0;
    73dc:	0020      	movs	r0, r4
}
    73de:	bd70      	pop	{r4, r5, r6, pc}

000073e0 <_ZN13PluggableUSB_12getShortNameEPc>:

void PluggableUSB_::getShortName(char *iSerialNum)
{
    73e0:	b570      	push	{r4, r5, r6, lr}
    73e2:	000d      	movs	r5, r1
       PluggableUSBModule* node;
       for (node = rootNode; node; node = node->next) {
    73e4:	6844      	ldr	r4, [r0, #4]
    73e6:	2c00      	cmp	r4, #0
    73e8:	d007      	beq.n	73fa <_ZN13PluggableUSB_12getShortNameEPc+0x1a>
               iSerialNum += node->getShortName(iSerialNum);
    73ea:	6823      	ldr	r3, [r4, #0]
    73ec:	0029      	movs	r1, r5
    73ee:	0020      	movs	r0, r4
    73f0:	68db      	ldr	r3, [r3, #12]
    73f2:	4798      	blx	r3
       for (node = rootNode; node; node = node->next) {
    73f4:	68e4      	ldr	r4, [r4, #12]
               iSerialNum += node->getShortName(iSerialNum);
    73f6:	182d      	adds	r5, r5, r0
       for (node = rootNode; node; node = node->next) {
    73f8:	e7f5      	b.n	73e6 <_ZN13PluggableUSB_12getShortNameEPc+0x6>
       }
       *iSerialNum = 0;
    73fa:	702c      	strb	r4, [r5, #0]
}
    73fc:	bd70      	pop	{r4, r5, r6, pc}

000073fe <_ZN13PluggableUSB_5setupER8USBSetup>:

bool PluggableUSB_::setup(USBSetup& setup)
{
    73fe:	b570      	push	{r4, r5, r6, lr}
    7400:	000d      	movs	r5, r1
	PluggableUSBModule* node;
	for (node = rootNode; node; node = node->next) {
    7402:	6844      	ldr	r4, [r0, #4]
    7404:	2c00      	cmp	r4, #0
    7406:	d008      	beq.n	741a <_ZN13PluggableUSB_5setupER8USBSetup+0x1c>
		if (node->setup(setup)) {
    7408:	6823      	ldr	r3, [r4, #0]
    740a:	0029      	movs	r1, r5
    740c:	681b      	ldr	r3, [r3, #0]
    740e:	0020      	movs	r0, r4
    7410:	4798      	blx	r3
    7412:	2800      	cmp	r0, #0
    7414:	d102      	bne.n	741c <_ZN13PluggableUSB_5setupER8USBSetup+0x1e>
	for (node = rootNode; node; node = node->next) {
    7416:	68e4      	ldr	r4, [r4, #12]
    7418:	e7f4      	b.n	7404 <_ZN13PluggableUSB_5setupER8USBSetup+0x6>
			return true;
		}
	}
	return false;
    741a:	0020      	movs	r0, r4
}
    741c:	bd70      	pop	{r4, r5, r6, pc}
	...

00007420 <_Z12PluggableUSBv>:
	// restart USB layer???
}

PluggableUSB_& PluggableUSB()
{
	static PluggableUSB_ obj;
    7420:	2101      	movs	r1, #1
    7422:	4a06      	ldr	r2, [pc, #24]	; (743c <_Z12PluggableUSBv+0x1c>)
{
    7424:	b510      	push	{r4, lr}
	static PluggableUSB_ obj;
    7426:	6813      	ldr	r3, [r2, #0]
    7428:	4805      	ldr	r0, [pc, #20]	; (7440 <_Z12PluggableUSBv+0x20>)
    742a:	400b      	ands	r3, r1
    742c:	d105      	bne.n	743a <_Z12PluggableUSBv+0x1a>
	return obj;
}

PluggableUSB_::PluggableUSB_() : lastIf(CDC_ACM_INTERFACE + CDC_INTERFACE_COUNT),
                                 lastEp(CDC_FIRST_ENDPOINT + CDC_ENPOINT_COUNT),
                                 rootNode(NULL)
    742e:	2402      	movs	r4, #2
    7430:	7004      	strb	r4, [r0, #0]
    7432:	1924      	adds	r4, r4, r4
    7434:	7044      	strb	r4, [r0, #1]
    7436:	6043      	str	r3, [r0, #4]
	static PluggableUSB_ obj;
    7438:	6011      	str	r1, [r2, #0]
}
    743a:	bd10      	pop	{r4, pc}
    743c:	200010ac 	.word	0x200010ac
    7440:	200010b0 	.word	0x200010b0

00007444 <__aeabi_atexit>:
    7444:	000b      	movs	r3, r1
    7446:	b510      	push	{r4, lr}
    7448:	0001      	movs	r1, r0
    744a:	0018      	movs	r0, r3
    744c:	f001 ff44 	bl	92d8 <__cxa_atexit>
    7450:	bd10      	pop	{r4, pc}
	...

00007454 <__gnu_thumb1_case_uqi>:
    7454:	b402      	push	{r1}
    7456:	4671      	mov	r1, lr
    7458:	0849      	lsrs	r1, r1, #1
    745a:	0049      	lsls	r1, r1, #1
    745c:	5c09      	ldrb	r1, [r1, r0]
    745e:	0049      	lsls	r1, r1, #1
    7460:	448e      	add	lr, r1
    7462:	bc02      	pop	{r1}
    7464:	4770      	bx	lr
    7466:	46c0      	nop			; (mov r8, r8)

00007468 <__udivsi3>:
    7468:	2200      	movs	r2, #0
    746a:	0843      	lsrs	r3, r0, #1
    746c:	428b      	cmp	r3, r1
    746e:	d374      	bcc.n	755a <__udivsi3+0xf2>
    7470:	0903      	lsrs	r3, r0, #4
    7472:	428b      	cmp	r3, r1
    7474:	d35f      	bcc.n	7536 <__udivsi3+0xce>
    7476:	0a03      	lsrs	r3, r0, #8
    7478:	428b      	cmp	r3, r1
    747a:	d344      	bcc.n	7506 <__udivsi3+0x9e>
    747c:	0b03      	lsrs	r3, r0, #12
    747e:	428b      	cmp	r3, r1
    7480:	d328      	bcc.n	74d4 <__udivsi3+0x6c>
    7482:	0c03      	lsrs	r3, r0, #16
    7484:	428b      	cmp	r3, r1
    7486:	d30d      	bcc.n	74a4 <__udivsi3+0x3c>
    7488:	22ff      	movs	r2, #255	; 0xff
    748a:	0209      	lsls	r1, r1, #8
    748c:	ba12      	rev	r2, r2
    748e:	0c03      	lsrs	r3, r0, #16
    7490:	428b      	cmp	r3, r1
    7492:	d302      	bcc.n	749a <__udivsi3+0x32>
    7494:	1212      	asrs	r2, r2, #8
    7496:	0209      	lsls	r1, r1, #8
    7498:	d065      	beq.n	7566 <__udivsi3+0xfe>
    749a:	0b03      	lsrs	r3, r0, #12
    749c:	428b      	cmp	r3, r1
    749e:	d319      	bcc.n	74d4 <__udivsi3+0x6c>
    74a0:	e000      	b.n	74a4 <__udivsi3+0x3c>
    74a2:	0a09      	lsrs	r1, r1, #8
    74a4:	0bc3      	lsrs	r3, r0, #15
    74a6:	428b      	cmp	r3, r1
    74a8:	d301      	bcc.n	74ae <__udivsi3+0x46>
    74aa:	03cb      	lsls	r3, r1, #15
    74ac:	1ac0      	subs	r0, r0, r3
    74ae:	4152      	adcs	r2, r2
    74b0:	0b83      	lsrs	r3, r0, #14
    74b2:	428b      	cmp	r3, r1
    74b4:	d301      	bcc.n	74ba <__udivsi3+0x52>
    74b6:	038b      	lsls	r3, r1, #14
    74b8:	1ac0      	subs	r0, r0, r3
    74ba:	4152      	adcs	r2, r2
    74bc:	0b43      	lsrs	r3, r0, #13
    74be:	428b      	cmp	r3, r1
    74c0:	d301      	bcc.n	74c6 <__udivsi3+0x5e>
    74c2:	034b      	lsls	r3, r1, #13
    74c4:	1ac0      	subs	r0, r0, r3
    74c6:	4152      	adcs	r2, r2
    74c8:	0b03      	lsrs	r3, r0, #12
    74ca:	428b      	cmp	r3, r1
    74cc:	d301      	bcc.n	74d2 <__udivsi3+0x6a>
    74ce:	030b      	lsls	r3, r1, #12
    74d0:	1ac0      	subs	r0, r0, r3
    74d2:	4152      	adcs	r2, r2
    74d4:	0ac3      	lsrs	r3, r0, #11
    74d6:	428b      	cmp	r3, r1
    74d8:	d301      	bcc.n	74de <__udivsi3+0x76>
    74da:	02cb      	lsls	r3, r1, #11
    74dc:	1ac0      	subs	r0, r0, r3
    74de:	4152      	adcs	r2, r2
    74e0:	0a83      	lsrs	r3, r0, #10
    74e2:	428b      	cmp	r3, r1
    74e4:	d301      	bcc.n	74ea <__udivsi3+0x82>
    74e6:	028b      	lsls	r3, r1, #10
    74e8:	1ac0      	subs	r0, r0, r3
    74ea:	4152      	adcs	r2, r2
    74ec:	0a43      	lsrs	r3, r0, #9
    74ee:	428b      	cmp	r3, r1
    74f0:	d301      	bcc.n	74f6 <__udivsi3+0x8e>
    74f2:	024b      	lsls	r3, r1, #9
    74f4:	1ac0      	subs	r0, r0, r3
    74f6:	4152      	adcs	r2, r2
    74f8:	0a03      	lsrs	r3, r0, #8
    74fa:	428b      	cmp	r3, r1
    74fc:	d301      	bcc.n	7502 <__udivsi3+0x9a>
    74fe:	020b      	lsls	r3, r1, #8
    7500:	1ac0      	subs	r0, r0, r3
    7502:	4152      	adcs	r2, r2
    7504:	d2cd      	bcs.n	74a2 <__udivsi3+0x3a>
    7506:	09c3      	lsrs	r3, r0, #7
    7508:	428b      	cmp	r3, r1
    750a:	d301      	bcc.n	7510 <__udivsi3+0xa8>
    750c:	01cb      	lsls	r3, r1, #7
    750e:	1ac0      	subs	r0, r0, r3
    7510:	4152      	adcs	r2, r2
    7512:	0983      	lsrs	r3, r0, #6
    7514:	428b      	cmp	r3, r1
    7516:	d301      	bcc.n	751c <__udivsi3+0xb4>
    7518:	018b      	lsls	r3, r1, #6
    751a:	1ac0      	subs	r0, r0, r3
    751c:	4152      	adcs	r2, r2
    751e:	0943      	lsrs	r3, r0, #5
    7520:	428b      	cmp	r3, r1
    7522:	d301      	bcc.n	7528 <__udivsi3+0xc0>
    7524:	014b      	lsls	r3, r1, #5
    7526:	1ac0      	subs	r0, r0, r3
    7528:	4152      	adcs	r2, r2
    752a:	0903      	lsrs	r3, r0, #4
    752c:	428b      	cmp	r3, r1
    752e:	d301      	bcc.n	7534 <__udivsi3+0xcc>
    7530:	010b      	lsls	r3, r1, #4
    7532:	1ac0      	subs	r0, r0, r3
    7534:	4152      	adcs	r2, r2
    7536:	08c3      	lsrs	r3, r0, #3
    7538:	428b      	cmp	r3, r1
    753a:	d301      	bcc.n	7540 <__udivsi3+0xd8>
    753c:	00cb      	lsls	r3, r1, #3
    753e:	1ac0      	subs	r0, r0, r3
    7540:	4152      	adcs	r2, r2
    7542:	0883      	lsrs	r3, r0, #2
    7544:	428b      	cmp	r3, r1
    7546:	d301      	bcc.n	754c <__udivsi3+0xe4>
    7548:	008b      	lsls	r3, r1, #2
    754a:	1ac0      	subs	r0, r0, r3
    754c:	4152      	adcs	r2, r2
    754e:	0843      	lsrs	r3, r0, #1
    7550:	428b      	cmp	r3, r1
    7552:	d301      	bcc.n	7558 <__udivsi3+0xf0>
    7554:	004b      	lsls	r3, r1, #1
    7556:	1ac0      	subs	r0, r0, r3
    7558:	4152      	adcs	r2, r2
    755a:	1a41      	subs	r1, r0, r1
    755c:	d200      	bcs.n	7560 <__udivsi3+0xf8>
    755e:	4601      	mov	r1, r0
    7560:	4152      	adcs	r2, r2
    7562:	4610      	mov	r0, r2
    7564:	4770      	bx	lr
    7566:	e7ff      	b.n	7568 <__udivsi3+0x100>
    7568:	b501      	push	{r0, lr}
    756a:	2000      	movs	r0, #0
    756c:	f000 f8f0 	bl	7750 <__aeabi_idiv0>
    7570:	bd02      	pop	{r1, pc}
    7572:	46c0      	nop			; (mov r8, r8)

00007574 <__aeabi_uidivmod>:
    7574:	2900      	cmp	r1, #0
    7576:	d0f7      	beq.n	7568 <__udivsi3+0x100>
    7578:	e776      	b.n	7468 <__udivsi3>
    757a:	4770      	bx	lr

0000757c <__divsi3>:
    757c:	4603      	mov	r3, r0
    757e:	430b      	orrs	r3, r1
    7580:	d47f      	bmi.n	7682 <__divsi3+0x106>
    7582:	2200      	movs	r2, #0
    7584:	0843      	lsrs	r3, r0, #1
    7586:	428b      	cmp	r3, r1
    7588:	d374      	bcc.n	7674 <__divsi3+0xf8>
    758a:	0903      	lsrs	r3, r0, #4
    758c:	428b      	cmp	r3, r1
    758e:	d35f      	bcc.n	7650 <__divsi3+0xd4>
    7590:	0a03      	lsrs	r3, r0, #8
    7592:	428b      	cmp	r3, r1
    7594:	d344      	bcc.n	7620 <__divsi3+0xa4>
    7596:	0b03      	lsrs	r3, r0, #12
    7598:	428b      	cmp	r3, r1
    759a:	d328      	bcc.n	75ee <__divsi3+0x72>
    759c:	0c03      	lsrs	r3, r0, #16
    759e:	428b      	cmp	r3, r1
    75a0:	d30d      	bcc.n	75be <__divsi3+0x42>
    75a2:	22ff      	movs	r2, #255	; 0xff
    75a4:	0209      	lsls	r1, r1, #8
    75a6:	ba12      	rev	r2, r2
    75a8:	0c03      	lsrs	r3, r0, #16
    75aa:	428b      	cmp	r3, r1
    75ac:	d302      	bcc.n	75b4 <__divsi3+0x38>
    75ae:	1212      	asrs	r2, r2, #8
    75b0:	0209      	lsls	r1, r1, #8
    75b2:	d065      	beq.n	7680 <__divsi3+0x104>
    75b4:	0b03      	lsrs	r3, r0, #12
    75b6:	428b      	cmp	r3, r1
    75b8:	d319      	bcc.n	75ee <__divsi3+0x72>
    75ba:	e000      	b.n	75be <__divsi3+0x42>
    75bc:	0a09      	lsrs	r1, r1, #8
    75be:	0bc3      	lsrs	r3, r0, #15
    75c0:	428b      	cmp	r3, r1
    75c2:	d301      	bcc.n	75c8 <__divsi3+0x4c>
    75c4:	03cb      	lsls	r3, r1, #15
    75c6:	1ac0      	subs	r0, r0, r3
    75c8:	4152      	adcs	r2, r2
    75ca:	0b83      	lsrs	r3, r0, #14
    75cc:	428b      	cmp	r3, r1
    75ce:	d301      	bcc.n	75d4 <__divsi3+0x58>
    75d0:	038b      	lsls	r3, r1, #14
    75d2:	1ac0      	subs	r0, r0, r3
    75d4:	4152      	adcs	r2, r2
    75d6:	0b43      	lsrs	r3, r0, #13
    75d8:	428b      	cmp	r3, r1
    75da:	d301      	bcc.n	75e0 <__divsi3+0x64>
    75dc:	034b      	lsls	r3, r1, #13
    75de:	1ac0      	subs	r0, r0, r3
    75e0:	4152      	adcs	r2, r2
    75e2:	0b03      	lsrs	r3, r0, #12
    75e4:	428b      	cmp	r3, r1
    75e6:	d301      	bcc.n	75ec <__divsi3+0x70>
    75e8:	030b      	lsls	r3, r1, #12
    75ea:	1ac0      	subs	r0, r0, r3
    75ec:	4152      	adcs	r2, r2
    75ee:	0ac3      	lsrs	r3, r0, #11
    75f0:	428b      	cmp	r3, r1
    75f2:	d301      	bcc.n	75f8 <__divsi3+0x7c>
    75f4:	02cb      	lsls	r3, r1, #11
    75f6:	1ac0      	subs	r0, r0, r3
    75f8:	4152      	adcs	r2, r2
    75fa:	0a83      	lsrs	r3, r0, #10
    75fc:	428b      	cmp	r3, r1
    75fe:	d301      	bcc.n	7604 <__divsi3+0x88>
    7600:	028b      	lsls	r3, r1, #10
    7602:	1ac0      	subs	r0, r0, r3
    7604:	4152      	adcs	r2, r2
    7606:	0a43      	lsrs	r3, r0, #9
    7608:	428b      	cmp	r3, r1
    760a:	d301      	bcc.n	7610 <__divsi3+0x94>
    760c:	024b      	lsls	r3, r1, #9
    760e:	1ac0      	subs	r0, r0, r3
    7610:	4152      	adcs	r2, r2
    7612:	0a03      	lsrs	r3, r0, #8
    7614:	428b      	cmp	r3, r1
    7616:	d301      	bcc.n	761c <__divsi3+0xa0>
    7618:	020b      	lsls	r3, r1, #8
    761a:	1ac0      	subs	r0, r0, r3
    761c:	4152      	adcs	r2, r2
    761e:	d2cd      	bcs.n	75bc <__divsi3+0x40>
    7620:	09c3      	lsrs	r3, r0, #7
    7622:	428b      	cmp	r3, r1
    7624:	d301      	bcc.n	762a <__divsi3+0xae>
    7626:	01cb      	lsls	r3, r1, #7
    7628:	1ac0      	subs	r0, r0, r3
    762a:	4152      	adcs	r2, r2
    762c:	0983      	lsrs	r3, r0, #6
    762e:	428b      	cmp	r3, r1
    7630:	d301      	bcc.n	7636 <__divsi3+0xba>
    7632:	018b      	lsls	r3, r1, #6
    7634:	1ac0      	subs	r0, r0, r3
    7636:	4152      	adcs	r2, r2
    7638:	0943      	lsrs	r3, r0, #5
    763a:	428b      	cmp	r3, r1
    763c:	d301      	bcc.n	7642 <__divsi3+0xc6>
    763e:	014b      	lsls	r3, r1, #5
    7640:	1ac0      	subs	r0, r0, r3
    7642:	4152      	adcs	r2, r2
    7644:	0903      	lsrs	r3, r0, #4
    7646:	428b      	cmp	r3, r1
    7648:	d301      	bcc.n	764e <__divsi3+0xd2>
    764a:	010b      	lsls	r3, r1, #4
    764c:	1ac0      	subs	r0, r0, r3
    764e:	4152      	adcs	r2, r2
    7650:	08c3      	lsrs	r3, r0, #3
    7652:	428b      	cmp	r3, r1
    7654:	d301      	bcc.n	765a <__divsi3+0xde>
    7656:	00cb      	lsls	r3, r1, #3
    7658:	1ac0      	subs	r0, r0, r3
    765a:	4152      	adcs	r2, r2
    765c:	0883      	lsrs	r3, r0, #2
    765e:	428b      	cmp	r3, r1
    7660:	d301      	bcc.n	7666 <__divsi3+0xea>
    7662:	008b      	lsls	r3, r1, #2
    7664:	1ac0      	subs	r0, r0, r3
    7666:	4152      	adcs	r2, r2
    7668:	0843      	lsrs	r3, r0, #1
    766a:	428b      	cmp	r3, r1
    766c:	d301      	bcc.n	7672 <__divsi3+0xf6>
    766e:	004b      	lsls	r3, r1, #1
    7670:	1ac0      	subs	r0, r0, r3
    7672:	4152      	adcs	r2, r2
    7674:	1a41      	subs	r1, r0, r1
    7676:	d200      	bcs.n	767a <__divsi3+0xfe>
    7678:	4601      	mov	r1, r0
    767a:	4152      	adcs	r2, r2
    767c:	4610      	mov	r0, r2
    767e:	4770      	bx	lr
    7680:	e05d      	b.n	773e <__divsi3+0x1c2>
    7682:	0fca      	lsrs	r2, r1, #31
    7684:	d000      	beq.n	7688 <__divsi3+0x10c>
    7686:	4249      	negs	r1, r1
    7688:	1003      	asrs	r3, r0, #32
    768a:	d300      	bcc.n	768e <__divsi3+0x112>
    768c:	4240      	negs	r0, r0
    768e:	4053      	eors	r3, r2
    7690:	2200      	movs	r2, #0
    7692:	469c      	mov	ip, r3
    7694:	0903      	lsrs	r3, r0, #4
    7696:	428b      	cmp	r3, r1
    7698:	d32d      	bcc.n	76f6 <__divsi3+0x17a>
    769a:	0a03      	lsrs	r3, r0, #8
    769c:	428b      	cmp	r3, r1
    769e:	d312      	bcc.n	76c6 <__divsi3+0x14a>
    76a0:	22fc      	movs	r2, #252	; 0xfc
    76a2:	0189      	lsls	r1, r1, #6
    76a4:	ba12      	rev	r2, r2
    76a6:	0a03      	lsrs	r3, r0, #8
    76a8:	428b      	cmp	r3, r1
    76aa:	d30c      	bcc.n	76c6 <__divsi3+0x14a>
    76ac:	0189      	lsls	r1, r1, #6
    76ae:	1192      	asrs	r2, r2, #6
    76b0:	428b      	cmp	r3, r1
    76b2:	d308      	bcc.n	76c6 <__divsi3+0x14a>
    76b4:	0189      	lsls	r1, r1, #6
    76b6:	1192      	asrs	r2, r2, #6
    76b8:	428b      	cmp	r3, r1
    76ba:	d304      	bcc.n	76c6 <__divsi3+0x14a>
    76bc:	0189      	lsls	r1, r1, #6
    76be:	d03a      	beq.n	7736 <__divsi3+0x1ba>
    76c0:	1192      	asrs	r2, r2, #6
    76c2:	e000      	b.n	76c6 <__divsi3+0x14a>
    76c4:	0989      	lsrs	r1, r1, #6
    76c6:	09c3      	lsrs	r3, r0, #7
    76c8:	428b      	cmp	r3, r1
    76ca:	d301      	bcc.n	76d0 <__divsi3+0x154>
    76cc:	01cb      	lsls	r3, r1, #7
    76ce:	1ac0      	subs	r0, r0, r3
    76d0:	4152      	adcs	r2, r2
    76d2:	0983      	lsrs	r3, r0, #6
    76d4:	428b      	cmp	r3, r1
    76d6:	d301      	bcc.n	76dc <__divsi3+0x160>
    76d8:	018b      	lsls	r3, r1, #6
    76da:	1ac0      	subs	r0, r0, r3
    76dc:	4152      	adcs	r2, r2
    76de:	0943      	lsrs	r3, r0, #5
    76e0:	428b      	cmp	r3, r1
    76e2:	d301      	bcc.n	76e8 <__divsi3+0x16c>
    76e4:	014b      	lsls	r3, r1, #5
    76e6:	1ac0      	subs	r0, r0, r3
    76e8:	4152      	adcs	r2, r2
    76ea:	0903      	lsrs	r3, r0, #4
    76ec:	428b      	cmp	r3, r1
    76ee:	d301      	bcc.n	76f4 <__divsi3+0x178>
    76f0:	010b      	lsls	r3, r1, #4
    76f2:	1ac0      	subs	r0, r0, r3
    76f4:	4152      	adcs	r2, r2
    76f6:	08c3      	lsrs	r3, r0, #3
    76f8:	428b      	cmp	r3, r1
    76fa:	d301      	bcc.n	7700 <__divsi3+0x184>
    76fc:	00cb      	lsls	r3, r1, #3
    76fe:	1ac0      	subs	r0, r0, r3
    7700:	4152      	adcs	r2, r2
    7702:	0883      	lsrs	r3, r0, #2
    7704:	428b      	cmp	r3, r1
    7706:	d301      	bcc.n	770c <__divsi3+0x190>
    7708:	008b      	lsls	r3, r1, #2
    770a:	1ac0      	subs	r0, r0, r3
    770c:	4152      	adcs	r2, r2
    770e:	d2d9      	bcs.n	76c4 <__divsi3+0x148>
    7710:	0843      	lsrs	r3, r0, #1
    7712:	428b      	cmp	r3, r1
    7714:	d301      	bcc.n	771a <__divsi3+0x19e>
    7716:	004b      	lsls	r3, r1, #1
    7718:	1ac0      	subs	r0, r0, r3
    771a:	4152      	adcs	r2, r2
    771c:	1a41      	subs	r1, r0, r1
    771e:	d200      	bcs.n	7722 <__divsi3+0x1a6>
    7720:	4601      	mov	r1, r0
    7722:	4663      	mov	r3, ip
    7724:	4152      	adcs	r2, r2
    7726:	105b      	asrs	r3, r3, #1
    7728:	4610      	mov	r0, r2
    772a:	d301      	bcc.n	7730 <__divsi3+0x1b4>
    772c:	4240      	negs	r0, r0
    772e:	2b00      	cmp	r3, #0
    7730:	d500      	bpl.n	7734 <__divsi3+0x1b8>
    7732:	4249      	negs	r1, r1
    7734:	4770      	bx	lr
    7736:	4663      	mov	r3, ip
    7738:	105b      	asrs	r3, r3, #1
    773a:	d300      	bcc.n	773e <__divsi3+0x1c2>
    773c:	4240      	negs	r0, r0
    773e:	b501      	push	{r0, lr}
    7740:	2000      	movs	r0, #0
    7742:	f000 f805 	bl	7750 <__aeabi_idiv0>
    7746:	bd02      	pop	{r1, pc}

00007748 <__aeabi_idivmod>:
    7748:	2900      	cmp	r1, #0
    774a:	d0f8      	beq.n	773e <__divsi3+0x1c2>
    774c:	e716      	b.n	757c <__divsi3>
    774e:	4770      	bx	lr

00007750 <__aeabi_idiv0>:
    7750:	4770      	bx	lr
    7752:	46c0      	nop			; (mov r8, r8)

00007754 <__aeabi_cdrcmple>:
    7754:	4684      	mov	ip, r0
    7756:	1c10      	adds	r0, r2, #0
    7758:	4662      	mov	r2, ip
    775a:	468c      	mov	ip, r1
    775c:	1c19      	adds	r1, r3, #0
    775e:	4663      	mov	r3, ip
    7760:	e000      	b.n	7764 <__aeabi_cdcmpeq>
    7762:	46c0      	nop			; (mov r8, r8)

00007764 <__aeabi_cdcmpeq>:
    7764:	b51f      	push	{r0, r1, r2, r3, r4, lr}
    7766:	f000 ff15 	bl	8594 <__ledf2>
    776a:	2800      	cmp	r0, #0
    776c:	d401      	bmi.n	7772 <__aeabi_cdcmpeq+0xe>
    776e:	2100      	movs	r1, #0
    7770:	42c8      	cmn	r0, r1
    7772:	bd1f      	pop	{r0, r1, r2, r3, r4, pc}

00007774 <__aeabi_dcmpeq>:
    7774:	b510      	push	{r4, lr}
    7776:	f000 fe6f 	bl	8458 <__eqdf2>
    777a:	4240      	negs	r0, r0
    777c:	3001      	adds	r0, #1
    777e:	bd10      	pop	{r4, pc}

00007780 <__aeabi_dcmplt>:
    7780:	b510      	push	{r4, lr}
    7782:	f000 ff07 	bl	8594 <__ledf2>
    7786:	2800      	cmp	r0, #0
    7788:	db01      	blt.n	778e <__aeabi_dcmplt+0xe>
    778a:	2000      	movs	r0, #0
    778c:	bd10      	pop	{r4, pc}
    778e:	2001      	movs	r0, #1
    7790:	bd10      	pop	{r4, pc}
    7792:	46c0      	nop			; (mov r8, r8)

00007794 <__aeabi_dcmple>:
    7794:	b510      	push	{r4, lr}
    7796:	f000 fefd 	bl	8594 <__ledf2>
    779a:	2800      	cmp	r0, #0
    779c:	dd01      	ble.n	77a2 <__aeabi_dcmple+0xe>
    779e:	2000      	movs	r0, #0
    77a0:	bd10      	pop	{r4, pc}
    77a2:	2001      	movs	r0, #1
    77a4:	bd10      	pop	{r4, pc}
    77a6:	46c0      	nop			; (mov r8, r8)

000077a8 <__aeabi_dcmpgt>:
    77a8:	b510      	push	{r4, lr}
    77aa:	f000 fe8f 	bl	84cc <__gedf2>
    77ae:	2800      	cmp	r0, #0
    77b0:	dc01      	bgt.n	77b6 <__aeabi_dcmpgt+0xe>
    77b2:	2000      	movs	r0, #0
    77b4:	bd10      	pop	{r4, pc}
    77b6:	2001      	movs	r0, #1
    77b8:	bd10      	pop	{r4, pc}
    77ba:	46c0      	nop			; (mov r8, r8)

000077bc <__aeabi_dcmpge>:
    77bc:	b510      	push	{r4, lr}
    77be:	f000 fe85 	bl	84cc <__gedf2>
    77c2:	2800      	cmp	r0, #0
    77c4:	da01      	bge.n	77ca <__aeabi_dcmpge+0xe>
    77c6:	2000      	movs	r0, #0
    77c8:	bd10      	pop	{r4, pc}
    77ca:	2001      	movs	r0, #1
    77cc:	bd10      	pop	{r4, pc}
    77ce:	46c0      	nop			; (mov r8, r8)

000077d0 <__aeabi_dadd>:
    77d0:	b5f8      	push	{r3, r4, r5, r6, r7, lr}
    77d2:	4645      	mov	r5, r8
    77d4:	46de      	mov	lr, fp
    77d6:	4657      	mov	r7, sl
    77d8:	464e      	mov	r6, r9
    77da:	030c      	lsls	r4, r1, #12
    77dc:	b5e0      	push	{r5, r6, r7, lr}
    77de:	004e      	lsls	r6, r1, #1
    77e0:	0fc9      	lsrs	r1, r1, #31
    77e2:	4688      	mov	r8, r1
    77e4:	000d      	movs	r5, r1
    77e6:	0a61      	lsrs	r1, r4, #9
    77e8:	0f44      	lsrs	r4, r0, #29
    77ea:	430c      	orrs	r4, r1
    77ec:	00c7      	lsls	r7, r0, #3
    77ee:	0319      	lsls	r1, r3, #12
    77f0:	0058      	lsls	r0, r3, #1
    77f2:	0fdb      	lsrs	r3, r3, #31
    77f4:	469b      	mov	fp, r3
    77f6:	0a4b      	lsrs	r3, r1, #9
    77f8:	0f51      	lsrs	r1, r2, #29
    77fa:	430b      	orrs	r3, r1
    77fc:	0d76      	lsrs	r6, r6, #21
    77fe:	0d40      	lsrs	r0, r0, #21
    7800:	0019      	movs	r1, r3
    7802:	00d2      	lsls	r2, r2, #3
    7804:	45d8      	cmp	r8, fp
    7806:	d100      	bne.n	780a <__aeabi_dadd+0x3a>
    7808:	e0ae      	b.n	7968 <__aeabi_dadd+0x198>
    780a:	1a35      	subs	r5, r6, r0
    780c:	2d00      	cmp	r5, #0
    780e:	dc00      	bgt.n	7812 <__aeabi_dadd+0x42>
    7810:	e0f6      	b.n	7a00 <__aeabi_dadd+0x230>
    7812:	2800      	cmp	r0, #0
    7814:	d10f      	bne.n	7836 <__aeabi_dadd+0x66>
    7816:	4313      	orrs	r3, r2
    7818:	d100      	bne.n	781c <__aeabi_dadd+0x4c>
    781a:	e0db      	b.n	79d4 <__aeabi_dadd+0x204>
    781c:	1e6b      	subs	r3, r5, #1
    781e:	2b00      	cmp	r3, #0
    7820:	d000      	beq.n	7824 <__aeabi_dadd+0x54>
    7822:	e137      	b.n	7a94 <__aeabi_dadd+0x2c4>
    7824:	1aba      	subs	r2, r7, r2
    7826:	4297      	cmp	r7, r2
    7828:	41bf      	sbcs	r7, r7
    782a:	1a64      	subs	r4, r4, r1
    782c:	427f      	negs	r7, r7
    782e:	1be4      	subs	r4, r4, r7
    7830:	2601      	movs	r6, #1
    7832:	0017      	movs	r7, r2
    7834:	e024      	b.n	7880 <__aeabi_dadd+0xb0>
    7836:	4bc6      	ldr	r3, [pc, #792]	; (7b50 <__aeabi_dadd+0x380>)
    7838:	429e      	cmp	r6, r3
    783a:	d04d      	beq.n	78d8 <__aeabi_dadd+0x108>
    783c:	2380      	movs	r3, #128	; 0x80
    783e:	041b      	lsls	r3, r3, #16
    7840:	4319      	orrs	r1, r3
    7842:	2d38      	cmp	r5, #56	; 0x38
    7844:	dd00      	ble.n	7848 <__aeabi_dadd+0x78>
    7846:	e107      	b.n	7a58 <__aeabi_dadd+0x288>
    7848:	2d1f      	cmp	r5, #31
    784a:	dd00      	ble.n	784e <__aeabi_dadd+0x7e>
    784c:	e138      	b.n	7ac0 <__aeabi_dadd+0x2f0>
    784e:	2020      	movs	r0, #32
    7850:	1b43      	subs	r3, r0, r5
    7852:	469a      	mov	sl, r3
    7854:	000b      	movs	r3, r1
    7856:	4650      	mov	r0, sl
    7858:	4083      	lsls	r3, r0
    785a:	4699      	mov	r9, r3
    785c:	0013      	movs	r3, r2
    785e:	4648      	mov	r0, r9
    7860:	40eb      	lsrs	r3, r5
    7862:	4318      	orrs	r0, r3
    7864:	0003      	movs	r3, r0
    7866:	4650      	mov	r0, sl
    7868:	4082      	lsls	r2, r0
    786a:	1e50      	subs	r0, r2, #1
    786c:	4182      	sbcs	r2, r0
    786e:	40e9      	lsrs	r1, r5
    7870:	431a      	orrs	r2, r3
    7872:	1aba      	subs	r2, r7, r2
    7874:	1a61      	subs	r1, r4, r1
    7876:	4297      	cmp	r7, r2
    7878:	41a4      	sbcs	r4, r4
    787a:	0017      	movs	r7, r2
    787c:	4264      	negs	r4, r4
    787e:	1b0c      	subs	r4, r1, r4
    7880:	0223      	lsls	r3, r4, #8
    7882:	d562      	bpl.n	794a <__aeabi_dadd+0x17a>
    7884:	0264      	lsls	r4, r4, #9
    7886:	0a65      	lsrs	r5, r4, #9
    7888:	2d00      	cmp	r5, #0
    788a:	d100      	bne.n	788e <__aeabi_dadd+0xbe>
    788c:	e0df      	b.n	7a4e <__aeabi_dadd+0x27e>
    788e:	0028      	movs	r0, r5
    7890:	f001 fd04 	bl	929c <__clzsi2>
    7894:	0003      	movs	r3, r0
    7896:	3b08      	subs	r3, #8
    7898:	2b1f      	cmp	r3, #31
    789a:	dd00      	ble.n	789e <__aeabi_dadd+0xce>
    789c:	e0d2      	b.n	7a44 <__aeabi_dadd+0x274>
    789e:	2220      	movs	r2, #32
    78a0:	003c      	movs	r4, r7
    78a2:	1ad2      	subs	r2, r2, r3
    78a4:	409d      	lsls	r5, r3
    78a6:	40d4      	lsrs	r4, r2
    78a8:	409f      	lsls	r7, r3
    78aa:	4325      	orrs	r5, r4
    78ac:	429e      	cmp	r6, r3
    78ae:	dd00      	ble.n	78b2 <__aeabi_dadd+0xe2>
    78b0:	e0c4      	b.n	7a3c <__aeabi_dadd+0x26c>
    78b2:	1b9e      	subs	r6, r3, r6
    78b4:	1c73      	adds	r3, r6, #1
    78b6:	2b1f      	cmp	r3, #31
    78b8:	dd00      	ble.n	78bc <__aeabi_dadd+0xec>
    78ba:	e0f1      	b.n	7aa0 <__aeabi_dadd+0x2d0>
    78bc:	2220      	movs	r2, #32
    78be:	0038      	movs	r0, r7
    78c0:	0029      	movs	r1, r5
    78c2:	1ad2      	subs	r2, r2, r3
    78c4:	40d8      	lsrs	r0, r3
    78c6:	4091      	lsls	r1, r2
    78c8:	4097      	lsls	r7, r2
    78ca:	002c      	movs	r4, r5
    78cc:	4301      	orrs	r1, r0
    78ce:	1e78      	subs	r0, r7, #1
    78d0:	4187      	sbcs	r7, r0
    78d2:	40dc      	lsrs	r4, r3
    78d4:	2600      	movs	r6, #0
    78d6:	430f      	orrs	r7, r1
    78d8:	077b      	lsls	r3, r7, #29
    78da:	d009      	beq.n	78f0 <__aeabi_dadd+0x120>
    78dc:	230f      	movs	r3, #15
    78de:	403b      	ands	r3, r7
    78e0:	2b04      	cmp	r3, #4
    78e2:	d005      	beq.n	78f0 <__aeabi_dadd+0x120>
    78e4:	1d3b      	adds	r3, r7, #4
    78e6:	42bb      	cmp	r3, r7
    78e8:	41bf      	sbcs	r7, r7
    78ea:	427f      	negs	r7, r7
    78ec:	19e4      	adds	r4, r4, r7
    78ee:	001f      	movs	r7, r3
    78f0:	0223      	lsls	r3, r4, #8
    78f2:	d52c      	bpl.n	794e <__aeabi_dadd+0x17e>
    78f4:	4b96      	ldr	r3, [pc, #600]	; (7b50 <__aeabi_dadd+0x380>)
    78f6:	3601      	adds	r6, #1
    78f8:	429e      	cmp	r6, r3
    78fa:	d100      	bne.n	78fe <__aeabi_dadd+0x12e>
    78fc:	e09a      	b.n	7a34 <__aeabi_dadd+0x264>
    78fe:	4645      	mov	r5, r8
    7900:	4b94      	ldr	r3, [pc, #592]	; (7b54 <__aeabi_dadd+0x384>)
    7902:	08ff      	lsrs	r7, r7, #3
    7904:	401c      	ands	r4, r3
    7906:	0760      	lsls	r0, r4, #29
    7908:	0576      	lsls	r6, r6, #21
    790a:	0264      	lsls	r4, r4, #9
    790c:	4307      	orrs	r7, r0
    790e:	0b24      	lsrs	r4, r4, #12
    7910:	0d76      	lsrs	r6, r6, #21
    7912:	2100      	movs	r1, #0
    7914:	0324      	lsls	r4, r4, #12
    7916:	0b23      	lsrs	r3, r4, #12
    7918:	0d0c      	lsrs	r4, r1, #20
    791a:	4a8f      	ldr	r2, [pc, #572]	; (7b58 <__aeabi_dadd+0x388>)
    791c:	0524      	lsls	r4, r4, #20
    791e:	431c      	orrs	r4, r3
    7920:	4014      	ands	r4, r2
    7922:	0533      	lsls	r3, r6, #20
    7924:	4323      	orrs	r3, r4
    7926:	005b      	lsls	r3, r3, #1
    7928:	07ed      	lsls	r5, r5, #31
    792a:	085b      	lsrs	r3, r3, #1
    792c:	432b      	orrs	r3, r5
    792e:	0038      	movs	r0, r7
    7930:	0019      	movs	r1, r3
    7932:	bc3c      	pop	{r2, r3, r4, r5}
    7934:	4690      	mov	r8, r2
    7936:	4699      	mov	r9, r3
    7938:	46a2      	mov	sl, r4
    793a:	46ab      	mov	fp, r5
    793c:	bdf8      	pop	{r3, r4, r5, r6, r7, pc}
    793e:	4664      	mov	r4, ip
    7940:	4304      	orrs	r4, r0
    7942:	d100      	bne.n	7946 <__aeabi_dadd+0x176>
    7944:	e211      	b.n	7d6a <__aeabi_dadd+0x59a>
    7946:	0004      	movs	r4, r0
    7948:	4667      	mov	r7, ip
    794a:	077b      	lsls	r3, r7, #29
    794c:	d1c6      	bne.n	78dc <__aeabi_dadd+0x10c>
    794e:	4645      	mov	r5, r8
    7950:	0760      	lsls	r0, r4, #29
    7952:	08ff      	lsrs	r7, r7, #3
    7954:	4307      	orrs	r7, r0
    7956:	08e4      	lsrs	r4, r4, #3
    7958:	4b7d      	ldr	r3, [pc, #500]	; (7b50 <__aeabi_dadd+0x380>)
    795a:	429e      	cmp	r6, r3
    795c:	d030      	beq.n	79c0 <__aeabi_dadd+0x1f0>
    795e:	0324      	lsls	r4, r4, #12
    7960:	0576      	lsls	r6, r6, #21
    7962:	0b24      	lsrs	r4, r4, #12
    7964:	0d76      	lsrs	r6, r6, #21
    7966:	e7d4      	b.n	7912 <__aeabi_dadd+0x142>
    7968:	1a33      	subs	r3, r6, r0
    796a:	469a      	mov	sl, r3
    796c:	2b00      	cmp	r3, #0
    796e:	dd78      	ble.n	7a62 <__aeabi_dadd+0x292>
    7970:	2800      	cmp	r0, #0
    7972:	d031      	beq.n	79d8 <__aeabi_dadd+0x208>
    7974:	4876      	ldr	r0, [pc, #472]	; (7b50 <__aeabi_dadd+0x380>)
    7976:	4286      	cmp	r6, r0
    7978:	d0ae      	beq.n	78d8 <__aeabi_dadd+0x108>
    797a:	2080      	movs	r0, #128	; 0x80
    797c:	0400      	lsls	r0, r0, #16
    797e:	4301      	orrs	r1, r0
    7980:	4653      	mov	r3, sl
    7982:	2b38      	cmp	r3, #56	; 0x38
    7984:	dc00      	bgt.n	7988 <__aeabi_dadd+0x1b8>
    7986:	e0e9      	b.n	7b5c <__aeabi_dadd+0x38c>
    7988:	430a      	orrs	r2, r1
    798a:	1e51      	subs	r1, r2, #1
    798c:	418a      	sbcs	r2, r1
    798e:	2100      	movs	r1, #0
    7990:	19d2      	adds	r2, r2, r7
    7992:	42ba      	cmp	r2, r7
    7994:	41bf      	sbcs	r7, r7
    7996:	1909      	adds	r1, r1, r4
    7998:	427c      	negs	r4, r7
    799a:	0017      	movs	r7, r2
    799c:	190c      	adds	r4, r1, r4
    799e:	0223      	lsls	r3, r4, #8
    79a0:	d5d3      	bpl.n	794a <__aeabi_dadd+0x17a>
    79a2:	4b6b      	ldr	r3, [pc, #428]	; (7b50 <__aeabi_dadd+0x380>)
    79a4:	3601      	adds	r6, #1
    79a6:	429e      	cmp	r6, r3
    79a8:	d100      	bne.n	79ac <__aeabi_dadd+0x1dc>
    79aa:	e13a      	b.n	7c22 <__aeabi_dadd+0x452>
    79ac:	2001      	movs	r0, #1
    79ae:	4b69      	ldr	r3, [pc, #420]	; (7b54 <__aeabi_dadd+0x384>)
    79b0:	401c      	ands	r4, r3
    79b2:	087b      	lsrs	r3, r7, #1
    79b4:	4007      	ands	r7, r0
    79b6:	431f      	orrs	r7, r3
    79b8:	07e0      	lsls	r0, r4, #31
    79ba:	4307      	orrs	r7, r0
    79bc:	0864      	lsrs	r4, r4, #1
    79be:	e78b      	b.n	78d8 <__aeabi_dadd+0x108>
    79c0:	0023      	movs	r3, r4
    79c2:	433b      	orrs	r3, r7
    79c4:	d100      	bne.n	79c8 <__aeabi_dadd+0x1f8>
    79c6:	e1cb      	b.n	7d60 <__aeabi_dadd+0x590>
    79c8:	2280      	movs	r2, #128	; 0x80
    79ca:	0312      	lsls	r2, r2, #12
    79cc:	4314      	orrs	r4, r2
    79ce:	0324      	lsls	r4, r4, #12
    79d0:	0b24      	lsrs	r4, r4, #12
    79d2:	e79e      	b.n	7912 <__aeabi_dadd+0x142>
    79d4:	002e      	movs	r6, r5
    79d6:	e77f      	b.n	78d8 <__aeabi_dadd+0x108>
    79d8:	0008      	movs	r0, r1
    79da:	4310      	orrs	r0, r2
    79dc:	d100      	bne.n	79e0 <__aeabi_dadd+0x210>
    79de:	e0b4      	b.n	7b4a <__aeabi_dadd+0x37a>
    79e0:	1e58      	subs	r0, r3, #1
    79e2:	2800      	cmp	r0, #0
    79e4:	d000      	beq.n	79e8 <__aeabi_dadd+0x218>
    79e6:	e0de      	b.n	7ba6 <__aeabi_dadd+0x3d6>
    79e8:	18ba      	adds	r2, r7, r2
    79ea:	42ba      	cmp	r2, r7
    79ec:	419b      	sbcs	r3, r3
    79ee:	1864      	adds	r4, r4, r1
    79f0:	425b      	negs	r3, r3
    79f2:	18e4      	adds	r4, r4, r3
    79f4:	0017      	movs	r7, r2
    79f6:	2601      	movs	r6, #1
    79f8:	0223      	lsls	r3, r4, #8
    79fa:	d5a6      	bpl.n	794a <__aeabi_dadd+0x17a>
    79fc:	2602      	movs	r6, #2
    79fe:	e7d5      	b.n	79ac <__aeabi_dadd+0x1dc>
    7a00:	2d00      	cmp	r5, #0
    7a02:	d16e      	bne.n	7ae2 <__aeabi_dadd+0x312>
    7a04:	1c70      	adds	r0, r6, #1
    7a06:	0540      	lsls	r0, r0, #21
    7a08:	0d40      	lsrs	r0, r0, #21
    7a0a:	2801      	cmp	r0, #1
    7a0c:	dc00      	bgt.n	7a10 <__aeabi_dadd+0x240>
    7a0e:	e0f9      	b.n	7c04 <__aeabi_dadd+0x434>
    7a10:	1ab8      	subs	r0, r7, r2
    7a12:	4684      	mov	ip, r0
    7a14:	4287      	cmp	r7, r0
    7a16:	4180      	sbcs	r0, r0
    7a18:	1ae5      	subs	r5, r4, r3
    7a1a:	4240      	negs	r0, r0
    7a1c:	1a2d      	subs	r5, r5, r0
    7a1e:	0228      	lsls	r0, r5, #8
    7a20:	d400      	bmi.n	7a24 <__aeabi_dadd+0x254>
    7a22:	e089      	b.n	7b38 <__aeabi_dadd+0x368>
    7a24:	1bd7      	subs	r7, r2, r7
    7a26:	42ba      	cmp	r2, r7
    7a28:	4192      	sbcs	r2, r2
    7a2a:	1b1c      	subs	r4, r3, r4
    7a2c:	4252      	negs	r2, r2
    7a2e:	1aa5      	subs	r5, r4, r2
    7a30:	46d8      	mov	r8, fp
    7a32:	e729      	b.n	7888 <__aeabi_dadd+0xb8>
    7a34:	4645      	mov	r5, r8
    7a36:	2400      	movs	r4, #0
    7a38:	2700      	movs	r7, #0
    7a3a:	e76a      	b.n	7912 <__aeabi_dadd+0x142>
    7a3c:	4c45      	ldr	r4, [pc, #276]	; (7b54 <__aeabi_dadd+0x384>)
    7a3e:	1af6      	subs	r6, r6, r3
    7a40:	402c      	ands	r4, r5
    7a42:	e749      	b.n	78d8 <__aeabi_dadd+0x108>
    7a44:	003d      	movs	r5, r7
    7a46:	3828      	subs	r0, #40	; 0x28
    7a48:	4085      	lsls	r5, r0
    7a4a:	2700      	movs	r7, #0
    7a4c:	e72e      	b.n	78ac <__aeabi_dadd+0xdc>
    7a4e:	0038      	movs	r0, r7
    7a50:	f001 fc24 	bl	929c <__clzsi2>
    7a54:	3020      	adds	r0, #32
    7a56:	e71d      	b.n	7894 <__aeabi_dadd+0xc4>
    7a58:	430a      	orrs	r2, r1
    7a5a:	1e51      	subs	r1, r2, #1
    7a5c:	418a      	sbcs	r2, r1
    7a5e:	2100      	movs	r1, #0
    7a60:	e707      	b.n	7872 <__aeabi_dadd+0xa2>
    7a62:	2b00      	cmp	r3, #0
    7a64:	d000      	beq.n	7a68 <__aeabi_dadd+0x298>
    7a66:	e0f3      	b.n	7c50 <__aeabi_dadd+0x480>
    7a68:	1c70      	adds	r0, r6, #1
    7a6a:	0543      	lsls	r3, r0, #21
    7a6c:	0d5b      	lsrs	r3, r3, #21
    7a6e:	2b01      	cmp	r3, #1
    7a70:	dc00      	bgt.n	7a74 <__aeabi_dadd+0x2a4>
    7a72:	e0ad      	b.n	7bd0 <__aeabi_dadd+0x400>
    7a74:	4b36      	ldr	r3, [pc, #216]	; (7b50 <__aeabi_dadd+0x380>)
    7a76:	4298      	cmp	r0, r3
    7a78:	d100      	bne.n	7a7c <__aeabi_dadd+0x2ac>
    7a7a:	e0d1      	b.n	7c20 <__aeabi_dadd+0x450>
    7a7c:	18ba      	adds	r2, r7, r2
    7a7e:	42ba      	cmp	r2, r7
    7a80:	41bf      	sbcs	r7, r7
    7a82:	1864      	adds	r4, r4, r1
    7a84:	427f      	negs	r7, r7
    7a86:	19e4      	adds	r4, r4, r7
    7a88:	07e7      	lsls	r7, r4, #31
    7a8a:	0852      	lsrs	r2, r2, #1
    7a8c:	4317      	orrs	r7, r2
    7a8e:	0864      	lsrs	r4, r4, #1
    7a90:	0006      	movs	r6, r0
    7a92:	e721      	b.n	78d8 <__aeabi_dadd+0x108>
    7a94:	482e      	ldr	r0, [pc, #184]	; (7b50 <__aeabi_dadd+0x380>)
    7a96:	4285      	cmp	r5, r0
    7a98:	d100      	bne.n	7a9c <__aeabi_dadd+0x2cc>
    7a9a:	e093      	b.n	7bc4 <__aeabi_dadd+0x3f4>
    7a9c:	001d      	movs	r5, r3
    7a9e:	e6d0      	b.n	7842 <__aeabi_dadd+0x72>
    7aa0:	0029      	movs	r1, r5
    7aa2:	3e1f      	subs	r6, #31
    7aa4:	40f1      	lsrs	r1, r6
    7aa6:	2b20      	cmp	r3, #32
    7aa8:	d100      	bne.n	7aac <__aeabi_dadd+0x2dc>
    7aaa:	e08d      	b.n	7bc8 <__aeabi_dadd+0x3f8>
    7aac:	2240      	movs	r2, #64	; 0x40
    7aae:	1ad3      	subs	r3, r2, r3
    7ab0:	409d      	lsls	r5, r3
    7ab2:	432f      	orrs	r7, r5
    7ab4:	1e7d      	subs	r5, r7, #1
    7ab6:	41af      	sbcs	r7, r5
    7ab8:	2400      	movs	r4, #0
    7aba:	430f      	orrs	r7, r1
    7abc:	2600      	movs	r6, #0
    7abe:	e744      	b.n	794a <__aeabi_dadd+0x17a>
    7ac0:	002b      	movs	r3, r5
    7ac2:	0008      	movs	r0, r1
    7ac4:	3b20      	subs	r3, #32
    7ac6:	40d8      	lsrs	r0, r3
    7ac8:	0003      	movs	r3, r0
    7aca:	2d20      	cmp	r5, #32
    7acc:	d100      	bne.n	7ad0 <__aeabi_dadd+0x300>
    7ace:	e07d      	b.n	7bcc <__aeabi_dadd+0x3fc>
    7ad0:	2040      	movs	r0, #64	; 0x40
    7ad2:	1b45      	subs	r5, r0, r5
    7ad4:	40a9      	lsls	r1, r5
    7ad6:	430a      	orrs	r2, r1
    7ad8:	1e51      	subs	r1, r2, #1
    7ada:	418a      	sbcs	r2, r1
    7adc:	2100      	movs	r1, #0
    7ade:	431a      	orrs	r2, r3
    7ae0:	e6c7      	b.n	7872 <__aeabi_dadd+0xa2>
    7ae2:	2e00      	cmp	r6, #0
    7ae4:	d050      	beq.n	7b88 <__aeabi_dadd+0x3b8>
    7ae6:	4e1a      	ldr	r6, [pc, #104]	; (7b50 <__aeabi_dadd+0x380>)
    7ae8:	42b0      	cmp	r0, r6
    7aea:	d057      	beq.n	7b9c <__aeabi_dadd+0x3cc>
    7aec:	2680      	movs	r6, #128	; 0x80
    7aee:	426b      	negs	r3, r5
    7af0:	4699      	mov	r9, r3
    7af2:	0436      	lsls	r6, r6, #16
    7af4:	4334      	orrs	r4, r6
    7af6:	464b      	mov	r3, r9
    7af8:	2b38      	cmp	r3, #56	; 0x38
    7afa:	dd00      	ble.n	7afe <__aeabi_dadd+0x32e>
    7afc:	e0d6      	b.n	7cac <__aeabi_dadd+0x4dc>
    7afe:	2b1f      	cmp	r3, #31
    7b00:	dd00      	ble.n	7b04 <__aeabi_dadd+0x334>
    7b02:	e135      	b.n	7d70 <__aeabi_dadd+0x5a0>
    7b04:	2620      	movs	r6, #32
    7b06:	1af5      	subs	r5, r6, r3
    7b08:	0026      	movs	r6, r4
    7b0a:	40ae      	lsls	r6, r5
    7b0c:	46b2      	mov	sl, r6
    7b0e:	003e      	movs	r6, r7
    7b10:	40de      	lsrs	r6, r3
    7b12:	46ac      	mov	ip, r5
    7b14:	0035      	movs	r5, r6
    7b16:	4656      	mov	r6, sl
    7b18:	432e      	orrs	r6, r5
    7b1a:	4665      	mov	r5, ip
    7b1c:	40af      	lsls	r7, r5
    7b1e:	1e7d      	subs	r5, r7, #1
    7b20:	41af      	sbcs	r7, r5
    7b22:	40dc      	lsrs	r4, r3
    7b24:	4337      	orrs	r7, r6
    7b26:	1bd7      	subs	r7, r2, r7
    7b28:	42ba      	cmp	r2, r7
    7b2a:	4192      	sbcs	r2, r2
    7b2c:	1b0c      	subs	r4, r1, r4
    7b2e:	4252      	negs	r2, r2
    7b30:	1aa4      	subs	r4, r4, r2
    7b32:	0006      	movs	r6, r0
    7b34:	46d8      	mov	r8, fp
    7b36:	e6a3      	b.n	7880 <__aeabi_dadd+0xb0>
    7b38:	4664      	mov	r4, ip
    7b3a:	4667      	mov	r7, ip
    7b3c:	432c      	orrs	r4, r5
    7b3e:	d000      	beq.n	7b42 <__aeabi_dadd+0x372>
    7b40:	e6a2      	b.n	7888 <__aeabi_dadd+0xb8>
    7b42:	2500      	movs	r5, #0
    7b44:	2600      	movs	r6, #0
    7b46:	2700      	movs	r7, #0
    7b48:	e706      	b.n	7958 <__aeabi_dadd+0x188>
    7b4a:	001e      	movs	r6, r3
    7b4c:	e6c4      	b.n	78d8 <__aeabi_dadd+0x108>
    7b4e:	46c0      	nop			; (mov r8, r8)
    7b50:	000007ff 	.word	0x000007ff
    7b54:	ff7fffff 	.word	0xff7fffff
    7b58:	800fffff 	.word	0x800fffff
    7b5c:	2b1f      	cmp	r3, #31
    7b5e:	dc63      	bgt.n	7c28 <__aeabi_dadd+0x458>
    7b60:	2020      	movs	r0, #32
    7b62:	1ac3      	subs	r3, r0, r3
    7b64:	0008      	movs	r0, r1
    7b66:	4098      	lsls	r0, r3
    7b68:	469c      	mov	ip, r3
    7b6a:	4683      	mov	fp, r0
    7b6c:	4653      	mov	r3, sl
    7b6e:	0010      	movs	r0, r2
    7b70:	40d8      	lsrs	r0, r3
    7b72:	0003      	movs	r3, r0
    7b74:	4658      	mov	r0, fp
    7b76:	4318      	orrs	r0, r3
    7b78:	4663      	mov	r3, ip
    7b7a:	409a      	lsls	r2, r3
    7b7c:	1e53      	subs	r3, r2, #1
    7b7e:	419a      	sbcs	r2, r3
    7b80:	4653      	mov	r3, sl
    7b82:	4302      	orrs	r2, r0
    7b84:	40d9      	lsrs	r1, r3
    7b86:	e703      	b.n	7990 <__aeabi_dadd+0x1c0>
    7b88:	0026      	movs	r6, r4
    7b8a:	433e      	orrs	r6, r7
    7b8c:	d006      	beq.n	7b9c <__aeabi_dadd+0x3cc>
    7b8e:	43eb      	mvns	r3, r5
    7b90:	4699      	mov	r9, r3
    7b92:	2b00      	cmp	r3, #0
    7b94:	d0c7      	beq.n	7b26 <__aeabi_dadd+0x356>
    7b96:	4e94      	ldr	r6, [pc, #592]	; (7de8 <__aeabi_dadd+0x618>)
    7b98:	42b0      	cmp	r0, r6
    7b9a:	d1ac      	bne.n	7af6 <__aeabi_dadd+0x326>
    7b9c:	000c      	movs	r4, r1
    7b9e:	0017      	movs	r7, r2
    7ba0:	0006      	movs	r6, r0
    7ba2:	46d8      	mov	r8, fp
    7ba4:	e698      	b.n	78d8 <__aeabi_dadd+0x108>
    7ba6:	4b90      	ldr	r3, [pc, #576]	; (7de8 <__aeabi_dadd+0x618>)
    7ba8:	459a      	cmp	sl, r3
    7baa:	d00b      	beq.n	7bc4 <__aeabi_dadd+0x3f4>
    7bac:	4682      	mov	sl, r0
    7bae:	e6e7      	b.n	7980 <__aeabi_dadd+0x1b0>
    7bb0:	2800      	cmp	r0, #0
    7bb2:	d000      	beq.n	7bb6 <__aeabi_dadd+0x3e6>
    7bb4:	e09e      	b.n	7cf4 <__aeabi_dadd+0x524>
    7bb6:	0018      	movs	r0, r3
    7bb8:	4310      	orrs	r0, r2
    7bba:	d100      	bne.n	7bbe <__aeabi_dadd+0x3ee>
    7bbc:	e0e9      	b.n	7d92 <__aeabi_dadd+0x5c2>
    7bbe:	001c      	movs	r4, r3
    7bc0:	0017      	movs	r7, r2
    7bc2:	46d8      	mov	r8, fp
    7bc4:	4e88      	ldr	r6, [pc, #544]	; (7de8 <__aeabi_dadd+0x618>)
    7bc6:	e687      	b.n	78d8 <__aeabi_dadd+0x108>
    7bc8:	2500      	movs	r5, #0
    7bca:	e772      	b.n	7ab2 <__aeabi_dadd+0x2e2>
    7bcc:	2100      	movs	r1, #0
    7bce:	e782      	b.n	7ad6 <__aeabi_dadd+0x306>
    7bd0:	0023      	movs	r3, r4
    7bd2:	433b      	orrs	r3, r7
    7bd4:	2e00      	cmp	r6, #0
    7bd6:	d000      	beq.n	7bda <__aeabi_dadd+0x40a>
    7bd8:	e0ab      	b.n	7d32 <__aeabi_dadd+0x562>
    7bda:	2b00      	cmp	r3, #0
    7bdc:	d100      	bne.n	7be0 <__aeabi_dadd+0x410>
    7bde:	e0e7      	b.n	7db0 <__aeabi_dadd+0x5e0>
    7be0:	000b      	movs	r3, r1
    7be2:	4313      	orrs	r3, r2
    7be4:	d100      	bne.n	7be8 <__aeabi_dadd+0x418>
    7be6:	e677      	b.n	78d8 <__aeabi_dadd+0x108>
    7be8:	18ba      	adds	r2, r7, r2
    7bea:	42ba      	cmp	r2, r7
    7bec:	41bf      	sbcs	r7, r7
    7bee:	1864      	adds	r4, r4, r1
    7bf0:	427f      	negs	r7, r7
    7bf2:	19e4      	adds	r4, r4, r7
    7bf4:	0223      	lsls	r3, r4, #8
    7bf6:	d400      	bmi.n	7bfa <__aeabi_dadd+0x42a>
    7bf8:	e0f2      	b.n	7de0 <__aeabi_dadd+0x610>
    7bfa:	4b7c      	ldr	r3, [pc, #496]	; (7dec <__aeabi_dadd+0x61c>)
    7bfc:	0017      	movs	r7, r2
    7bfe:	401c      	ands	r4, r3
    7c00:	0006      	movs	r6, r0
    7c02:	e669      	b.n	78d8 <__aeabi_dadd+0x108>
    7c04:	0020      	movs	r0, r4
    7c06:	4338      	orrs	r0, r7
    7c08:	2e00      	cmp	r6, #0
    7c0a:	d1d1      	bne.n	7bb0 <__aeabi_dadd+0x3e0>
    7c0c:	2800      	cmp	r0, #0
    7c0e:	d15b      	bne.n	7cc8 <__aeabi_dadd+0x4f8>
    7c10:	001c      	movs	r4, r3
    7c12:	4314      	orrs	r4, r2
    7c14:	d100      	bne.n	7c18 <__aeabi_dadd+0x448>
    7c16:	e0a8      	b.n	7d6a <__aeabi_dadd+0x59a>
    7c18:	001c      	movs	r4, r3
    7c1a:	0017      	movs	r7, r2
    7c1c:	46d8      	mov	r8, fp
    7c1e:	e65b      	b.n	78d8 <__aeabi_dadd+0x108>
    7c20:	0006      	movs	r6, r0
    7c22:	2400      	movs	r4, #0
    7c24:	2700      	movs	r7, #0
    7c26:	e697      	b.n	7958 <__aeabi_dadd+0x188>
    7c28:	4650      	mov	r0, sl
    7c2a:	000b      	movs	r3, r1
    7c2c:	3820      	subs	r0, #32
    7c2e:	40c3      	lsrs	r3, r0
    7c30:	4699      	mov	r9, r3
    7c32:	4653      	mov	r3, sl
    7c34:	2b20      	cmp	r3, #32
    7c36:	d100      	bne.n	7c3a <__aeabi_dadd+0x46a>
    7c38:	e095      	b.n	7d66 <__aeabi_dadd+0x596>
    7c3a:	2340      	movs	r3, #64	; 0x40
    7c3c:	4650      	mov	r0, sl
    7c3e:	1a1b      	subs	r3, r3, r0
    7c40:	4099      	lsls	r1, r3
    7c42:	430a      	orrs	r2, r1
    7c44:	1e51      	subs	r1, r2, #1
    7c46:	418a      	sbcs	r2, r1
    7c48:	464b      	mov	r3, r9
    7c4a:	2100      	movs	r1, #0
    7c4c:	431a      	orrs	r2, r3
    7c4e:	e69f      	b.n	7990 <__aeabi_dadd+0x1c0>
    7c50:	2e00      	cmp	r6, #0
    7c52:	d130      	bne.n	7cb6 <__aeabi_dadd+0x4e6>
    7c54:	0026      	movs	r6, r4
    7c56:	433e      	orrs	r6, r7
    7c58:	d067      	beq.n	7d2a <__aeabi_dadd+0x55a>
    7c5a:	43db      	mvns	r3, r3
    7c5c:	469a      	mov	sl, r3
    7c5e:	2b00      	cmp	r3, #0
    7c60:	d01c      	beq.n	7c9c <__aeabi_dadd+0x4cc>
    7c62:	4e61      	ldr	r6, [pc, #388]	; (7de8 <__aeabi_dadd+0x618>)
    7c64:	42b0      	cmp	r0, r6
    7c66:	d060      	beq.n	7d2a <__aeabi_dadd+0x55a>
    7c68:	4653      	mov	r3, sl
    7c6a:	2b38      	cmp	r3, #56	; 0x38
    7c6c:	dd00      	ble.n	7c70 <__aeabi_dadd+0x4a0>
    7c6e:	e096      	b.n	7d9e <__aeabi_dadd+0x5ce>
    7c70:	2b1f      	cmp	r3, #31
    7c72:	dd00      	ble.n	7c76 <__aeabi_dadd+0x4a6>
    7c74:	e09f      	b.n	7db6 <__aeabi_dadd+0x5e6>
    7c76:	2620      	movs	r6, #32
    7c78:	1af3      	subs	r3, r6, r3
    7c7a:	0026      	movs	r6, r4
    7c7c:	409e      	lsls	r6, r3
    7c7e:	469c      	mov	ip, r3
    7c80:	46b3      	mov	fp, r6
    7c82:	4653      	mov	r3, sl
    7c84:	003e      	movs	r6, r7
    7c86:	40de      	lsrs	r6, r3
    7c88:	0033      	movs	r3, r6
    7c8a:	465e      	mov	r6, fp
    7c8c:	431e      	orrs	r6, r3
    7c8e:	4663      	mov	r3, ip
    7c90:	409f      	lsls	r7, r3
    7c92:	1e7b      	subs	r3, r7, #1
    7c94:	419f      	sbcs	r7, r3
    7c96:	4653      	mov	r3, sl
    7c98:	40dc      	lsrs	r4, r3
    7c9a:	4337      	orrs	r7, r6
    7c9c:	18bf      	adds	r7, r7, r2
    7c9e:	4297      	cmp	r7, r2
    7ca0:	4192      	sbcs	r2, r2
    7ca2:	1864      	adds	r4, r4, r1
    7ca4:	4252      	negs	r2, r2
    7ca6:	18a4      	adds	r4, r4, r2
    7ca8:	0006      	movs	r6, r0
    7caa:	e678      	b.n	799e <__aeabi_dadd+0x1ce>
    7cac:	4327      	orrs	r7, r4
    7cae:	1e7c      	subs	r4, r7, #1
    7cb0:	41a7      	sbcs	r7, r4
    7cb2:	2400      	movs	r4, #0
    7cb4:	e737      	b.n	7b26 <__aeabi_dadd+0x356>
    7cb6:	4e4c      	ldr	r6, [pc, #304]	; (7de8 <__aeabi_dadd+0x618>)
    7cb8:	42b0      	cmp	r0, r6
    7cba:	d036      	beq.n	7d2a <__aeabi_dadd+0x55a>
    7cbc:	2680      	movs	r6, #128	; 0x80
    7cbe:	425b      	negs	r3, r3
    7cc0:	0436      	lsls	r6, r6, #16
    7cc2:	469a      	mov	sl, r3
    7cc4:	4334      	orrs	r4, r6
    7cc6:	e7cf      	b.n	7c68 <__aeabi_dadd+0x498>
    7cc8:	0018      	movs	r0, r3
    7cca:	4310      	orrs	r0, r2
    7ccc:	d100      	bne.n	7cd0 <__aeabi_dadd+0x500>
    7cce:	e603      	b.n	78d8 <__aeabi_dadd+0x108>
    7cd0:	1ab8      	subs	r0, r7, r2
    7cd2:	4684      	mov	ip, r0
    7cd4:	4567      	cmp	r7, ip
    7cd6:	41ad      	sbcs	r5, r5
    7cd8:	1ae0      	subs	r0, r4, r3
    7cda:	426d      	negs	r5, r5
    7cdc:	1b40      	subs	r0, r0, r5
    7cde:	0205      	lsls	r5, r0, #8
    7ce0:	d400      	bmi.n	7ce4 <__aeabi_dadd+0x514>
    7ce2:	e62c      	b.n	793e <__aeabi_dadd+0x16e>
    7ce4:	1bd7      	subs	r7, r2, r7
    7ce6:	42ba      	cmp	r2, r7
    7ce8:	4192      	sbcs	r2, r2
    7cea:	1b1c      	subs	r4, r3, r4
    7cec:	4252      	negs	r2, r2
    7cee:	1aa4      	subs	r4, r4, r2
    7cf0:	46d8      	mov	r8, fp
    7cf2:	e5f1      	b.n	78d8 <__aeabi_dadd+0x108>
    7cf4:	0018      	movs	r0, r3
    7cf6:	4310      	orrs	r0, r2
    7cf8:	d100      	bne.n	7cfc <__aeabi_dadd+0x52c>
    7cfa:	e763      	b.n	7bc4 <__aeabi_dadd+0x3f4>
    7cfc:	08f8      	lsrs	r0, r7, #3
    7cfe:	0767      	lsls	r7, r4, #29
    7d00:	4307      	orrs	r7, r0
    7d02:	2080      	movs	r0, #128	; 0x80
    7d04:	08e4      	lsrs	r4, r4, #3
    7d06:	0300      	lsls	r0, r0, #12
    7d08:	4204      	tst	r4, r0
    7d0a:	d008      	beq.n	7d1e <__aeabi_dadd+0x54e>
    7d0c:	08dd      	lsrs	r5, r3, #3
    7d0e:	4205      	tst	r5, r0
    7d10:	d105      	bne.n	7d1e <__aeabi_dadd+0x54e>
    7d12:	08d2      	lsrs	r2, r2, #3
    7d14:	0759      	lsls	r1, r3, #29
    7d16:	4311      	orrs	r1, r2
    7d18:	000f      	movs	r7, r1
    7d1a:	002c      	movs	r4, r5
    7d1c:	46d8      	mov	r8, fp
    7d1e:	0f7b      	lsrs	r3, r7, #29
    7d20:	00e4      	lsls	r4, r4, #3
    7d22:	431c      	orrs	r4, r3
    7d24:	00ff      	lsls	r7, r7, #3
    7d26:	4e30      	ldr	r6, [pc, #192]	; (7de8 <__aeabi_dadd+0x618>)
    7d28:	e5d6      	b.n	78d8 <__aeabi_dadd+0x108>
    7d2a:	000c      	movs	r4, r1
    7d2c:	0017      	movs	r7, r2
    7d2e:	0006      	movs	r6, r0
    7d30:	e5d2      	b.n	78d8 <__aeabi_dadd+0x108>
    7d32:	2b00      	cmp	r3, #0
    7d34:	d038      	beq.n	7da8 <__aeabi_dadd+0x5d8>
    7d36:	000b      	movs	r3, r1
    7d38:	4313      	orrs	r3, r2
    7d3a:	d100      	bne.n	7d3e <__aeabi_dadd+0x56e>
    7d3c:	e742      	b.n	7bc4 <__aeabi_dadd+0x3f4>
    7d3e:	08f8      	lsrs	r0, r7, #3
    7d40:	0767      	lsls	r7, r4, #29
    7d42:	4307      	orrs	r7, r0
    7d44:	2080      	movs	r0, #128	; 0x80
    7d46:	08e4      	lsrs	r4, r4, #3
    7d48:	0300      	lsls	r0, r0, #12
    7d4a:	4204      	tst	r4, r0
    7d4c:	d0e7      	beq.n	7d1e <__aeabi_dadd+0x54e>
    7d4e:	08cb      	lsrs	r3, r1, #3
    7d50:	4203      	tst	r3, r0
    7d52:	d1e4      	bne.n	7d1e <__aeabi_dadd+0x54e>
    7d54:	08d2      	lsrs	r2, r2, #3
    7d56:	0749      	lsls	r1, r1, #29
    7d58:	4311      	orrs	r1, r2
    7d5a:	000f      	movs	r7, r1
    7d5c:	001c      	movs	r4, r3
    7d5e:	e7de      	b.n	7d1e <__aeabi_dadd+0x54e>
    7d60:	2700      	movs	r7, #0
    7d62:	2400      	movs	r4, #0
    7d64:	e5d5      	b.n	7912 <__aeabi_dadd+0x142>
    7d66:	2100      	movs	r1, #0
    7d68:	e76b      	b.n	7c42 <__aeabi_dadd+0x472>
    7d6a:	2500      	movs	r5, #0
    7d6c:	2700      	movs	r7, #0
    7d6e:	e5f3      	b.n	7958 <__aeabi_dadd+0x188>
    7d70:	464e      	mov	r6, r9
    7d72:	0025      	movs	r5, r4
    7d74:	3e20      	subs	r6, #32
    7d76:	40f5      	lsrs	r5, r6
    7d78:	464b      	mov	r3, r9
    7d7a:	002e      	movs	r6, r5
    7d7c:	2b20      	cmp	r3, #32
    7d7e:	d02d      	beq.n	7ddc <__aeabi_dadd+0x60c>
    7d80:	2540      	movs	r5, #64	; 0x40
    7d82:	1aed      	subs	r5, r5, r3
    7d84:	40ac      	lsls	r4, r5
    7d86:	4327      	orrs	r7, r4
    7d88:	1e7c      	subs	r4, r7, #1
    7d8a:	41a7      	sbcs	r7, r4
    7d8c:	2400      	movs	r4, #0
    7d8e:	4337      	orrs	r7, r6
    7d90:	e6c9      	b.n	7b26 <__aeabi_dadd+0x356>
    7d92:	2480      	movs	r4, #128	; 0x80
    7d94:	2500      	movs	r5, #0
    7d96:	0324      	lsls	r4, r4, #12
    7d98:	4e13      	ldr	r6, [pc, #76]	; (7de8 <__aeabi_dadd+0x618>)
    7d9a:	2700      	movs	r7, #0
    7d9c:	e5dc      	b.n	7958 <__aeabi_dadd+0x188>
    7d9e:	4327      	orrs	r7, r4
    7da0:	1e7c      	subs	r4, r7, #1
    7da2:	41a7      	sbcs	r7, r4
    7da4:	2400      	movs	r4, #0
    7da6:	e779      	b.n	7c9c <__aeabi_dadd+0x4cc>
    7da8:	000c      	movs	r4, r1
    7daa:	0017      	movs	r7, r2
    7dac:	4e0e      	ldr	r6, [pc, #56]	; (7de8 <__aeabi_dadd+0x618>)
    7dae:	e593      	b.n	78d8 <__aeabi_dadd+0x108>
    7db0:	000c      	movs	r4, r1
    7db2:	0017      	movs	r7, r2
    7db4:	e590      	b.n	78d8 <__aeabi_dadd+0x108>
    7db6:	4656      	mov	r6, sl
    7db8:	0023      	movs	r3, r4
    7dba:	3e20      	subs	r6, #32
    7dbc:	40f3      	lsrs	r3, r6
    7dbe:	4699      	mov	r9, r3
    7dc0:	4653      	mov	r3, sl
    7dc2:	2b20      	cmp	r3, #32
    7dc4:	d00e      	beq.n	7de4 <__aeabi_dadd+0x614>
    7dc6:	2340      	movs	r3, #64	; 0x40
    7dc8:	4656      	mov	r6, sl
    7dca:	1b9b      	subs	r3, r3, r6
    7dcc:	409c      	lsls	r4, r3
    7dce:	4327      	orrs	r7, r4
    7dd0:	1e7c      	subs	r4, r7, #1
    7dd2:	41a7      	sbcs	r7, r4
    7dd4:	464b      	mov	r3, r9
    7dd6:	2400      	movs	r4, #0
    7dd8:	431f      	orrs	r7, r3
    7dda:	e75f      	b.n	7c9c <__aeabi_dadd+0x4cc>
    7ddc:	2400      	movs	r4, #0
    7dde:	e7d2      	b.n	7d86 <__aeabi_dadd+0x5b6>
    7de0:	0017      	movs	r7, r2
    7de2:	e5b2      	b.n	794a <__aeabi_dadd+0x17a>
    7de4:	2400      	movs	r4, #0
    7de6:	e7f2      	b.n	7dce <__aeabi_dadd+0x5fe>
    7de8:	000007ff 	.word	0x000007ff
    7dec:	ff7fffff 	.word	0xff7fffff

00007df0 <__aeabi_ddiv>:
    7df0:	b5f0      	push	{r4, r5, r6, r7, lr}
    7df2:	4657      	mov	r7, sl
    7df4:	4645      	mov	r5, r8
    7df6:	46de      	mov	lr, fp
    7df8:	464e      	mov	r6, r9
    7dfa:	b5e0      	push	{r5, r6, r7, lr}
    7dfc:	004c      	lsls	r4, r1, #1
    7dfe:	030e      	lsls	r6, r1, #12
    7e00:	b087      	sub	sp, #28
    7e02:	4683      	mov	fp, r0
    7e04:	4692      	mov	sl, r2
    7e06:	001d      	movs	r5, r3
    7e08:	4680      	mov	r8, r0
    7e0a:	0b36      	lsrs	r6, r6, #12
    7e0c:	0d64      	lsrs	r4, r4, #21
    7e0e:	0fcf      	lsrs	r7, r1, #31
    7e10:	2c00      	cmp	r4, #0
    7e12:	d04f      	beq.n	7eb4 <__aeabi_ddiv+0xc4>
    7e14:	4b6f      	ldr	r3, [pc, #444]	; (7fd4 <__aeabi_ddiv+0x1e4>)
    7e16:	429c      	cmp	r4, r3
    7e18:	d035      	beq.n	7e86 <__aeabi_ddiv+0x96>
    7e1a:	2380      	movs	r3, #128	; 0x80
    7e1c:	0f42      	lsrs	r2, r0, #29
    7e1e:	041b      	lsls	r3, r3, #16
    7e20:	00f6      	lsls	r6, r6, #3
    7e22:	4313      	orrs	r3, r2
    7e24:	4333      	orrs	r3, r6
    7e26:	4699      	mov	r9, r3
    7e28:	00c3      	lsls	r3, r0, #3
    7e2a:	4698      	mov	r8, r3
    7e2c:	4b6a      	ldr	r3, [pc, #424]	; (7fd8 <__aeabi_ddiv+0x1e8>)
    7e2e:	2600      	movs	r6, #0
    7e30:	469c      	mov	ip, r3
    7e32:	2300      	movs	r3, #0
    7e34:	4464      	add	r4, ip
    7e36:	9303      	str	r3, [sp, #12]
    7e38:	032b      	lsls	r3, r5, #12
    7e3a:	0b1b      	lsrs	r3, r3, #12
    7e3c:	469b      	mov	fp, r3
    7e3e:	006b      	lsls	r3, r5, #1
    7e40:	0fed      	lsrs	r5, r5, #31
    7e42:	4650      	mov	r0, sl
    7e44:	0d5b      	lsrs	r3, r3, #21
    7e46:	9501      	str	r5, [sp, #4]
    7e48:	d05e      	beq.n	7f08 <__aeabi_ddiv+0x118>
    7e4a:	4a62      	ldr	r2, [pc, #392]	; (7fd4 <__aeabi_ddiv+0x1e4>)
    7e4c:	4293      	cmp	r3, r2
    7e4e:	d053      	beq.n	7ef8 <__aeabi_ddiv+0x108>
    7e50:	465a      	mov	r2, fp
    7e52:	00d1      	lsls	r1, r2, #3
    7e54:	2280      	movs	r2, #128	; 0x80
    7e56:	0f40      	lsrs	r0, r0, #29
    7e58:	0412      	lsls	r2, r2, #16
    7e5a:	4302      	orrs	r2, r0
    7e5c:	430a      	orrs	r2, r1
    7e5e:	4693      	mov	fp, r2
    7e60:	4652      	mov	r2, sl
    7e62:	00d1      	lsls	r1, r2, #3
    7e64:	4a5c      	ldr	r2, [pc, #368]	; (7fd8 <__aeabi_ddiv+0x1e8>)
    7e66:	4694      	mov	ip, r2
    7e68:	2200      	movs	r2, #0
    7e6a:	4463      	add	r3, ip
    7e6c:	0038      	movs	r0, r7
    7e6e:	4068      	eors	r0, r5
    7e70:	4684      	mov	ip, r0
    7e72:	9002      	str	r0, [sp, #8]
    7e74:	1ae4      	subs	r4, r4, r3
    7e76:	4316      	orrs	r6, r2
    7e78:	2e0f      	cmp	r6, #15
    7e7a:	d900      	bls.n	7e7e <__aeabi_ddiv+0x8e>
    7e7c:	e0b4      	b.n	7fe8 <__aeabi_ddiv+0x1f8>
    7e7e:	4b57      	ldr	r3, [pc, #348]	; (7fdc <__aeabi_ddiv+0x1ec>)
    7e80:	00b6      	lsls	r6, r6, #2
    7e82:	599b      	ldr	r3, [r3, r6]
    7e84:	469f      	mov	pc, r3
    7e86:	0003      	movs	r3, r0
    7e88:	4333      	orrs	r3, r6
    7e8a:	4699      	mov	r9, r3
    7e8c:	d16c      	bne.n	7f68 <__aeabi_ddiv+0x178>
    7e8e:	2300      	movs	r3, #0
    7e90:	4698      	mov	r8, r3
    7e92:	3302      	adds	r3, #2
    7e94:	2608      	movs	r6, #8
    7e96:	9303      	str	r3, [sp, #12]
    7e98:	e7ce      	b.n	7e38 <__aeabi_ddiv+0x48>
    7e9a:	46cb      	mov	fp, r9
    7e9c:	4641      	mov	r1, r8
    7e9e:	9a03      	ldr	r2, [sp, #12]
    7ea0:	9701      	str	r7, [sp, #4]
    7ea2:	2a02      	cmp	r2, #2
    7ea4:	d165      	bne.n	7f72 <__aeabi_ddiv+0x182>
    7ea6:	9b01      	ldr	r3, [sp, #4]
    7ea8:	4c4a      	ldr	r4, [pc, #296]	; (7fd4 <__aeabi_ddiv+0x1e4>)
    7eaa:	469c      	mov	ip, r3
    7eac:	2300      	movs	r3, #0
    7eae:	2200      	movs	r2, #0
    7eb0:	4698      	mov	r8, r3
    7eb2:	e06b      	b.n	7f8c <__aeabi_ddiv+0x19c>
    7eb4:	0003      	movs	r3, r0
    7eb6:	4333      	orrs	r3, r6
    7eb8:	4699      	mov	r9, r3
    7eba:	d04e      	beq.n	7f5a <__aeabi_ddiv+0x16a>
    7ebc:	2e00      	cmp	r6, #0
    7ebe:	d100      	bne.n	7ec2 <__aeabi_ddiv+0xd2>
    7ec0:	e1bc      	b.n	823c <__aeabi_ddiv+0x44c>
    7ec2:	0030      	movs	r0, r6
    7ec4:	f001 f9ea 	bl	929c <__clzsi2>
    7ec8:	0003      	movs	r3, r0
    7eca:	3b0b      	subs	r3, #11
    7ecc:	2b1c      	cmp	r3, #28
    7ece:	dd00      	ble.n	7ed2 <__aeabi_ddiv+0xe2>
    7ed0:	e1ac      	b.n	822c <__aeabi_ddiv+0x43c>
    7ed2:	221d      	movs	r2, #29
    7ed4:	1ad3      	subs	r3, r2, r3
    7ed6:	465a      	mov	r2, fp
    7ed8:	0001      	movs	r1, r0
    7eda:	40da      	lsrs	r2, r3
    7edc:	3908      	subs	r1, #8
    7ede:	408e      	lsls	r6, r1
    7ee0:	0013      	movs	r3, r2
    7ee2:	4333      	orrs	r3, r6
    7ee4:	4699      	mov	r9, r3
    7ee6:	465b      	mov	r3, fp
    7ee8:	408b      	lsls	r3, r1
    7eea:	4698      	mov	r8, r3
    7eec:	2300      	movs	r3, #0
    7eee:	4c3c      	ldr	r4, [pc, #240]	; (7fe0 <__aeabi_ddiv+0x1f0>)
    7ef0:	2600      	movs	r6, #0
    7ef2:	1a24      	subs	r4, r4, r0
    7ef4:	9303      	str	r3, [sp, #12]
    7ef6:	e79f      	b.n	7e38 <__aeabi_ddiv+0x48>
    7ef8:	4651      	mov	r1, sl
    7efa:	465a      	mov	r2, fp
    7efc:	4311      	orrs	r1, r2
    7efe:	d129      	bne.n	7f54 <__aeabi_ddiv+0x164>
    7f00:	2200      	movs	r2, #0
    7f02:	4693      	mov	fp, r2
    7f04:	3202      	adds	r2, #2
    7f06:	e7b1      	b.n	7e6c <__aeabi_ddiv+0x7c>
    7f08:	4659      	mov	r1, fp
    7f0a:	4301      	orrs	r1, r0
    7f0c:	d01e      	beq.n	7f4c <__aeabi_ddiv+0x15c>
    7f0e:	465b      	mov	r3, fp
    7f10:	2b00      	cmp	r3, #0
    7f12:	d100      	bne.n	7f16 <__aeabi_ddiv+0x126>
    7f14:	e19e      	b.n	8254 <__aeabi_ddiv+0x464>
    7f16:	4658      	mov	r0, fp
    7f18:	f001 f9c0 	bl	929c <__clzsi2>
    7f1c:	0003      	movs	r3, r0
    7f1e:	3b0b      	subs	r3, #11
    7f20:	2b1c      	cmp	r3, #28
    7f22:	dd00      	ble.n	7f26 <__aeabi_ddiv+0x136>
    7f24:	e18f      	b.n	8246 <__aeabi_ddiv+0x456>
    7f26:	0002      	movs	r2, r0
    7f28:	4659      	mov	r1, fp
    7f2a:	3a08      	subs	r2, #8
    7f2c:	4091      	lsls	r1, r2
    7f2e:	468b      	mov	fp, r1
    7f30:	211d      	movs	r1, #29
    7f32:	1acb      	subs	r3, r1, r3
    7f34:	4651      	mov	r1, sl
    7f36:	40d9      	lsrs	r1, r3
    7f38:	000b      	movs	r3, r1
    7f3a:	4659      	mov	r1, fp
    7f3c:	430b      	orrs	r3, r1
    7f3e:	4651      	mov	r1, sl
    7f40:	469b      	mov	fp, r3
    7f42:	4091      	lsls	r1, r2
    7f44:	4b26      	ldr	r3, [pc, #152]	; (7fe0 <__aeabi_ddiv+0x1f0>)
    7f46:	2200      	movs	r2, #0
    7f48:	1a1b      	subs	r3, r3, r0
    7f4a:	e78f      	b.n	7e6c <__aeabi_ddiv+0x7c>
    7f4c:	2300      	movs	r3, #0
    7f4e:	2201      	movs	r2, #1
    7f50:	469b      	mov	fp, r3
    7f52:	e78b      	b.n	7e6c <__aeabi_ddiv+0x7c>
    7f54:	4651      	mov	r1, sl
    7f56:	2203      	movs	r2, #3
    7f58:	e788      	b.n	7e6c <__aeabi_ddiv+0x7c>
    7f5a:	2300      	movs	r3, #0
    7f5c:	4698      	mov	r8, r3
    7f5e:	3301      	adds	r3, #1
    7f60:	2604      	movs	r6, #4
    7f62:	2400      	movs	r4, #0
    7f64:	9303      	str	r3, [sp, #12]
    7f66:	e767      	b.n	7e38 <__aeabi_ddiv+0x48>
    7f68:	2303      	movs	r3, #3
    7f6a:	46b1      	mov	r9, r6
    7f6c:	9303      	str	r3, [sp, #12]
    7f6e:	260c      	movs	r6, #12
    7f70:	e762      	b.n	7e38 <__aeabi_ddiv+0x48>
    7f72:	2a03      	cmp	r2, #3
    7f74:	d100      	bne.n	7f78 <__aeabi_ddiv+0x188>
    7f76:	e25c      	b.n	8432 <__aeabi_ddiv+0x642>
    7f78:	9b01      	ldr	r3, [sp, #4]
    7f7a:	2a01      	cmp	r2, #1
    7f7c:	d000      	beq.n	7f80 <__aeabi_ddiv+0x190>
    7f7e:	e1e4      	b.n	834a <__aeabi_ddiv+0x55a>
    7f80:	4013      	ands	r3, r2
    7f82:	469c      	mov	ip, r3
    7f84:	2300      	movs	r3, #0
    7f86:	2400      	movs	r4, #0
    7f88:	2200      	movs	r2, #0
    7f8a:	4698      	mov	r8, r3
    7f8c:	2100      	movs	r1, #0
    7f8e:	0312      	lsls	r2, r2, #12
    7f90:	0b13      	lsrs	r3, r2, #12
    7f92:	0d0a      	lsrs	r2, r1, #20
    7f94:	0512      	lsls	r2, r2, #20
    7f96:	431a      	orrs	r2, r3
    7f98:	0523      	lsls	r3, r4, #20
    7f9a:	4c12      	ldr	r4, [pc, #72]	; (7fe4 <__aeabi_ddiv+0x1f4>)
    7f9c:	4640      	mov	r0, r8
    7f9e:	4022      	ands	r2, r4
    7fa0:	4313      	orrs	r3, r2
    7fa2:	4662      	mov	r2, ip
    7fa4:	005b      	lsls	r3, r3, #1
    7fa6:	07d2      	lsls	r2, r2, #31
    7fa8:	085b      	lsrs	r3, r3, #1
    7faa:	4313      	orrs	r3, r2
    7fac:	0019      	movs	r1, r3
    7fae:	b007      	add	sp, #28
    7fb0:	bc3c      	pop	{r2, r3, r4, r5}
    7fb2:	4690      	mov	r8, r2
    7fb4:	4699      	mov	r9, r3
    7fb6:	46a2      	mov	sl, r4
    7fb8:	46ab      	mov	fp, r5
    7fba:	bdf0      	pop	{r4, r5, r6, r7, pc}
    7fbc:	2300      	movs	r3, #0
    7fbe:	2280      	movs	r2, #128	; 0x80
    7fc0:	469c      	mov	ip, r3
    7fc2:	0312      	lsls	r2, r2, #12
    7fc4:	4698      	mov	r8, r3
    7fc6:	4c03      	ldr	r4, [pc, #12]	; (7fd4 <__aeabi_ddiv+0x1e4>)
    7fc8:	e7e0      	b.n	7f8c <__aeabi_ddiv+0x19c>
    7fca:	2300      	movs	r3, #0
    7fcc:	4c01      	ldr	r4, [pc, #4]	; (7fd4 <__aeabi_ddiv+0x1e4>)
    7fce:	2200      	movs	r2, #0
    7fd0:	4698      	mov	r8, r3
    7fd2:	e7db      	b.n	7f8c <__aeabi_ddiv+0x19c>
    7fd4:	000007ff 	.word	0x000007ff
    7fd8:	fffffc01 	.word	0xfffffc01
    7fdc:	0000bddc 	.word	0x0000bddc
    7fe0:	fffffc0d 	.word	0xfffffc0d
    7fe4:	800fffff 	.word	0x800fffff
    7fe8:	45d9      	cmp	r9, fp
    7fea:	d900      	bls.n	7fee <__aeabi_ddiv+0x1fe>
    7fec:	e139      	b.n	8262 <__aeabi_ddiv+0x472>
    7fee:	d100      	bne.n	7ff2 <__aeabi_ddiv+0x202>
    7ff0:	e134      	b.n	825c <__aeabi_ddiv+0x46c>
    7ff2:	2300      	movs	r3, #0
    7ff4:	4646      	mov	r6, r8
    7ff6:	464d      	mov	r5, r9
    7ff8:	469a      	mov	sl, r3
    7ffa:	3c01      	subs	r4, #1
    7ffc:	465b      	mov	r3, fp
    7ffe:	0e0a      	lsrs	r2, r1, #24
    8000:	021b      	lsls	r3, r3, #8
    8002:	431a      	orrs	r2, r3
    8004:	020b      	lsls	r3, r1, #8
    8006:	0c17      	lsrs	r7, r2, #16
    8008:	9303      	str	r3, [sp, #12]
    800a:	0413      	lsls	r3, r2, #16
    800c:	0c1b      	lsrs	r3, r3, #16
    800e:	0039      	movs	r1, r7
    8010:	0028      	movs	r0, r5
    8012:	4690      	mov	r8, r2
    8014:	9301      	str	r3, [sp, #4]
    8016:	f7ff fa27 	bl	7468 <__udivsi3>
    801a:	0002      	movs	r2, r0
    801c:	9b01      	ldr	r3, [sp, #4]
    801e:	4683      	mov	fp, r0
    8020:	435a      	muls	r2, r3
    8022:	0028      	movs	r0, r5
    8024:	0039      	movs	r1, r7
    8026:	4691      	mov	r9, r2
    8028:	f7ff faa4 	bl	7574 <__aeabi_uidivmod>
    802c:	0c35      	lsrs	r5, r6, #16
    802e:	0409      	lsls	r1, r1, #16
    8030:	430d      	orrs	r5, r1
    8032:	45a9      	cmp	r9, r5
    8034:	d90d      	bls.n	8052 <__aeabi_ddiv+0x262>
    8036:	465b      	mov	r3, fp
    8038:	4445      	add	r5, r8
    803a:	3b01      	subs	r3, #1
    803c:	45a8      	cmp	r8, r5
    803e:	d900      	bls.n	8042 <__aeabi_ddiv+0x252>
    8040:	e13a      	b.n	82b8 <__aeabi_ddiv+0x4c8>
    8042:	45a9      	cmp	r9, r5
    8044:	d800      	bhi.n	8048 <__aeabi_ddiv+0x258>
    8046:	e137      	b.n	82b8 <__aeabi_ddiv+0x4c8>
    8048:	2302      	movs	r3, #2
    804a:	425b      	negs	r3, r3
    804c:	469c      	mov	ip, r3
    804e:	4445      	add	r5, r8
    8050:	44e3      	add	fp, ip
    8052:	464b      	mov	r3, r9
    8054:	1aeb      	subs	r3, r5, r3
    8056:	0039      	movs	r1, r7
    8058:	0018      	movs	r0, r3
    805a:	9304      	str	r3, [sp, #16]
    805c:	f7ff fa04 	bl	7468 <__udivsi3>
    8060:	9b01      	ldr	r3, [sp, #4]
    8062:	0005      	movs	r5, r0
    8064:	4343      	muls	r3, r0
    8066:	0039      	movs	r1, r7
    8068:	9804      	ldr	r0, [sp, #16]
    806a:	4699      	mov	r9, r3
    806c:	f7ff fa82 	bl	7574 <__aeabi_uidivmod>
    8070:	0433      	lsls	r3, r6, #16
    8072:	0409      	lsls	r1, r1, #16
    8074:	0c1b      	lsrs	r3, r3, #16
    8076:	430b      	orrs	r3, r1
    8078:	4599      	cmp	r9, r3
    807a:	d909      	bls.n	8090 <__aeabi_ddiv+0x2a0>
    807c:	4443      	add	r3, r8
    807e:	1e6a      	subs	r2, r5, #1
    8080:	4598      	cmp	r8, r3
    8082:	d900      	bls.n	8086 <__aeabi_ddiv+0x296>
    8084:	e11a      	b.n	82bc <__aeabi_ddiv+0x4cc>
    8086:	4599      	cmp	r9, r3
    8088:	d800      	bhi.n	808c <__aeabi_ddiv+0x29c>
    808a:	e117      	b.n	82bc <__aeabi_ddiv+0x4cc>
    808c:	3d02      	subs	r5, #2
    808e:	4443      	add	r3, r8
    8090:	464a      	mov	r2, r9
    8092:	1a9b      	subs	r3, r3, r2
    8094:	465a      	mov	r2, fp
    8096:	0412      	lsls	r2, r2, #16
    8098:	432a      	orrs	r2, r5
    809a:	9903      	ldr	r1, [sp, #12]
    809c:	4693      	mov	fp, r2
    809e:	0c10      	lsrs	r0, r2, #16
    80a0:	0c0a      	lsrs	r2, r1, #16
    80a2:	4691      	mov	r9, r2
    80a4:	0409      	lsls	r1, r1, #16
    80a6:	465a      	mov	r2, fp
    80a8:	0c09      	lsrs	r1, r1, #16
    80aa:	464e      	mov	r6, r9
    80ac:	000d      	movs	r5, r1
    80ae:	0412      	lsls	r2, r2, #16
    80b0:	0c12      	lsrs	r2, r2, #16
    80b2:	4345      	muls	r5, r0
    80b4:	9105      	str	r1, [sp, #20]
    80b6:	4351      	muls	r1, r2
    80b8:	4372      	muls	r2, r6
    80ba:	4370      	muls	r0, r6
    80bc:	1952      	adds	r2, r2, r5
    80be:	0c0e      	lsrs	r6, r1, #16
    80c0:	18b2      	adds	r2, r6, r2
    80c2:	4295      	cmp	r5, r2
    80c4:	d903      	bls.n	80ce <__aeabi_ddiv+0x2de>
    80c6:	2580      	movs	r5, #128	; 0x80
    80c8:	026d      	lsls	r5, r5, #9
    80ca:	46ac      	mov	ip, r5
    80cc:	4460      	add	r0, ip
    80ce:	0c15      	lsrs	r5, r2, #16
    80d0:	0409      	lsls	r1, r1, #16
    80d2:	0412      	lsls	r2, r2, #16
    80d4:	0c09      	lsrs	r1, r1, #16
    80d6:	1828      	adds	r0, r5, r0
    80d8:	1852      	adds	r2, r2, r1
    80da:	4283      	cmp	r3, r0
    80dc:	d200      	bcs.n	80e0 <__aeabi_ddiv+0x2f0>
    80de:	e0ce      	b.n	827e <__aeabi_ddiv+0x48e>
    80e0:	d100      	bne.n	80e4 <__aeabi_ddiv+0x2f4>
    80e2:	e0c8      	b.n	8276 <__aeabi_ddiv+0x486>
    80e4:	1a1d      	subs	r5, r3, r0
    80e6:	4653      	mov	r3, sl
    80e8:	1a9e      	subs	r6, r3, r2
    80ea:	45b2      	cmp	sl, r6
    80ec:	4192      	sbcs	r2, r2
    80ee:	4252      	negs	r2, r2
    80f0:	1aab      	subs	r3, r5, r2
    80f2:	469a      	mov	sl, r3
    80f4:	4598      	cmp	r8, r3
    80f6:	d100      	bne.n	80fa <__aeabi_ddiv+0x30a>
    80f8:	e117      	b.n	832a <__aeabi_ddiv+0x53a>
    80fa:	0039      	movs	r1, r7
    80fc:	0018      	movs	r0, r3
    80fe:	f7ff f9b3 	bl	7468 <__udivsi3>
    8102:	9b01      	ldr	r3, [sp, #4]
    8104:	0005      	movs	r5, r0
    8106:	4343      	muls	r3, r0
    8108:	0039      	movs	r1, r7
    810a:	4650      	mov	r0, sl
    810c:	9304      	str	r3, [sp, #16]
    810e:	f7ff fa31 	bl	7574 <__aeabi_uidivmod>
    8112:	9804      	ldr	r0, [sp, #16]
    8114:	040b      	lsls	r3, r1, #16
    8116:	0c31      	lsrs	r1, r6, #16
    8118:	4319      	orrs	r1, r3
    811a:	4288      	cmp	r0, r1
    811c:	d909      	bls.n	8132 <__aeabi_ddiv+0x342>
    811e:	4441      	add	r1, r8
    8120:	1e6b      	subs	r3, r5, #1
    8122:	4588      	cmp	r8, r1
    8124:	d900      	bls.n	8128 <__aeabi_ddiv+0x338>
    8126:	e107      	b.n	8338 <__aeabi_ddiv+0x548>
    8128:	4288      	cmp	r0, r1
    812a:	d800      	bhi.n	812e <__aeabi_ddiv+0x33e>
    812c:	e104      	b.n	8338 <__aeabi_ddiv+0x548>
    812e:	3d02      	subs	r5, #2
    8130:	4441      	add	r1, r8
    8132:	9b04      	ldr	r3, [sp, #16]
    8134:	1acb      	subs	r3, r1, r3
    8136:	0018      	movs	r0, r3
    8138:	0039      	movs	r1, r7
    813a:	9304      	str	r3, [sp, #16]
    813c:	f7ff f994 	bl	7468 <__udivsi3>
    8140:	9b01      	ldr	r3, [sp, #4]
    8142:	4682      	mov	sl, r0
    8144:	4343      	muls	r3, r0
    8146:	0039      	movs	r1, r7
    8148:	9804      	ldr	r0, [sp, #16]
    814a:	9301      	str	r3, [sp, #4]
    814c:	f7ff fa12 	bl	7574 <__aeabi_uidivmod>
    8150:	9801      	ldr	r0, [sp, #4]
    8152:	040b      	lsls	r3, r1, #16
    8154:	0431      	lsls	r1, r6, #16
    8156:	0c09      	lsrs	r1, r1, #16
    8158:	4319      	orrs	r1, r3
    815a:	4288      	cmp	r0, r1
    815c:	d90d      	bls.n	817a <__aeabi_ddiv+0x38a>
    815e:	4653      	mov	r3, sl
    8160:	4441      	add	r1, r8
    8162:	3b01      	subs	r3, #1
    8164:	4588      	cmp	r8, r1
    8166:	d900      	bls.n	816a <__aeabi_ddiv+0x37a>
    8168:	e0e8      	b.n	833c <__aeabi_ddiv+0x54c>
    816a:	4288      	cmp	r0, r1
    816c:	d800      	bhi.n	8170 <__aeabi_ddiv+0x380>
    816e:	e0e5      	b.n	833c <__aeabi_ddiv+0x54c>
    8170:	2302      	movs	r3, #2
    8172:	425b      	negs	r3, r3
    8174:	469c      	mov	ip, r3
    8176:	4441      	add	r1, r8
    8178:	44e2      	add	sl, ip
    817a:	9b01      	ldr	r3, [sp, #4]
    817c:	042d      	lsls	r5, r5, #16
    817e:	1ace      	subs	r6, r1, r3
    8180:	4651      	mov	r1, sl
    8182:	4329      	orrs	r1, r5
    8184:	9d05      	ldr	r5, [sp, #20]
    8186:	464f      	mov	r7, r9
    8188:	002a      	movs	r2, r5
    818a:	040b      	lsls	r3, r1, #16
    818c:	0c08      	lsrs	r0, r1, #16
    818e:	0c1b      	lsrs	r3, r3, #16
    8190:	435a      	muls	r2, r3
    8192:	4345      	muls	r5, r0
    8194:	437b      	muls	r3, r7
    8196:	4378      	muls	r0, r7
    8198:	195b      	adds	r3, r3, r5
    819a:	0c17      	lsrs	r7, r2, #16
    819c:	18fb      	adds	r3, r7, r3
    819e:	429d      	cmp	r5, r3
    81a0:	d903      	bls.n	81aa <__aeabi_ddiv+0x3ba>
    81a2:	2580      	movs	r5, #128	; 0x80
    81a4:	026d      	lsls	r5, r5, #9
    81a6:	46ac      	mov	ip, r5
    81a8:	4460      	add	r0, ip
    81aa:	0c1d      	lsrs	r5, r3, #16
    81ac:	0412      	lsls	r2, r2, #16
    81ae:	041b      	lsls	r3, r3, #16
    81b0:	0c12      	lsrs	r2, r2, #16
    81b2:	1828      	adds	r0, r5, r0
    81b4:	189b      	adds	r3, r3, r2
    81b6:	4286      	cmp	r6, r0
    81b8:	d200      	bcs.n	81bc <__aeabi_ddiv+0x3cc>
    81ba:	e093      	b.n	82e4 <__aeabi_ddiv+0x4f4>
    81bc:	d100      	bne.n	81c0 <__aeabi_ddiv+0x3d0>
    81be:	e08e      	b.n	82de <__aeabi_ddiv+0x4ee>
    81c0:	2301      	movs	r3, #1
    81c2:	4319      	orrs	r1, r3
    81c4:	4ba0      	ldr	r3, [pc, #640]	; (8448 <__aeabi_ddiv+0x658>)
    81c6:	18e3      	adds	r3, r4, r3
    81c8:	2b00      	cmp	r3, #0
    81ca:	dc00      	bgt.n	81ce <__aeabi_ddiv+0x3de>
    81cc:	e099      	b.n	8302 <__aeabi_ddiv+0x512>
    81ce:	074a      	lsls	r2, r1, #29
    81d0:	d000      	beq.n	81d4 <__aeabi_ddiv+0x3e4>
    81d2:	e09e      	b.n	8312 <__aeabi_ddiv+0x522>
    81d4:	465a      	mov	r2, fp
    81d6:	01d2      	lsls	r2, r2, #7
    81d8:	d506      	bpl.n	81e8 <__aeabi_ddiv+0x3f8>
    81da:	465a      	mov	r2, fp
    81dc:	4b9b      	ldr	r3, [pc, #620]	; (844c <__aeabi_ddiv+0x65c>)
    81de:	401a      	ands	r2, r3
    81e0:	2380      	movs	r3, #128	; 0x80
    81e2:	4693      	mov	fp, r2
    81e4:	00db      	lsls	r3, r3, #3
    81e6:	18e3      	adds	r3, r4, r3
    81e8:	4a99      	ldr	r2, [pc, #612]	; (8450 <__aeabi_ddiv+0x660>)
    81ea:	4293      	cmp	r3, r2
    81ec:	dd68      	ble.n	82c0 <__aeabi_ddiv+0x4d0>
    81ee:	2301      	movs	r3, #1
    81f0:	9a02      	ldr	r2, [sp, #8]
    81f2:	4c98      	ldr	r4, [pc, #608]	; (8454 <__aeabi_ddiv+0x664>)
    81f4:	401a      	ands	r2, r3
    81f6:	2300      	movs	r3, #0
    81f8:	4694      	mov	ip, r2
    81fa:	4698      	mov	r8, r3
    81fc:	2200      	movs	r2, #0
    81fe:	e6c5      	b.n	7f8c <__aeabi_ddiv+0x19c>
    8200:	2280      	movs	r2, #128	; 0x80
    8202:	464b      	mov	r3, r9
    8204:	0312      	lsls	r2, r2, #12
    8206:	4213      	tst	r3, r2
    8208:	d00a      	beq.n	8220 <__aeabi_ddiv+0x430>
    820a:	465b      	mov	r3, fp
    820c:	4213      	tst	r3, r2
    820e:	d106      	bne.n	821e <__aeabi_ddiv+0x42e>
    8210:	431a      	orrs	r2, r3
    8212:	0312      	lsls	r2, r2, #12
    8214:	0b12      	lsrs	r2, r2, #12
    8216:	46ac      	mov	ip, r5
    8218:	4688      	mov	r8, r1
    821a:	4c8e      	ldr	r4, [pc, #568]	; (8454 <__aeabi_ddiv+0x664>)
    821c:	e6b6      	b.n	7f8c <__aeabi_ddiv+0x19c>
    821e:	464b      	mov	r3, r9
    8220:	431a      	orrs	r2, r3
    8222:	0312      	lsls	r2, r2, #12
    8224:	0b12      	lsrs	r2, r2, #12
    8226:	46bc      	mov	ip, r7
    8228:	4c8a      	ldr	r4, [pc, #552]	; (8454 <__aeabi_ddiv+0x664>)
    822a:	e6af      	b.n	7f8c <__aeabi_ddiv+0x19c>
    822c:	0003      	movs	r3, r0
    822e:	465a      	mov	r2, fp
    8230:	3b28      	subs	r3, #40	; 0x28
    8232:	409a      	lsls	r2, r3
    8234:	2300      	movs	r3, #0
    8236:	4691      	mov	r9, r2
    8238:	4698      	mov	r8, r3
    823a:	e657      	b.n	7eec <__aeabi_ddiv+0xfc>
    823c:	4658      	mov	r0, fp
    823e:	f001 f82d 	bl	929c <__clzsi2>
    8242:	3020      	adds	r0, #32
    8244:	e640      	b.n	7ec8 <__aeabi_ddiv+0xd8>
    8246:	0003      	movs	r3, r0
    8248:	4652      	mov	r2, sl
    824a:	3b28      	subs	r3, #40	; 0x28
    824c:	409a      	lsls	r2, r3
    824e:	2100      	movs	r1, #0
    8250:	4693      	mov	fp, r2
    8252:	e677      	b.n	7f44 <__aeabi_ddiv+0x154>
    8254:	f001 f822 	bl	929c <__clzsi2>
    8258:	3020      	adds	r0, #32
    825a:	e65f      	b.n	7f1c <__aeabi_ddiv+0x12c>
    825c:	4588      	cmp	r8, r1
    825e:	d200      	bcs.n	8262 <__aeabi_ddiv+0x472>
    8260:	e6c7      	b.n	7ff2 <__aeabi_ddiv+0x202>
    8262:	464b      	mov	r3, r9
    8264:	07de      	lsls	r6, r3, #31
    8266:	085d      	lsrs	r5, r3, #1
    8268:	4643      	mov	r3, r8
    826a:	085b      	lsrs	r3, r3, #1
    826c:	431e      	orrs	r6, r3
    826e:	4643      	mov	r3, r8
    8270:	07db      	lsls	r3, r3, #31
    8272:	469a      	mov	sl, r3
    8274:	e6c2      	b.n	7ffc <__aeabi_ddiv+0x20c>
    8276:	2500      	movs	r5, #0
    8278:	4592      	cmp	sl, r2
    827a:	d300      	bcc.n	827e <__aeabi_ddiv+0x48e>
    827c:	e733      	b.n	80e6 <__aeabi_ddiv+0x2f6>
    827e:	9e03      	ldr	r6, [sp, #12]
    8280:	4659      	mov	r1, fp
    8282:	46b4      	mov	ip, r6
    8284:	44e2      	add	sl, ip
    8286:	45b2      	cmp	sl, r6
    8288:	41ad      	sbcs	r5, r5
    828a:	426d      	negs	r5, r5
    828c:	4445      	add	r5, r8
    828e:	18eb      	adds	r3, r5, r3
    8290:	3901      	subs	r1, #1
    8292:	4598      	cmp	r8, r3
    8294:	d207      	bcs.n	82a6 <__aeabi_ddiv+0x4b6>
    8296:	4298      	cmp	r0, r3
    8298:	d900      	bls.n	829c <__aeabi_ddiv+0x4ac>
    829a:	e07f      	b.n	839c <__aeabi_ddiv+0x5ac>
    829c:	d100      	bne.n	82a0 <__aeabi_ddiv+0x4b0>
    829e:	e0bc      	b.n	841a <__aeabi_ddiv+0x62a>
    82a0:	1a1d      	subs	r5, r3, r0
    82a2:	468b      	mov	fp, r1
    82a4:	e71f      	b.n	80e6 <__aeabi_ddiv+0x2f6>
    82a6:	4598      	cmp	r8, r3
    82a8:	d1fa      	bne.n	82a0 <__aeabi_ddiv+0x4b0>
    82aa:	9d03      	ldr	r5, [sp, #12]
    82ac:	4555      	cmp	r5, sl
    82ae:	d9f2      	bls.n	8296 <__aeabi_ddiv+0x4a6>
    82b0:	4643      	mov	r3, r8
    82b2:	468b      	mov	fp, r1
    82b4:	1a1d      	subs	r5, r3, r0
    82b6:	e716      	b.n	80e6 <__aeabi_ddiv+0x2f6>
    82b8:	469b      	mov	fp, r3
    82ba:	e6ca      	b.n	8052 <__aeabi_ddiv+0x262>
    82bc:	0015      	movs	r5, r2
    82be:	e6e7      	b.n	8090 <__aeabi_ddiv+0x2a0>
    82c0:	465a      	mov	r2, fp
    82c2:	08c9      	lsrs	r1, r1, #3
    82c4:	0752      	lsls	r2, r2, #29
    82c6:	430a      	orrs	r2, r1
    82c8:	055b      	lsls	r3, r3, #21
    82ca:	4690      	mov	r8, r2
    82cc:	0d5c      	lsrs	r4, r3, #21
    82ce:	465a      	mov	r2, fp
    82d0:	2301      	movs	r3, #1
    82d2:	9902      	ldr	r1, [sp, #8]
    82d4:	0252      	lsls	r2, r2, #9
    82d6:	4019      	ands	r1, r3
    82d8:	0b12      	lsrs	r2, r2, #12
    82da:	468c      	mov	ip, r1
    82dc:	e656      	b.n	7f8c <__aeabi_ddiv+0x19c>
    82de:	2b00      	cmp	r3, #0
    82e0:	d100      	bne.n	82e4 <__aeabi_ddiv+0x4f4>
    82e2:	e76f      	b.n	81c4 <__aeabi_ddiv+0x3d4>
    82e4:	4446      	add	r6, r8
    82e6:	1e4a      	subs	r2, r1, #1
    82e8:	45b0      	cmp	r8, r6
    82ea:	d929      	bls.n	8340 <__aeabi_ddiv+0x550>
    82ec:	0011      	movs	r1, r2
    82ee:	4286      	cmp	r6, r0
    82f0:	d000      	beq.n	82f4 <__aeabi_ddiv+0x504>
    82f2:	e765      	b.n	81c0 <__aeabi_ddiv+0x3d0>
    82f4:	9a03      	ldr	r2, [sp, #12]
    82f6:	4293      	cmp	r3, r2
    82f8:	d000      	beq.n	82fc <__aeabi_ddiv+0x50c>
    82fa:	e761      	b.n	81c0 <__aeabi_ddiv+0x3d0>
    82fc:	e762      	b.n	81c4 <__aeabi_ddiv+0x3d4>
    82fe:	2101      	movs	r1, #1
    8300:	4249      	negs	r1, r1
    8302:	2001      	movs	r0, #1
    8304:	1ac2      	subs	r2, r0, r3
    8306:	2a38      	cmp	r2, #56	; 0x38
    8308:	dd21      	ble.n	834e <__aeabi_ddiv+0x55e>
    830a:	9b02      	ldr	r3, [sp, #8]
    830c:	4003      	ands	r3, r0
    830e:	469c      	mov	ip, r3
    8310:	e638      	b.n	7f84 <__aeabi_ddiv+0x194>
    8312:	220f      	movs	r2, #15
    8314:	400a      	ands	r2, r1
    8316:	2a04      	cmp	r2, #4
    8318:	d100      	bne.n	831c <__aeabi_ddiv+0x52c>
    831a:	e75b      	b.n	81d4 <__aeabi_ddiv+0x3e4>
    831c:	000a      	movs	r2, r1
    831e:	1d11      	adds	r1, r2, #4
    8320:	4291      	cmp	r1, r2
    8322:	4192      	sbcs	r2, r2
    8324:	4252      	negs	r2, r2
    8326:	4493      	add	fp, r2
    8328:	e754      	b.n	81d4 <__aeabi_ddiv+0x3e4>
    832a:	4b47      	ldr	r3, [pc, #284]	; (8448 <__aeabi_ddiv+0x658>)
    832c:	18e3      	adds	r3, r4, r3
    832e:	2b00      	cmp	r3, #0
    8330:	dde5      	ble.n	82fe <__aeabi_ddiv+0x50e>
    8332:	2201      	movs	r2, #1
    8334:	4252      	negs	r2, r2
    8336:	e7f2      	b.n	831e <__aeabi_ddiv+0x52e>
    8338:	001d      	movs	r5, r3
    833a:	e6fa      	b.n	8132 <__aeabi_ddiv+0x342>
    833c:	469a      	mov	sl, r3
    833e:	e71c      	b.n	817a <__aeabi_ddiv+0x38a>
    8340:	42b0      	cmp	r0, r6
    8342:	d839      	bhi.n	83b8 <__aeabi_ddiv+0x5c8>
    8344:	d06e      	beq.n	8424 <__aeabi_ddiv+0x634>
    8346:	0011      	movs	r1, r2
    8348:	e73a      	b.n	81c0 <__aeabi_ddiv+0x3d0>
    834a:	9302      	str	r3, [sp, #8]
    834c:	e73a      	b.n	81c4 <__aeabi_ddiv+0x3d4>
    834e:	2a1f      	cmp	r2, #31
    8350:	dc3c      	bgt.n	83cc <__aeabi_ddiv+0x5dc>
    8352:	2320      	movs	r3, #32
    8354:	1a9b      	subs	r3, r3, r2
    8356:	000c      	movs	r4, r1
    8358:	4658      	mov	r0, fp
    835a:	4099      	lsls	r1, r3
    835c:	4098      	lsls	r0, r3
    835e:	1e4b      	subs	r3, r1, #1
    8360:	4199      	sbcs	r1, r3
    8362:	465b      	mov	r3, fp
    8364:	40d4      	lsrs	r4, r2
    8366:	40d3      	lsrs	r3, r2
    8368:	4320      	orrs	r0, r4
    836a:	4308      	orrs	r0, r1
    836c:	001a      	movs	r2, r3
    836e:	0743      	lsls	r3, r0, #29
    8370:	d009      	beq.n	8386 <__aeabi_ddiv+0x596>
    8372:	230f      	movs	r3, #15
    8374:	4003      	ands	r3, r0
    8376:	2b04      	cmp	r3, #4
    8378:	d005      	beq.n	8386 <__aeabi_ddiv+0x596>
    837a:	0001      	movs	r1, r0
    837c:	1d08      	adds	r0, r1, #4
    837e:	4288      	cmp	r0, r1
    8380:	419b      	sbcs	r3, r3
    8382:	425b      	negs	r3, r3
    8384:	18d2      	adds	r2, r2, r3
    8386:	0213      	lsls	r3, r2, #8
    8388:	d53a      	bpl.n	8400 <__aeabi_ddiv+0x610>
    838a:	2301      	movs	r3, #1
    838c:	9a02      	ldr	r2, [sp, #8]
    838e:	2401      	movs	r4, #1
    8390:	401a      	ands	r2, r3
    8392:	2300      	movs	r3, #0
    8394:	4694      	mov	ip, r2
    8396:	4698      	mov	r8, r3
    8398:	2200      	movs	r2, #0
    839a:	e5f7      	b.n	7f8c <__aeabi_ddiv+0x19c>
    839c:	2102      	movs	r1, #2
    839e:	4249      	negs	r1, r1
    83a0:	468c      	mov	ip, r1
    83a2:	9d03      	ldr	r5, [sp, #12]
    83a4:	44e3      	add	fp, ip
    83a6:	46ac      	mov	ip, r5
    83a8:	44e2      	add	sl, ip
    83aa:	45aa      	cmp	sl, r5
    83ac:	41ad      	sbcs	r5, r5
    83ae:	426d      	negs	r5, r5
    83b0:	4445      	add	r5, r8
    83b2:	18ed      	adds	r5, r5, r3
    83b4:	1a2d      	subs	r5, r5, r0
    83b6:	e696      	b.n	80e6 <__aeabi_ddiv+0x2f6>
    83b8:	1e8a      	subs	r2, r1, #2
    83ba:	9903      	ldr	r1, [sp, #12]
    83bc:	004d      	lsls	r5, r1, #1
    83be:	428d      	cmp	r5, r1
    83c0:	4189      	sbcs	r1, r1
    83c2:	4249      	negs	r1, r1
    83c4:	4441      	add	r1, r8
    83c6:	1876      	adds	r6, r6, r1
    83c8:	9503      	str	r5, [sp, #12]
    83ca:	e78f      	b.n	82ec <__aeabi_ddiv+0x4fc>
    83cc:	201f      	movs	r0, #31
    83ce:	4240      	negs	r0, r0
    83d0:	1ac3      	subs	r3, r0, r3
    83d2:	4658      	mov	r0, fp
    83d4:	40d8      	lsrs	r0, r3
    83d6:	0003      	movs	r3, r0
    83d8:	2a20      	cmp	r2, #32
    83da:	d028      	beq.n	842e <__aeabi_ddiv+0x63e>
    83dc:	2040      	movs	r0, #64	; 0x40
    83de:	465d      	mov	r5, fp
    83e0:	1a82      	subs	r2, r0, r2
    83e2:	4095      	lsls	r5, r2
    83e4:	4329      	orrs	r1, r5
    83e6:	1e4a      	subs	r2, r1, #1
    83e8:	4191      	sbcs	r1, r2
    83ea:	4319      	orrs	r1, r3
    83ec:	2307      	movs	r3, #7
    83ee:	2200      	movs	r2, #0
    83f0:	400b      	ands	r3, r1
    83f2:	d009      	beq.n	8408 <__aeabi_ddiv+0x618>
    83f4:	230f      	movs	r3, #15
    83f6:	2200      	movs	r2, #0
    83f8:	400b      	ands	r3, r1
    83fa:	0008      	movs	r0, r1
    83fc:	2b04      	cmp	r3, #4
    83fe:	d1bd      	bne.n	837c <__aeabi_ddiv+0x58c>
    8400:	0001      	movs	r1, r0
    8402:	0753      	lsls	r3, r2, #29
    8404:	0252      	lsls	r2, r2, #9
    8406:	0b12      	lsrs	r2, r2, #12
    8408:	08c9      	lsrs	r1, r1, #3
    840a:	4319      	orrs	r1, r3
    840c:	2301      	movs	r3, #1
    840e:	4688      	mov	r8, r1
    8410:	9902      	ldr	r1, [sp, #8]
    8412:	2400      	movs	r4, #0
    8414:	4019      	ands	r1, r3
    8416:	468c      	mov	ip, r1
    8418:	e5b8      	b.n	7f8c <__aeabi_ddiv+0x19c>
    841a:	4552      	cmp	r2, sl
    841c:	d8be      	bhi.n	839c <__aeabi_ddiv+0x5ac>
    841e:	468b      	mov	fp, r1
    8420:	2500      	movs	r5, #0
    8422:	e660      	b.n	80e6 <__aeabi_ddiv+0x2f6>
    8424:	9d03      	ldr	r5, [sp, #12]
    8426:	429d      	cmp	r5, r3
    8428:	d3c6      	bcc.n	83b8 <__aeabi_ddiv+0x5c8>
    842a:	0011      	movs	r1, r2
    842c:	e762      	b.n	82f4 <__aeabi_ddiv+0x504>
    842e:	2500      	movs	r5, #0
    8430:	e7d8      	b.n	83e4 <__aeabi_ddiv+0x5f4>
    8432:	2280      	movs	r2, #128	; 0x80
    8434:	465b      	mov	r3, fp
    8436:	0312      	lsls	r2, r2, #12
    8438:	431a      	orrs	r2, r3
    843a:	9b01      	ldr	r3, [sp, #4]
    843c:	0312      	lsls	r2, r2, #12
    843e:	0b12      	lsrs	r2, r2, #12
    8440:	469c      	mov	ip, r3
    8442:	4688      	mov	r8, r1
    8444:	4c03      	ldr	r4, [pc, #12]	; (8454 <__aeabi_ddiv+0x664>)
    8446:	e5a1      	b.n	7f8c <__aeabi_ddiv+0x19c>
    8448:	000003ff 	.word	0x000003ff
    844c:	feffffff 	.word	0xfeffffff
    8450:	000007fe 	.word	0x000007fe
    8454:	000007ff 	.word	0x000007ff

00008458 <__eqdf2>:
    8458:	b5f0      	push	{r4, r5, r6, r7, lr}
    845a:	464f      	mov	r7, r9
    845c:	4646      	mov	r6, r8
    845e:	46d6      	mov	lr, sl
    8460:	005c      	lsls	r4, r3, #1
    8462:	b5c0      	push	{r6, r7, lr}
    8464:	031f      	lsls	r7, r3, #12
    8466:	0fdb      	lsrs	r3, r3, #31
    8468:	469a      	mov	sl, r3
    846a:	4b17      	ldr	r3, [pc, #92]	; (84c8 <__eqdf2+0x70>)
    846c:	030e      	lsls	r6, r1, #12
    846e:	004d      	lsls	r5, r1, #1
    8470:	4684      	mov	ip, r0
    8472:	4680      	mov	r8, r0
    8474:	0b36      	lsrs	r6, r6, #12
    8476:	0d6d      	lsrs	r5, r5, #21
    8478:	0fc9      	lsrs	r1, r1, #31
    847a:	4691      	mov	r9, r2
    847c:	0b3f      	lsrs	r7, r7, #12
    847e:	0d64      	lsrs	r4, r4, #21
    8480:	2001      	movs	r0, #1
    8482:	429d      	cmp	r5, r3
    8484:	d008      	beq.n	8498 <__eqdf2+0x40>
    8486:	429c      	cmp	r4, r3
    8488:	d001      	beq.n	848e <__eqdf2+0x36>
    848a:	42a5      	cmp	r5, r4
    848c:	d00b      	beq.n	84a6 <__eqdf2+0x4e>
    848e:	bc1c      	pop	{r2, r3, r4}
    8490:	4690      	mov	r8, r2
    8492:	4699      	mov	r9, r3
    8494:	46a2      	mov	sl, r4
    8496:	bdf0      	pop	{r4, r5, r6, r7, pc}
    8498:	4663      	mov	r3, ip
    849a:	4333      	orrs	r3, r6
    849c:	d1f7      	bne.n	848e <__eqdf2+0x36>
    849e:	42ac      	cmp	r4, r5
    84a0:	d1f5      	bne.n	848e <__eqdf2+0x36>
    84a2:	433a      	orrs	r2, r7
    84a4:	d1f3      	bne.n	848e <__eqdf2+0x36>
    84a6:	2001      	movs	r0, #1
    84a8:	42be      	cmp	r6, r7
    84aa:	d1f0      	bne.n	848e <__eqdf2+0x36>
    84ac:	45c8      	cmp	r8, r9
    84ae:	d1ee      	bne.n	848e <__eqdf2+0x36>
    84b0:	4551      	cmp	r1, sl
    84b2:	d007      	beq.n	84c4 <__eqdf2+0x6c>
    84b4:	2d00      	cmp	r5, #0
    84b6:	d1ea      	bne.n	848e <__eqdf2+0x36>
    84b8:	4663      	mov	r3, ip
    84ba:	431e      	orrs	r6, r3
    84bc:	0030      	movs	r0, r6
    84be:	1e46      	subs	r6, r0, #1
    84c0:	41b0      	sbcs	r0, r6
    84c2:	e7e4      	b.n	848e <__eqdf2+0x36>
    84c4:	2000      	movs	r0, #0
    84c6:	e7e2      	b.n	848e <__eqdf2+0x36>
    84c8:	000007ff 	.word	0x000007ff

000084cc <__gedf2>:
    84cc:	b5f0      	push	{r4, r5, r6, r7, lr}
    84ce:	4645      	mov	r5, r8
    84d0:	46de      	mov	lr, fp
    84d2:	4657      	mov	r7, sl
    84d4:	464e      	mov	r6, r9
    84d6:	b5e0      	push	{r5, r6, r7, lr}
    84d8:	031f      	lsls	r7, r3, #12
    84da:	0b3d      	lsrs	r5, r7, #12
    84dc:	4f2c      	ldr	r7, [pc, #176]	; (8590 <__gedf2+0xc4>)
    84de:	030e      	lsls	r6, r1, #12
    84e0:	004c      	lsls	r4, r1, #1
    84e2:	46ab      	mov	fp, r5
    84e4:	005d      	lsls	r5, r3, #1
    84e6:	4684      	mov	ip, r0
    84e8:	0b36      	lsrs	r6, r6, #12
    84ea:	0d64      	lsrs	r4, r4, #21
    84ec:	0fc9      	lsrs	r1, r1, #31
    84ee:	4690      	mov	r8, r2
    84f0:	0d6d      	lsrs	r5, r5, #21
    84f2:	0fdb      	lsrs	r3, r3, #31
    84f4:	42bc      	cmp	r4, r7
    84f6:	d02a      	beq.n	854e <__gedf2+0x82>
    84f8:	4f25      	ldr	r7, [pc, #148]	; (8590 <__gedf2+0xc4>)
    84fa:	42bd      	cmp	r5, r7
    84fc:	d02d      	beq.n	855a <__gedf2+0x8e>
    84fe:	2c00      	cmp	r4, #0
    8500:	d10f      	bne.n	8522 <__gedf2+0x56>
    8502:	4330      	orrs	r0, r6
    8504:	0007      	movs	r7, r0
    8506:	4681      	mov	r9, r0
    8508:	4278      	negs	r0, r7
    850a:	4178      	adcs	r0, r7
    850c:	b2c0      	uxtb	r0, r0
    850e:	2d00      	cmp	r5, #0
    8510:	d117      	bne.n	8542 <__gedf2+0x76>
    8512:	465f      	mov	r7, fp
    8514:	433a      	orrs	r2, r7
    8516:	d114      	bne.n	8542 <__gedf2+0x76>
    8518:	464b      	mov	r3, r9
    851a:	2000      	movs	r0, #0
    851c:	2b00      	cmp	r3, #0
    851e:	d00a      	beq.n	8536 <__gedf2+0x6a>
    8520:	e006      	b.n	8530 <__gedf2+0x64>
    8522:	2d00      	cmp	r5, #0
    8524:	d102      	bne.n	852c <__gedf2+0x60>
    8526:	4658      	mov	r0, fp
    8528:	4302      	orrs	r2, r0
    852a:	d001      	beq.n	8530 <__gedf2+0x64>
    852c:	4299      	cmp	r1, r3
    852e:	d018      	beq.n	8562 <__gedf2+0x96>
    8530:	4248      	negs	r0, r1
    8532:	2101      	movs	r1, #1
    8534:	4308      	orrs	r0, r1
    8536:	bc3c      	pop	{r2, r3, r4, r5}
    8538:	4690      	mov	r8, r2
    853a:	4699      	mov	r9, r3
    853c:	46a2      	mov	sl, r4
    853e:	46ab      	mov	fp, r5
    8540:	bdf0      	pop	{r4, r5, r6, r7, pc}
    8542:	2800      	cmp	r0, #0
    8544:	d0f2      	beq.n	852c <__gedf2+0x60>
    8546:	2001      	movs	r0, #1
    8548:	3b01      	subs	r3, #1
    854a:	4318      	orrs	r0, r3
    854c:	e7f3      	b.n	8536 <__gedf2+0x6a>
    854e:	0037      	movs	r7, r6
    8550:	4307      	orrs	r7, r0
    8552:	d0d1      	beq.n	84f8 <__gedf2+0x2c>
    8554:	2002      	movs	r0, #2
    8556:	4240      	negs	r0, r0
    8558:	e7ed      	b.n	8536 <__gedf2+0x6a>
    855a:	465f      	mov	r7, fp
    855c:	4317      	orrs	r7, r2
    855e:	d0ce      	beq.n	84fe <__gedf2+0x32>
    8560:	e7f8      	b.n	8554 <__gedf2+0x88>
    8562:	42ac      	cmp	r4, r5
    8564:	dce4      	bgt.n	8530 <__gedf2+0x64>
    8566:	da03      	bge.n	8570 <__gedf2+0xa4>
    8568:	1e48      	subs	r0, r1, #1
    856a:	2101      	movs	r1, #1
    856c:	4308      	orrs	r0, r1
    856e:	e7e2      	b.n	8536 <__gedf2+0x6a>
    8570:	455e      	cmp	r6, fp
    8572:	d8dd      	bhi.n	8530 <__gedf2+0x64>
    8574:	d006      	beq.n	8584 <__gedf2+0xb8>
    8576:	2000      	movs	r0, #0
    8578:	455e      	cmp	r6, fp
    857a:	d2dc      	bcs.n	8536 <__gedf2+0x6a>
    857c:	2301      	movs	r3, #1
    857e:	1e48      	subs	r0, r1, #1
    8580:	4318      	orrs	r0, r3
    8582:	e7d8      	b.n	8536 <__gedf2+0x6a>
    8584:	45c4      	cmp	ip, r8
    8586:	d8d3      	bhi.n	8530 <__gedf2+0x64>
    8588:	2000      	movs	r0, #0
    858a:	45c4      	cmp	ip, r8
    858c:	d3f6      	bcc.n	857c <__gedf2+0xb0>
    858e:	e7d2      	b.n	8536 <__gedf2+0x6a>
    8590:	000007ff 	.word	0x000007ff

00008594 <__ledf2>:
    8594:	b5f0      	push	{r4, r5, r6, r7, lr}
    8596:	464e      	mov	r6, r9
    8598:	4645      	mov	r5, r8
    859a:	46de      	mov	lr, fp
    859c:	4657      	mov	r7, sl
    859e:	005c      	lsls	r4, r3, #1
    85a0:	b5e0      	push	{r5, r6, r7, lr}
    85a2:	031f      	lsls	r7, r3, #12
    85a4:	0fdb      	lsrs	r3, r3, #31
    85a6:	4699      	mov	r9, r3
    85a8:	4b2a      	ldr	r3, [pc, #168]	; (8654 <__ledf2+0xc0>)
    85aa:	030e      	lsls	r6, r1, #12
    85ac:	004d      	lsls	r5, r1, #1
    85ae:	0fc9      	lsrs	r1, r1, #31
    85b0:	4684      	mov	ip, r0
    85b2:	0b36      	lsrs	r6, r6, #12
    85b4:	0d6d      	lsrs	r5, r5, #21
    85b6:	468b      	mov	fp, r1
    85b8:	4690      	mov	r8, r2
    85ba:	0b3f      	lsrs	r7, r7, #12
    85bc:	0d64      	lsrs	r4, r4, #21
    85be:	429d      	cmp	r5, r3
    85c0:	d020      	beq.n	8604 <__ledf2+0x70>
    85c2:	4b24      	ldr	r3, [pc, #144]	; (8654 <__ledf2+0xc0>)
    85c4:	429c      	cmp	r4, r3
    85c6:	d022      	beq.n	860e <__ledf2+0x7a>
    85c8:	2d00      	cmp	r5, #0
    85ca:	d112      	bne.n	85f2 <__ledf2+0x5e>
    85cc:	4330      	orrs	r0, r6
    85ce:	4243      	negs	r3, r0
    85d0:	4143      	adcs	r3, r0
    85d2:	b2db      	uxtb	r3, r3
    85d4:	2c00      	cmp	r4, #0
    85d6:	d01f      	beq.n	8618 <__ledf2+0x84>
    85d8:	2b00      	cmp	r3, #0
    85da:	d00c      	beq.n	85f6 <__ledf2+0x62>
    85dc:	464b      	mov	r3, r9
    85de:	2001      	movs	r0, #1
    85e0:	3b01      	subs	r3, #1
    85e2:	4303      	orrs	r3, r0
    85e4:	0018      	movs	r0, r3
    85e6:	bc3c      	pop	{r2, r3, r4, r5}
    85e8:	4690      	mov	r8, r2
    85ea:	4699      	mov	r9, r3
    85ec:	46a2      	mov	sl, r4
    85ee:	46ab      	mov	fp, r5
    85f0:	bdf0      	pop	{r4, r5, r6, r7, pc}
    85f2:	2c00      	cmp	r4, #0
    85f4:	d016      	beq.n	8624 <__ledf2+0x90>
    85f6:	45cb      	cmp	fp, r9
    85f8:	d017      	beq.n	862a <__ledf2+0x96>
    85fa:	465b      	mov	r3, fp
    85fc:	4259      	negs	r1, r3
    85fe:	2301      	movs	r3, #1
    8600:	430b      	orrs	r3, r1
    8602:	e7ef      	b.n	85e4 <__ledf2+0x50>
    8604:	0031      	movs	r1, r6
    8606:	2302      	movs	r3, #2
    8608:	4301      	orrs	r1, r0
    860a:	d1eb      	bne.n	85e4 <__ledf2+0x50>
    860c:	e7d9      	b.n	85c2 <__ledf2+0x2e>
    860e:	0039      	movs	r1, r7
    8610:	2302      	movs	r3, #2
    8612:	4311      	orrs	r1, r2
    8614:	d1e6      	bne.n	85e4 <__ledf2+0x50>
    8616:	e7d7      	b.n	85c8 <__ledf2+0x34>
    8618:	433a      	orrs	r2, r7
    861a:	d1dd      	bne.n	85d8 <__ledf2+0x44>
    861c:	2300      	movs	r3, #0
    861e:	2800      	cmp	r0, #0
    8620:	d0e0      	beq.n	85e4 <__ledf2+0x50>
    8622:	e7ea      	b.n	85fa <__ledf2+0x66>
    8624:	433a      	orrs	r2, r7
    8626:	d1e6      	bne.n	85f6 <__ledf2+0x62>
    8628:	e7e7      	b.n	85fa <__ledf2+0x66>
    862a:	42a5      	cmp	r5, r4
    862c:	dce5      	bgt.n	85fa <__ledf2+0x66>
    862e:	db05      	blt.n	863c <__ledf2+0xa8>
    8630:	42be      	cmp	r6, r7
    8632:	d8e2      	bhi.n	85fa <__ledf2+0x66>
    8634:	d007      	beq.n	8646 <__ledf2+0xb2>
    8636:	2300      	movs	r3, #0
    8638:	42be      	cmp	r6, r7
    863a:	d2d3      	bcs.n	85e4 <__ledf2+0x50>
    863c:	4659      	mov	r1, fp
    863e:	2301      	movs	r3, #1
    8640:	3901      	subs	r1, #1
    8642:	430b      	orrs	r3, r1
    8644:	e7ce      	b.n	85e4 <__ledf2+0x50>
    8646:	45c4      	cmp	ip, r8
    8648:	d8d7      	bhi.n	85fa <__ledf2+0x66>
    864a:	2300      	movs	r3, #0
    864c:	45c4      	cmp	ip, r8
    864e:	d3f5      	bcc.n	863c <__ledf2+0xa8>
    8650:	e7c8      	b.n	85e4 <__ledf2+0x50>
    8652:	46c0      	nop			; (mov r8, r8)
    8654:	000007ff 	.word	0x000007ff

00008658 <__aeabi_dmul>:
    8658:	b5f0      	push	{r4, r5, r6, r7, lr}
    865a:	4657      	mov	r7, sl
    865c:	4645      	mov	r5, r8
    865e:	46de      	mov	lr, fp
    8660:	464e      	mov	r6, r9
    8662:	b5e0      	push	{r5, r6, r7, lr}
    8664:	030c      	lsls	r4, r1, #12
    8666:	4698      	mov	r8, r3
    8668:	004e      	lsls	r6, r1, #1
    866a:	0b23      	lsrs	r3, r4, #12
    866c:	b087      	sub	sp, #28
    866e:	0007      	movs	r7, r0
    8670:	4692      	mov	sl, r2
    8672:	469b      	mov	fp, r3
    8674:	0d76      	lsrs	r6, r6, #21
    8676:	0fcd      	lsrs	r5, r1, #31
    8678:	2e00      	cmp	r6, #0
    867a:	d06b      	beq.n	8754 <__aeabi_dmul+0xfc>
    867c:	4b6d      	ldr	r3, [pc, #436]	; (8834 <__aeabi_dmul+0x1dc>)
    867e:	429e      	cmp	r6, r3
    8680:	d035      	beq.n	86ee <__aeabi_dmul+0x96>
    8682:	2480      	movs	r4, #128	; 0x80
    8684:	465b      	mov	r3, fp
    8686:	0f42      	lsrs	r2, r0, #29
    8688:	0424      	lsls	r4, r4, #16
    868a:	00db      	lsls	r3, r3, #3
    868c:	4314      	orrs	r4, r2
    868e:	431c      	orrs	r4, r3
    8690:	00c3      	lsls	r3, r0, #3
    8692:	4699      	mov	r9, r3
    8694:	4b68      	ldr	r3, [pc, #416]	; (8838 <__aeabi_dmul+0x1e0>)
    8696:	46a3      	mov	fp, r4
    8698:	469c      	mov	ip, r3
    869a:	2300      	movs	r3, #0
    869c:	2700      	movs	r7, #0
    869e:	4466      	add	r6, ip
    86a0:	9302      	str	r3, [sp, #8]
    86a2:	4643      	mov	r3, r8
    86a4:	031c      	lsls	r4, r3, #12
    86a6:	005a      	lsls	r2, r3, #1
    86a8:	0fdb      	lsrs	r3, r3, #31
    86aa:	4650      	mov	r0, sl
    86ac:	0b24      	lsrs	r4, r4, #12
    86ae:	0d52      	lsrs	r2, r2, #21
    86b0:	4698      	mov	r8, r3
    86b2:	d100      	bne.n	86b6 <__aeabi_dmul+0x5e>
    86b4:	e076      	b.n	87a4 <__aeabi_dmul+0x14c>
    86b6:	4b5f      	ldr	r3, [pc, #380]	; (8834 <__aeabi_dmul+0x1dc>)
    86b8:	429a      	cmp	r2, r3
    86ba:	d06d      	beq.n	8798 <__aeabi_dmul+0x140>
    86bc:	2380      	movs	r3, #128	; 0x80
    86be:	0f41      	lsrs	r1, r0, #29
    86c0:	041b      	lsls	r3, r3, #16
    86c2:	430b      	orrs	r3, r1
    86c4:	495c      	ldr	r1, [pc, #368]	; (8838 <__aeabi_dmul+0x1e0>)
    86c6:	00e4      	lsls	r4, r4, #3
    86c8:	468c      	mov	ip, r1
    86ca:	431c      	orrs	r4, r3
    86cc:	00c3      	lsls	r3, r0, #3
    86ce:	2000      	movs	r0, #0
    86d0:	4462      	add	r2, ip
    86d2:	4641      	mov	r1, r8
    86d4:	18b6      	adds	r6, r6, r2
    86d6:	4069      	eors	r1, r5
    86d8:	1c72      	adds	r2, r6, #1
    86da:	9101      	str	r1, [sp, #4]
    86dc:	4694      	mov	ip, r2
    86de:	4307      	orrs	r7, r0
    86e0:	2f0f      	cmp	r7, #15
    86e2:	d900      	bls.n	86e6 <__aeabi_dmul+0x8e>
    86e4:	e0b0      	b.n	8848 <__aeabi_dmul+0x1f0>
    86e6:	4a55      	ldr	r2, [pc, #340]	; (883c <__aeabi_dmul+0x1e4>)
    86e8:	00bf      	lsls	r7, r7, #2
    86ea:	59d2      	ldr	r2, [r2, r7]
    86ec:	4697      	mov	pc, r2
    86ee:	465b      	mov	r3, fp
    86f0:	4303      	orrs	r3, r0
    86f2:	4699      	mov	r9, r3
    86f4:	d000      	beq.n	86f8 <__aeabi_dmul+0xa0>
    86f6:	e087      	b.n	8808 <__aeabi_dmul+0x1b0>
    86f8:	2300      	movs	r3, #0
    86fa:	469b      	mov	fp, r3
    86fc:	3302      	adds	r3, #2
    86fe:	2708      	movs	r7, #8
    8700:	9302      	str	r3, [sp, #8]
    8702:	e7ce      	b.n	86a2 <__aeabi_dmul+0x4a>
    8704:	4642      	mov	r2, r8
    8706:	9201      	str	r2, [sp, #4]
    8708:	2802      	cmp	r0, #2
    870a:	d067      	beq.n	87dc <__aeabi_dmul+0x184>
    870c:	2803      	cmp	r0, #3
    870e:	d100      	bne.n	8712 <__aeabi_dmul+0xba>
    8710:	e20e      	b.n	8b30 <__aeabi_dmul+0x4d8>
    8712:	2801      	cmp	r0, #1
    8714:	d000      	beq.n	8718 <__aeabi_dmul+0xc0>
    8716:	e162      	b.n	89de <__aeabi_dmul+0x386>
    8718:	2300      	movs	r3, #0
    871a:	2400      	movs	r4, #0
    871c:	2200      	movs	r2, #0
    871e:	4699      	mov	r9, r3
    8720:	9901      	ldr	r1, [sp, #4]
    8722:	4001      	ands	r1, r0
    8724:	b2cd      	uxtb	r5, r1
    8726:	2100      	movs	r1, #0
    8728:	0312      	lsls	r2, r2, #12
    872a:	0d0b      	lsrs	r3, r1, #20
    872c:	0b12      	lsrs	r2, r2, #12
    872e:	051b      	lsls	r3, r3, #20
    8730:	4313      	orrs	r3, r2
    8732:	4a43      	ldr	r2, [pc, #268]	; (8840 <__aeabi_dmul+0x1e8>)
    8734:	0524      	lsls	r4, r4, #20
    8736:	4013      	ands	r3, r2
    8738:	431c      	orrs	r4, r3
    873a:	0064      	lsls	r4, r4, #1
    873c:	07ed      	lsls	r5, r5, #31
    873e:	0864      	lsrs	r4, r4, #1
    8740:	432c      	orrs	r4, r5
    8742:	4648      	mov	r0, r9
    8744:	0021      	movs	r1, r4
    8746:	b007      	add	sp, #28
    8748:	bc3c      	pop	{r2, r3, r4, r5}
    874a:	4690      	mov	r8, r2
    874c:	4699      	mov	r9, r3
    874e:	46a2      	mov	sl, r4
    8750:	46ab      	mov	fp, r5
    8752:	bdf0      	pop	{r4, r5, r6, r7, pc}
    8754:	4303      	orrs	r3, r0
    8756:	4699      	mov	r9, r3
    8758:	d04f      	beq.n	87fa <__aeabi_dmul+0x1a2>
    875a:	465b      	mov	r3, fp
    875c:	2b00      	cmp	r3, #0
    875e:	d100      	bne.n	8762 <__aeabi_dmul+0x10a>
    8760:	e189      	b.n	8a76 <__aeabi_dmul+0x41e>
    8762:	4658      	mov	r0, fp
    8764:	f000 fd9a 	bl	929c <__clzsi2>
    8768:	0003      	movs	r3, r0
    876a:	3b0b      	subs	r3, #11
    876c:	2b1c      	cmp	r3, #28
    876e:	dd00      	ble.n	8772 <__aeabi_dmul+0x11a>
    8770:	e17a      	b.n	8a68 <__aeabi_dmul+0x410>
    8772:	221d      	movs	r2, #29
    8774:	1ad3      	subs	r3, r2, r3
    8776:	003a      	movs	r2, r7
    8778:	0001      	movs	r1, r0
    877a:	465c      	mov	r4, fp
    877c:	40da      	lsrs	r2, r3
    877e:	3908      	subs	r1, #8
    8780:	408c      	lsls	r4, r1
    8782:	0013      	movs	r3, r2
    8784:	408f      	lsls	r7, r1
    8786:	4323      	orrs	r3, r4
    8788:	469b      	mov	fp, r3
    878a:	46b9      	mov	r9, r7
    878c:	2300      	movs	r3, #0
    878e:	4e2d      	ldr	r6, [pc, #180]	; (8844 <__aeabi_dmul+0x1ec>)
    8790:	2700      	movs	r7, #0
    8792:	1a36      	subs	r6, r6, r0
    8794:	9302      	str	r3, [sp, #8]
    8796:	e784      	b.n	86a2 <__aeabi_dmul+0x4a>
    8798:	4653      	mov	r3, sl
    879a:	4323      	orrs	r3, r4
    879c:	d12a      	bne.n	87f4 <__aeabi_dmul+0x19c>
    879e:	2400      	movs	r4, #0
    87a0:	2002      	movs	r0, #2
    87a2:	e796      	b.n	86d2 <__aeabi_dmul+0x7a>
    87a4:	4653      	mov	r3, sl
    87a6:	4323      	orrs	r3, r4
    87a8:	d020      	beq.n	87ec <__aeabi_dmul+0x194>
    87aa:	2c00      	cmp	r4, #0
    87ac:	d100      	bne.n	87b0 <__aeabi_dmul+0x158>
    87ae:	e157      	b.n	8a60 <__aeabi_dmul+0x408>
    87b0:	0020      	movs	r0, r4
    87b2:	f000 fd73 	bl	929c <__clzsi2>
    87b6:	0003      	movs	r3, r0
    87b8:	3b0b      	subs	r3, #11
    87ba:	2b1c      	cmp	r3, #28
    87bc:	dd00      	ble.n	87c0 <__aeabi_dmul+0x168>
    87be:	e149      	b.n	8a54 <__aeabi_dmul+0x3fc>
    87c0:	211d      	movs	r1, #29
    87c2:	1acb      	subs	r3, r1, r3
    87c4:	4651      	mov	r1, sl
    87c6:	0002      	movs	r2, r0
    87c8:	40d9      	lsrs	r1, r3
    87ca:	4653      	mov	r3, sl
    87cc:	3a08      	subs	r2, #8
    87ce:	4094      	lsls	r4, r2
    87d0:	4093      	lsls	r3, r2
    87d2:	430c      	orrs	r4, r1
    87d4:	4a1b      	ldr	r2, [pc, #108]	; (8844 <__aeabi_dmul+0x1ec>)
    87d6:	1a12      	subs	r2, r2, r0
    87d8:	2000      	movs	r0, #0
    87da:	e77a      	b.n	86d2 <__aeabi_dmul+0x7a>
    87dc:	2501      	movs	r5, #1
    87de:	9b01      	ldr	r3, [sp, #4]
    87e0:	4c14      	ldr	r4, [pc, #80]	; (8834 <__aeabi_dmul+0x1dc>)
    87e2:	401d      	ands	r5, r3
    87e4:	2300      	movs	r3, #0
    87e6:	2200      	movs	r2, #0
    87e8:	4699      	mov	r9, r3
    87ea:	e79c      	b.n	8726 <__aeabi_dmul+0xce>
    87ec:	2400      	movs	r4, #0
    87ee:	2200      	movs	r2, #0
    87f0:	2001      	movs	r0, #1
    87f2:	e76e      	b.n	86d2 <__aeabi_dmul+0x7a>
    87f4:	4653      	mov	r3, sl
    87f6:	2003      	movs	r0, #3
    87f8:	e76b      	b.n	86d2 <__aeabi_dmul+0x7a>
    87fa:	2300      	movs	r3, #0
    87fc:	469b      	mov	fp, r3
    87fe:	3301      	adds	r3, #1
    8800:	2704      	movs	r7, #4
    8802:	2600      	movs	r6, #0
    8804:	9302      	str	r3, [sp, #8]
    8806:	e74c      	b.n	86a2 <__aeabi_dmul+0x4a>
    8808:	2303      	movs	r3, #3
    880a:	4681      	mov	r9, r0
    880c:	270c      	movs	r7, #12
    880e:	9302      	str	r3, [sp, #8]
    8810:	e747      	b.n	86a2 <__aeabi_dmul+0x4a>
    8812:	2280      	movs	r2, #128	; 0x80
    8814:	2300      	movs	r3, #0
    8816:	2500      	movs	r5, #0
    8818:	0312      	lsls	r2, r2, #12
    881a:	4699      	mov	r9, r3
    881c:	4c05      	ldr	r4, [pc, #20]	; (8834 <__aeabi_dmul+0x1dc>)
    881e:	e782      	b.n	8726 <__aeabi_dmul+0xce>
    8820:	465c      	mov	r4, fp
    8822:	464b      	mov	r3, r9
    8824:	9802      	ldr	r0, [sp, #8]
    8826:	e76f      	b.n	8708 <__aeabi_dmul+0xb0>
    8828:	465c      	mov	r4, fp
    882a:	464b      	mov	r3, r9
    882c:	9501      	str	r5, [sp, #4]
    882e:	9802      	ldr	r0, [sp, #8]
    8830:	e76a      	b.n	8708 <__aeabi_dmul+0xb0>
    8832:	46c0      	nop			; (mov r8, r8)
    8834:	000007ff 	.word	0x000007ff
    8838:	fffffc01 	.word	0xfffffc01
    883c:	0000be1c 	.word	0x0000be1c
    8840:	800fffff 	.word	0x800fffff
    8844:	fffffc0d 	.word	0xfffffc0d
    8848:	464a      	mov	r2, r9
    884a:	4649      	mov	r1, r9
    884c:	0c17      	lsrs	r7, r2, #16
    884e:	0c1a      	lsrs	r2, r3, #16
    8850:	041b      	lsls	r3, r3, #16
    8852:	0c1b      	lsrs	r3, r3, #16
    8854:	0408      	lsls	r0, r1, #16
    8856:	0019      	movs	r1, r3
    8858:	0c00      	lsrs	r0, r0, #16
    885a:	4341      	muls	r1, r0
    885c:	0015      	movs	r5, r2
    885e:	4688      	mov	r8, r1
    8860:	0019      	movs	r1, r3
    8862:	437d      	muls	r5, r7
    8864:	4379      	muls	r1, r7
    8866:	9503      	str	r5, [sp, #12]
    8868:	4689      	mov	r9, r1
    886a:	0029      	movs	r1, r5
    886c:	0015      	movs	r5, r2
    886e:	4345      	muls	r5, r0
    8870:	444d      	add	r5, r9
    8872:	9502      	str	r5, [sp, #8]
    8874:	4645      	mov	r5, r8
    8876:	0c2d      	lsrs	r5, r5, #16
    8878:	46aa      	mov	sl, r5
    887a:	9d02      	ldr	r5, [sp, #8]
    887c:	4455      	add	r5, sl
    887e:	45a9      	cmp	r9, r5
    8880:	d906      	bls.n	8890 <__aeabi_dmul+0x238>
    8882:	468a      	mov	sl, r1
    8884:	2180      	movs	r1, #128	; 0x80
    8886:	0249      	lsls	r1, r1, #9
    8888:	4689      	mov	r9, r1
    888a:	44ca      	add	sl, r9
    888c:	4651      	mov	r1, sl
    888e:	9103      	str	r1, [sp, #12]
    8890:	0c29      	lsrs	r1, r5, #16
    8892:	9104      	str	r1, [sp, #16]
    8894:	4641      	mov	r1, r8
    8896:	0409      	lsls	r1, r1, #16
    8898:	042d      	lsls	r5, r5, #16
    889a:	0c09      	lsrs	r1, r1, #16
    889c:	4688      	mov	r8, r1
    889e:	0029      	movs	r1, r5
    88a0:	0c25      	lsrs	r5, r4, #16
    88a2:	0424      	lsls	r4, r4, #16
    88a4:	4441      	add	r1, r8
    88a6:	0c24      	lsrs	r4, r4, #16
    88a8:	9105      	str	r1, [sp, #20]
    88aa:	0021      	movs	r1, r4
    88ac:	4341      	muls	r1, r0
    88ae:	4688      	mov	r8, r1
    88b0:	0021      	movs	r1, r4
    88b2:	4379      	muls	r1, r7
    88b4:	468a      	mov	sl, r1
    88b6:	4368      	muls	r0, r5
    88b8:	4641      	mov	r1, r8
    88ba:	4450      	add	r0, sl
    88bc:	4681      	mov	r9, r0
    88be:	0c08      	lsrs	r0, r1, #16
    88c0:	4448      	add	r0, r9
    88c2:	436f      	muls	r7, r5
    88c4:	4582      	cmp	sl, r0
    88c6:	d903      	bls.n	88d0 <__aeabi_dmul+0x278>
    88c8:	2180      	movs	r1, #128	; 0x80
    88ca:	0249      	lsls	r1, r1, #9
    88cc:	4689      	mov	r9, r1
    88ce:	444f      	add	r7, r9
    88d0:	0c01      	lsrs	r1, r0, #16
    88d2:	4689      	mov	r9, r1
    88d4:	0039      	movs	r1, r7
    88d6:	4449      	add	r1, r9
    88d8:	9102      	str	r1, [sp, #8]
    88da:	4641      	mov	r1, r8
    88dc:	040f      	lsls	r7, r1, #16
    88de:	9904      	ldr	r1, [sp, #16]
    88e0:	0c3f      	lsrs	r7, r7, #16
    88e2:	4688      	mov	r8, r1
    88e4:	0400      	lsls	r0, r0, #16
    88e6:	19c0      	adds	r0, r0, r7
    88e8:	4480      	add	r8, r0
    88ea:	4641      	mov	r1, r8
    88ec:	9104      	str	r1, [sp, #16]
    88ee:	4659      	mov	r1, fp
    88f0:	0c0f      	lsrs	r7, r1, #16
    88f2:	0409      	lsls	r1, r1, #16
    88f4:	0c09      	lsrs	r1, r1, #16
    88f6:	4688      	mov	r8, r1
    88f8:	4359      	muls	r1, r3
    88fa:	468a      	mov	sl, r1
    88fc:	0039      	movs	r1, r7
    88fe:	4351      	muls	r1, r2
    8900:	4689      	mov	r9, r1
    8902:	4641      	mov	r1, r8
    8904:	434a      	muls	r2, r1
    8906:	4651      	mov	r1, sl
    8908:	0c09      	lsrs	r1, r1, #16
    890a:	468b      	mov	fp, r1
    890c:	437b      	muls	r3, r7
    890e:	18d2      	adds	r2, r2, r3
    8910:	445a      	add	r2, fp
    8912:	4293      	cmp	r3, r2
    8914:	d903      	bls.n	891e <__aeabi_dmul+0x2c6>
    8916:	2380      	movs	r3, #128	; 0x80
    8918:	025b      	lsls	r3, r3, #9
    891a:	469b      	mov	fp, r3
    891c:	44d9      	add	r9, fp
    891e:	4651      	mov	r1, sl
    8920:	0409      	lsls	r1, r1, #16
    8922:	0c09      	lsrs	r1, r1, #16
    8924:	468a      	mov	sl, r1
    8926:	4641      	mov	r1, r8
    8928:	4361      	muls	r1, r4
    892a:	437c      	muls	r4, r7
    892c:	0c13      	lsrs	r3, r2, #16
    892e:	0412      	lsls	r2, r2, #16
    8930:	444b      	add	r3, r9
    8932:	4452      	add	r2, sl
    8934:	46a1      	mov	r9, r4
    8936:	468a      	mov	sl, r1
    8938:	003c      	movs	r4, r7
    893a:	4641      	mov	r1, r8
    893c:	436c      	muls	r4, r5
    893e:	434d      	muls	r5, r1
    8940:	4651      	mov	r1, sl
    8942:	444d      	add	r5, r9
    8944:	0c0f      	lsrs	r7, r1, #16
    8946:	197d      	adds	r5, r7, r5
    8948:	45a9      	cmp	r9, r5
    894a:	d903      	bls.n	8954 <__aeabi_dmul+0x2fc>
    894c:	2180      	movs	r1, #128	; 0x80
    894e:	0249      	lsls	r1, r1, #9
    8950:	4688      	mov	r8, r1
    8952:	4444      	add	r4, r8
    8954:	9f04      	ldr	r7, [sp, #16]
    8956:	9903      	ldr	r1, [sp, #12]
    8958:	46b8      	mov	r8, r7
    895a:	4441      	add	r1, r8
    895c:	468b      	mov	fp, r1
    895e:	4583      	cmp	fp, r0
    8960:	4180      	sbcs	r0, r0
    8962:	4241      	negs	r1, r0
    8964:	4688      	mov	r8, r1
    8966:	4651      	mov	r1, sl
    8968:	0408      	lsls	r0, r1, #16
    896a:	042f      	lsls	r7, r5, #16
    896c:	0c00      	lsrs	r0, r0, #16
    896e:	183f      	adds	r7, r7, r0
    8970:	4658      	mov	r0, fp
    8972:	9902      	ldr	r1, [sp, #8]
    8974:	1810      	adds	r0, r2, r0
    8976:	4689      	mov	r9, r1
    8978:	4290      	cmp	r0, r2
    897a:	4192      	sbcs	r2, r2
    897c:	444f      	add	r7, r9
    897e:	46ba      	mov	sl, r7
    8980:	4252      	negs	r2, r2
    8982:	4699      	mov	r9, r3
    8984:	4693      	mov	fp, r2
    8986:	44c2      	add	sl, r8
    8988:	44d1      	add	r9, sl
    898a:	44cb      	add	fp, r9
    898c:	428f      	cmp	r7, r1
    898e:	41bf      	sbcs	r7, r7
    8990:	45c2      	cmp	sl, r8
    8992:	4189      	sbcs	r1, r1
    8994:	4599      	cmp	r9, r3
    8996:	419b      	sbcs	r3, r3
    8998:	4593      	cmp	fp, r2
    899a:	4192      	sbcs	r2, r2
    899c:	427f      	negs	r7, r7
    899e:	4249      	negs	r1, r1
    89a0:	0c2d      	lsrs	r5, r5, #16
    89a2:	4252      	negs	r2, r2
    89a4:	430f      	orrs	r7, r1
    89a6:	425b      	negs	r3, r3
    89a8:	4313      	orrs	r3, r2
    89aa:	197f      	adds	r7, r7, r5
    89ac:	18ff      	adds	r7, r7, r3
    89ae:	465b      	mov	r3, fp
    89b0:	193c      	adds	r4, r7, r4
    89b2:	0ddb      	lsrs	r3, r3, #23
    89b4:	9a05      	ldr	r2, [sp, #20]
    89b6:	0264      	lsls	r4, r4, #9
    89b8:	431c      	orrs	r4, r3
    89ba:	0243      	lsls	r3, r0, #9
    89bc:	4313      	orrs	r3, r2
    89be:	1e5d      	subs	r5, r3, #1
    89c0:	41ab      	sbcs	r3, r5
    89c2:	465a      	mov	r2, fp
    89c4:	0dc0      	lsrs	r0, r0, #23
    89c6:	4303      	orrs	r3, r0
    89c8:	0252      	lsls	r2, r2, #9
    89ca:	4313      	orrs	r3, r2
    89cc:	01e2      	lsls	r2, r4, #7
    89ce:	d556      	bpl.n	8a7e <__aeabi_dmul+0x426>
    89d0:	2001      	movs	r0, #1
    89d2:	085a      	lsrs	r2, r3, #1
    89d4:	4003      	ands	r3, r0
    89d6:	4313      	orrs	r3, r2
    89d8:	07e2      	lsls	r2, r4, #31
    89da:	4313      	orrs	r3, r2
    89dc:	0864      	lsrs	r4, r4, #1
    89de:	485a      	ldr	r0, [pc, #360]	; (8b48 <__aeabi_dmul+0x4f0>)
    89e0:	4460      	add	r0, ip
    89e2:	2800      	cmp	r0, #0
    89e4:	dd4d      	ble.n	8a82 <__aeabi_dmul+0x42a>
    89e6:	075a      	lsls	r2, r3, #29
    89e8:	d009      	beq.n	89fe <__aeabi_dmul+0x3a6>
    89ea:	220f      	movs	r2, #15
    89ec:	401a      	ands	r2, r3
    89ee:	2a04      	cmp	r2, #4
    89f0:	d005      	beq.n	89fe <__aeabi_dmul+0x3a6>
    89f2:	1d1a      	adds	r2, r3, #4
    89f4:	429a      	cmp	r2, r3
    89f6:	419b      	sbcs	r3, r3
    89f8:	425b      	negs	r3, r3
    89fa:	18e4      	adds	r4, r4, r3
    89fc:	0013      	movs	r3, r2
    89fe:	01e2      	lsls	r2, r4, #7
    8a00:	d504      	bpl.n	8a0c <__aeabi_dmul+0x3b4>
    8a02:	2080      	movs	r0, #128	; 0x80
    8a04:	4a51      	ldr	r2, [pc, #324]	; (8b4c <__aeabi_dmul+0x4f4>)
    8a06:	00c0      	lsls	r0, r0, #3
    8a08:	4014      	ands	r4, r2
    8a0a:	4460      	add	r0, ip
    8a0c:	4a50      	ldr	r2, [pc, #320]	; (8b50 <__aeabi_dmul+0x4f8>)
    8a0e:	4290      	cmp	r0, r2
    8a10:	dd00      	ble.n	8a14 <__aeabi_dmul+0x3bc>
    8a12:	e6e3      	b.n	87dc <__aeabi_dmul+0x184>
    8a14:	2501      	movs	r5, #1
    8a16:	08db      	lsrs	r3, r3, #3
    8a18:	0762      	lsls	r2, r4, #29
    8a1a:	431a      	orrs	r2, r3
    8a1c:	0264      	lsls	r4, r4, #9
    8a1e:	9b01      	ldr	r3, [sp, #4]
    8a20:	4691      	mov	r9, r2
    8a22:	0b22      	lsrs	r2, r4, #12
    8a24:	0544      	lsls	r4, r0, #21
    8a26:	0d64      	lsrs	r4, r4, #21
    8a28:	401d      	ands	r5, r3
    8a2a:	e67c      	b.n	8726 <__aeabi_dmul+0xce>
    8a2c:	2280      	movs	r2, #128	; 0x80
    8a2e:	4659      	mov	r1, fp
    8a30:	0312      	lsls	r2, r2, #12
    8a32:	4211      	tst	r1, r2
    8a34:	d008      	beq.n	8a48 <__aeabi_dmul+0x3f0>
    8a36:	4214      	tst	r4, r2
    8a38:	d106      	bne.n	8a48 <__aeabi_dmul+0x3f0>
    8a3a:	4322      	orrs	r2, r4
    8a3c:	0312      	lsls	r2, r2, #12
    8a3e:	0b12      	lsrs	r2, r2, #12
    8a40:	4645      	mov	r5, r8
    8a42:	4699      	mov	r9, r3
    8a44:	4c43      	ldr	r4, [pc, #268]	; (8b54 <__aeabi_dmul+0x4fc>)
    8a46:	e66e      	b.n	8726 <__aeabi_dmul+0xce>
    8a48:	465b      	mov	r3, fp
    8a4a:	431a      	orrs	r2, r3
    8a4c:	0312      	lsls	r2, r2, #12
    8a4e:	0b12      	lsrs	r2, r2, #12
    8a50:	4c40      	ldr	r4, [pc, #256]	; (8b54 <__aeabi_dmul+0x4fc>)
    8a52:	e668      	b.n	8726 <__aeabi_dmul+0xce>
    8a54:	0003      	movs	r3, r0
    8a56:	4654      	mov	r4, sl
    8a58:	3b28      	subs	r3, #40	; 0x28
    8a5a:	409c      	lsls	r4, r3
    8a5c:	2300      	movs	r3, #0
    8a5e:	e6b9      	b.n	87d4 <__aeabi_dmul+0x17c>
    8a60:	f000 fc1c 	bl	929c <__clzsi2>
    8a64:	3020      	adds	r0, #32
    8a66:	e6a6      	b.n	87b6 <__aeabi_dmul+0x15e>
    8a68:	0003      	movs	r3, r0
    8a6a:	3b28      	subs	r3, #40	; 0x28
    8a6c:	409f      	lsls	r7, r3
    8a6e:	2300      	movs	r3, #0
    8a70:	46bb      	mov	fp, r7
    8a72:	4699      	mov	r9, r3
    8a74:	e68a      	b.n	878c <__aeabi_dmul+0x134>
    8a76:	f000 fc11 	bl	929c <__clzsi2>
    8a7a:	3020      	adds	r0, #32
    8a7c:	e674      	b.n	8768 <__aeabi_dmul+0x110>
    8a7e:	46b4      	mov	ip, r6
    8a80:	e7ad      	b.n	89de <__aeabi_dmul+0x386>
    8a82:	2501      	movs	r5, #1
    8a84:	1a2a      	subs	r2, r5, r0
    8a86:	2a38      	cmp	r2, #56	; 0x38
    8a88:	dd06      	ble.n	8a98 <__aeabi_dmul+0x440>
    8a8a:	9b01      	ldr	r3, [sp, #4]
    8a8c:	2400      	movs	r4, #0
    8a8e:	401d      	ands	r5, r3
    8a90:	2300      	movs	r3, #0
    8a92:	2200      	movs	r2, #0
    8a94:	4699      	mov	r9, r3
    8a96:	e646      	b.n	8726 <__aeabi_dmul+0xce>
    8a98:	2a1f      	cmp	r2, #31
    8a9a:	dc21      	bgt.n	8ae0 <__aeabi_dmul+0x488>
    8a9c:	2520      	movs	r5, #32
    8a9e:	0020      	movs	r0, r4
    8aa0:	1aad      	subs	r5, r5, r2
    8aa2:	001e      	movs	r6, r3
    8aa4:	40ab      	lsls	r3, r5
    8aa6:	40a8      	lsls	r0, r5
    8aa8:	40d6      	lsrs	r6, r2
    8aaa:	1e5d      	subs	r5, r3, #1
    8aac:	41ab      	sbcs	r3, r5
    8aae:	4330      	orrs	r0, r6
    8ab0:	4318      	orrs	r0, r3
    8ab2:	40d4      	lsrs	r4, r2
    8ab4:	0743      	lsls	r3, r0, #29
    8ab6:	d009      	beq.n	8acc <__aeabi_dmul+0x474>
    8ab8:	230f      	movs	r3, #15
    8aba:	4003      	ands	r3, r0
    8abc:	2b04      	cmp	r3, #4
    8abe:	d005      	beq.n	8acc <__aeabi_dmul+0x474>
    8ac0:	0003      	movs	r3, r0
    8ac2:	1d18      	adds	r0, r3, #4
    8ac4:	4298      	cmp	r0, r3
    8ac6:	419b      	sbcs	r3, r3
    8ac8:	425b      	negs	r3, r3
    8aca:	18e4      	adds	r4, r4, r3
    8acc:	0223      	lsls	r3, r4, #8
    8ace:	d521      	bpl.n	8b14 <__aeabi_dmul+0x4bc>
    8ad0:	2501      	movs	r5, #1
    8ad2:	9b01      	ldr	r3, [sp, #4]
    8ad4:	2401      	movs	r4, #1
    8ad6:	401d      	ands	r5, r3
    8ad8:	2300      	movs	r3, #0
    8ada:	2200      	movs	r2, #0
    8adc:	4699      	mov	r9, r3
    8ade:	e622      	b.n	8726 <__aeabi_dmul+0xce>
    8ae0:	251f      	movs	r5, #31
    8ae2:	0021      	movs	r1, r4
    8ae4:	426d      	negs	r5, r5
    8ae6:	1a28      	subs	r0, r5, r0
    8ae8:	40c1      	lsrs	r1, r0
    8aea:	0008      	movs	r0, r1
    8aec:	2a20      	cmp	r2, #32
    8aee:	d01d      	beq.n	8b2c <__aeabi_dmul+0x4d4>
    8af0:	355f      	adds	r5, #95	; 0x5f
    8af2:	1aaa      	subs	r2, r5, r2
    8af4:	4094      	lsls	r4, r2
    8af6:	4323      	orrs	r3, r4
    8af8:	1e5c      	subs	r4, r3, #1
    8afa:	41a3      	sbcs	r3, r4
    8afc:	2507      	movs	r5, #7
    8afe:	4303      	orrs	r3, r0
    8b00:	401d      	ands	r5, r3
    8b02:	2200      	movs	r2, #0
    8b04:	2d00      	cmp	r5, #0
    8b06:	d009      	beq.n	8b1c <__aeabi_dmul+0x4c4>
    8b08:	220f      	movs	r2, #15
    8b0a:	2400      	movs	r4, #0
    8b0c:	401a      	ands	r2, r3
    8b0e:	0018      	movs	r0, r3
    8b10:	2a04      	cmp	r2, #4
    8b12:	d1d6      	bne.n	8ac2 <__aeabi_dmul+0x46a>
    8b14:	0003      	movs	r3, r0
    8b16:	0765      	lsls	r5, r4, #29
    8b18:	0264      	lsls	r4, r4, #9
    8b1a:	0b22      	lsrs	r2, r4, #12
    8b1c:	08db      	lsrs	r3, r3, #3
    8b1e:	432b      	orrs	r3, r5
    8b20:	2501      	movs	r5, #1
    8b22:	4699      	mov	r9, r3
    8b24:	9b01      	ldr	r3, [sp, #4]
    8b26:	2400      	movs	r4, #0
    8b28:	401d      	ands	r5, r3
    8b2a:	e5fc      	b.n	8726 <__aeabi_dmul+0xce>
    8b2c:	2400      	movs	r4, #0
    8b2e:	e7e2      	b.n	8af6 <__aeabi_dmul+0x49e>
    8b30:	2280      	movs	r2, #128	; 0x80
    8b32:	2501      	movs	r5, #1
    8b34:	0312      	lsls	r2, r2, #12
    8b36:	4322      	orrs	r2, r4
    8b38:	9901      	ldr	r1, [sp, #4]
    8b3a:	0312      	lsls	r2, r2, #12
    8b3c:	0b12      	lsrs	r2, r2, #12
    8b3e:	400d      	ands	r5, r1
    8b40:	4699      	mov	r9, r3
    8b42:	4c04      	ldr	r4, [pc, #16]	; (8b54 <__aeabi_dmul+0x4fc>)
    8b44:	e5ef      	b.n	8726 <__aeabi_dmul+0xce>
    8b46:	46c0      	nop			; (mov r8, r8)
    8b48:	000003ff 	.word	0x000003ff
    8b4c:	feffffff 	.word	0xfeffffff
    8b50:	000007fe 	.word	0x000007fe
    8b54:	000007ff 	.word	0x000007ff

00008b58 <__aeabi_dsub>:
    8b58:	b5f0      	push	{r4, r5, r6, r7, lr}
    8b5a:	4646      	mov	r6, r8
    8b5c:	46d6      	mov	lr, sl
    8b5e:	464f      	mov	r7, r9
    8b60:	030c      	lsls	r4, r1, #12
    8b62:	b5c0      	push	{r6, r7, lr}
    8b64:	0fcd      	lsrs	r5, r1, #31
    8b66:	004e      	lsls	r6, r1, #1
    8b68:	0a61      	lsrs	r1, r4, #9
    8b6a:	0f44      	lsrs	r4, r0, #29
    8b6c:	430c      	orrs	r4, r1
    8b6e:	00c1      	lsls	r1, r0, #3
    8b70:	0058      	lsls	r0, r3, #1
    8b72:	0d40      	lsrs	r0, r0, #21
    8b74:	4684      	mov	ip, r0
    8b76:	468a      	mov	sl, r1
    8b78:	000f      	movs	r7, r1
    8b7a:	0319      	lsls	r1, r3, #12
    8b7c:	0f50      	lsrs	r0, r2, #29
    8b7e:	0a49      	lsrs	r1, r1, #9
    8b80:	4301      	orrs	r1, r0
    8b82:	48c6      	ldr	r0, [pc, #792]	; (8e9c <__aeabi_dsub+0x344>)
    8b84:	0d76      	lsrs	r6, r6, #21
    8b86:	46a8      	mov	r8, r5
    8b88:	0fdb      	lsrs	r3, r3, #31
    8b8a:	00d2      	lsls	r2, r2, #3
    8b8c:	4584      	cmp	ip, r0
    8b8e:	d100      	bne.n	8b92 <__aeabi_dsub+0x3a>
    8b90:	e0d8      	b.n	8d44 <__aeabi_dsub+0x1ec>
    8b92:	2001      	movs	r0, #1
    8b94:	4043      	eors	r3, r0
    8b96:	42ab      	cmp	r3, r5
    8b98:	d100      	bne.n	8b9c <__aeabi_dsub+0x44>
    8b9a:	e0a6      	b.n	8cea <__aeabi_dsub+0x192>
    8b9c:	4660      	mov	r0, ip
    8b9e:	1a35      	subs	r5, r6, r0
    8ba0:	2d00      	cmp	r5, #0
    8ba2:	dc00      	bgt.n	8ba6 <__aeabi_dsub+0x4e>
    8ba4:	e105      	b.n	8db2 <__aeabi_dsub+0x25a>
    8ba6:	2800      	cmp	r0, #0
    8ba8:	d110      	bne.n	8bcc <__aeabi_dsub+0x74>
    8baa:	000b      	movs	r3, r1
    8bac:	4313      	orrs	r3, r2
    8bae:	d100      	bne.n	8bb2 <__aeabi_dsub+0x5a>
    8bb0:	e0d7      	b.n	8d62 <__aeabi_dsub+0x20a>
    8bb2:	1e6b      	subs	r3, r5, #1
    8bb4:	2b00      	cmp	r3, #0
    8bb6:	d000      	beq.n	8bba <__aeabi_dsub+0x62>
    8bb8:	e14b      	b.n	8e52 <__aeabi_dsub+0x2fa>
    8bba:	4653      	mov	r3, sl
    8bbc:	1a9f      	subs	r7, r3, r2
    8bbe:	45ba      	cmp	sl, r7
    8bc0:	4180      	sbcs	r0, r0
    8bc2:	1a64      	subs	r4, r4, r1
    8bc4:	4240      	negs	r0, r0
    8bc6:	1a24      	subs	r4, r4, r0
    8bc8:	2601      	movs	r6, #1
    8bca:	e01e      	b.n	8c0a <__aeabi_dsub+0xb2>
    8bcc:	4bb3      	ldr	r3, [pc, #716]	; (8e9c <__aeabi_dsub+0x344>)
    8bce:	429e      	cmp	r6, r3
    8bd0:	d048      	beq.n	8c64 <__aeabi_dsub+0x10c>
    8bd2:	2380      	movs	r3, #128	; 0x80
    8bd4:	041b      	lsls	r3, r3, #16
    8bd6:	4319      	orrs	r1, r3
    8bd8:	2d38      	cmp	r5, #56	; 0x38
    8bda:	dd00      	ble.n	8bde <__aeabi_dsub+0x86>
    8bdc:	e119      	b.n	8e12 <__aeabi_dsub+0x2ba>
    8bde:	2d1f      	cmp	r5, #31
    8be0:	dd00      	ble.n	8be4 <__aeabi_dsub+0x8c>
    8be2:	e14c      	b.n	8e7e <__aeabi_dsub+0x326>
    8be4:	2320      	movs	r3, #32
    8be6:	000f      	movs	r7, r1
    8be8:	1b5b      	subs	r3, r3, r5
    8bea:	0010      	movs	r0, r2
    8bec:	409a      	lsls	r2, r3
    8bee:	409f      	lsls	r7, r3
    8bf0:	40e8      	lsrs	r0, r5
    8bf2:	1e53      	subs	r3, r2, #1
    8bf4:	419a      	sbcs	r2, r3
    8bf6:	40e9      	lsrs	r1, r5
    8bf8:	4307      	orrs	r7, r0
    8bfa:	4317      	orrs	r7, r2
    8bfc:	4653      	mov	r3, sl
    8bfe:	1bdf      	subs	r7, r3, r7
    8c00:	1a61      	subs	r1, r4, r1
    8c02:	45ba      	cmp	sl, r7
    8c04:	41a4      	sbcs	r4, r4
    8c06:	4264      	negs	r4, r4
    8c08:	1b0c      	subs	r4, r1, r4
    8c0a:	0223      	lsls	r3, r4, #8
    8c0c:	d400      	bmi.n	8c10 <__aeabi_dsub+0xb8>
    8c0e:	e0c5      	b.n	8d9c <__aeabi_dsub+0x244>
    8c10:	0264      	lsls	r4, r4, #9
    8c12:	0a65      	lsrs	r5, r4, #9
    8c14:	2d00      	cmp	r5, #0
    8c16:	d100      	bne.n	8c1a <__aeabi_dsub+0xc2>
    8c18:	e0f6      	b.n	8e08 <__aeabi_dsub+0x2b0>
    8c1a:	0028      	movs	r0, r5
    8c1c:	f000 fb3e 	bl	929c <__clzsi2>
    8c20:	0003      	movs	r3, r0
    8c22:	3b08      	subs	r3, #8
    8c24:	2b1f      	cmp	r3, #31
    8c26:	dd00      	ble.n	8c2a <__aeabi_dsub+0xd2>
    8c28:	e0e9      	b.n	8dfe <__aeabi_dsub+0x2a6>
    8c2a:	2220      	movs	r2, #32
    8c2c:	003c      	movs	r4, r7
    8c2e:	1ad2      	subs	r2, r2, r3
    8c30:	409d      	lsls	r5, r3
    8c32:	40d4      	lsrs	r4, r2
    8c34:	409f      	lsls	r7, r3
    8c36:	4325      	orrs	r5, r4
    8c38:	429e      	cmp	r6, r3
    8c3a:	dd00      	ble.n	8c3e <__aeabi_dsub+0xe6>
    8c3c:	e0db      	b.n	8df6 <__aeabi_dsub+0x29e>
    8c3e:	1b9e      	subs	r6, r3, r6
    8c40:	1c73      	adds	r3, r6, #1
    8c42:	2b1f      	cmp	r3, #31
    8c44:	dd00      	ble.n	8c48 <__aeabi_dsub+0xf0>
    8c46:	e10a      	b.n	8e5e <__aeabi_dsub+0x306>
    8c48:	2220      	movs	r2, #32
    8c4a:	0038      	movs	r0, r7
    8c4c:	1ad2      	subs	r2, r2, r3
    8c4e:	0029      	movs	r1, r5
    8c50:	4097      	lsls	r7, r2
    8c52:	002c      	movs	r4, r5
    8c54:	4091      	lsls	r1, r2
    8c56:	40d8      	lsrs	r0, r3
    8c58:	1e7a      	subs	r2, r7, #1
    8c5a:	4197      	sbcs	r7, r2
    8c5c:	40dc      	lsrs	r4, r3
    8c5e:	2600      	movs	r6, #0
    8c60:	4301      	orrs	r1, r0
    8c62:	430f      	orrs	r7, r1
    8c64:	077b      	lsls	r3, r7, #29
    8c66:	d009      	beq.n	8c7c <__aeabi_dsub+0x124>
    8c68:	230f      	movs	r3, #15
    8c6a:	403b      	ands	r3, r7
    8c6c:	2b04      	cmp	r3, #4
    8c6e:	d005      	beq.n	8c7c <__aeabi_dsub+0x124>
    8c70:	1d3b      	adds	r3, r7, #4
    8c72:	42bb      	cmp	r3, r7
    8c74:	41bf      	sbcs	r7, r7
    8c76:	427f      	negs	r7, r7
    8c78:	19e4      	adds	r4, r4, r7
    8c7a:	001f      	movs	r7, r3
    8c7c:	0223      	lsls	r3, r4, #8
    8c7e:	d525      	bpl.n	8ccc <__aeabi_dsub+0x174>
    8c80:	4b86      	ldr	r3, [pc, #536]	; (8e9c <__aeabi_dsub+0x344>)
    8c82:	3601      	adds	r6, #1
    8c84:	429e      	cmp	r6, r3
    8c86:	d100      	bne.n	8c8a <__aeabi_dsub+0x132>
    8c88:	e0af      	b.n	8dea <__aeabi_dsub+0x292>
    8c8a:	4b85      	ldr	r3, [pc, #532]	; (8ea0 <__aeabi_dsub+0x348>)
    8c8c:	2501      	movs	r5, #1
    8c8e:	401c      	ands	r4, r3
    8c90:	4643      	mov	r3, r8
    8c92:	0762      	lsls	r2, r4, #29
    8c94:	08ff      	lsrs	r7, r7, #3
    8c96:	0264      	lsls	r4, r4, #9
    8c98:	0576      	lsls	r6, r6, #21
    8c9a:	4317      	orrs	r7, r2
    8c9c:	0b24      	lsrs	r4, r4, #12
    8c9e:	0d76      	lsrs	r6, r6, #21
    8ca0:	401d      	ands	r5, r3
    8ca2:	2100      	movs	r1, #0
    8ca4:	0324      	lsls	r4, r4, #12
    8ca6:	0b23      	lsrs	r3, r4, #12
    8ca8:	0d0c      	lsrs	r4, r1, #20
    8caa:	4a7e      	ldr	r2, [pc, #504]	; (8ea4 <__aeabi_dsub+0x34c>)
    8cac:	0524      	lsls	r4, r4, #20
    8cae:	431c      	orrs	r4, r3
    8cb0:	4014      	ands	r4, r2
    8cb2:	0533      	lsls	r3, r6, #20
    8cb4:	4323      	orrs	r3, r4
    8cb6:	005b      	lsls	r3, r3, #1
    8cb8:	07ed      	lsls	r5, r5, #31
    8cba:	085b      	lsrs	r3, r3, #1
    8cbc:	432b      	orrs	r3, r5
    8cbe:	0038      	movs	r0, r7
    8cc0:	0019      	movs	r1, r3
    8cc2:	bc1c      	pop	{r2, r3, r4}
    8cc4:	4690      	mov	r8, r2
    8cc6:	4699      	mov	r9, r3
    8cc8:	46a2      	mov	sl, r4
    8cca:	bdf0      	pop	{r4, r5, r6, r7, pc}
    8ccc:	2501      	movs	r5, #1
    8cce:	4643      	mov	r3, r8
    8cd0:	0762      	lsls	r2, r4, #29
    8cd2:	08ff      	lsrs	r7, r7, #3
    8cd4:	4317      	orrs	r7, r2
    8cd6:	08e4      	lsrs	r4, r4, #3
    8cd8:	401d      	ands	r5, r3
    8cda:	4b70      	ldr	r3, [pc, #448]	; (8e9c <__aeabi_dsub+0x344>)
    8cdc:	429e      	cmp	r6, r3
    8cde:	d036      	beq.n	8d4e <__aeabi_dsub+0x1f6>
    8ce0:	0324      	lsls	r4, r4, #12
    8ce2:	0576      	lsls	r6, r6, #21
    8ce4:	0b24      	lsrs	r4, r4, #12
    8ce6:	0d76      	lsrs	r6, r6, #21
    8ce8:	e7db      	b.n	8ca2 <__aeabi_dsub+0x14a>
    8cea:	4663      	mov	r3, ip
    8cec:	1af3      	subs	r3, r6, r3
    8cee:	2b00      	cmp	r3, #0
    8cf0:	dc00      	bgt.n	8cf4 <__aeabi_dsub+0x19c>
    8cf2:	e094      	b.n	8e1e <__aeabi_dsub+0x2c6>
    8cf4:	4660      	mov	r0, ip
    8cf6:	2800      	cmp	r0, #0
    8cf8:	d035      	beq.n	8d66 <__aeabi_dsub+0x20e>
    8cfa:	4868      	ldr	r0, [pc, #416]	; (8e9c <__aeabi_dsub+0x344>)
    8cfc:	4286      	cmp	r6, r0
    8cfe:	d0b1      	beq.n	8c64 <__aeabi_dsub+0x10c>
    8d00:	2780      	movs	r7, #128	; 0x80
    8d02:	043f      	lsls	r7, r7, #16
    8d04:	4339      	orrs	r1, r7
    8d06:	2b38      	cmp	r3, #56	; 0x38
    8d08:	dc00      	bgt.n	8d0c <__aeabi_dsub+0x1b4>
    8d0a:	e0fd      	b.n	8f08 <__aeabi_dsub+0x3b0>
    8d0c:	430a      	orrs	r2, r1
    8d0e:	0017      	movs	r7, r2
    8d10:	2100      	movs	r1, #0
    8d12:	1e7a      	subs	r2, r7, #1
    8d14:	4197      	sbcs	r7, r2
    8d16:	4457      	add	r7, sl
    8d18:	4557      	cmp	r7, sl
    8d1a:	4180      	sbcs	r0, r0
    8d1c:	1909      	adds	r1, r1, r4
    8d1e:	4244      	negs	r4, r0
    8d20:	190c      	adds	r4, r1, r4
    8d22:	0223      	lsls	r3, r4, #8
    8d24:	d53a      	bpl.n	8d9c <__aeabi_dsub+0x244>
    8d26:	4b5d      	ldr	r3, [pc, #372]	; (8e9c <__aeabi_dsub+0x344>)
    8d28:	3601      	adds	r6, #1
    8d2a:	429e      	cmp	r6, r3
    8d2c:	d100      	bne.n	8d30 <__aeabi_dsub+0x1d8>
    8d2e:	e14b      	b.n	8fc8 <__aeabi_dsub+0x470>
    8d30:	2201      	movs	r2, #1
    8d32:	4b5b      	ldr	r3, [pc, #364]	; (8ea0 <__aeabi_dsub+0x348>)
    8d34:	401c      	ands	r4, r3
    8d36:	087b      	lsrs	r3, r7, #1
    8d38:	4017      	ands	r7, r2
    8d3a:	431f      	orrs	r7, r3
    8d3c:	07e2      	lsls	r2, r4, #31
    8d3e:	4317      	orrs	r7, r2
    8d40:	0864      	lsrs	r4, r4, #1
    8d42:	e78f      	b.n	8c64 <__aeabi_dsub+0x10c>
    8d44:	0008      	movs	r0, r1
    8d46:	4310      	orrs	r0, r2
    8d48:	d000      	beq.n	8d4c <__aeabi_dsub+0x1f4>
    8d4a:	e724      	b.n	8b96 <__aeabi_dsub+0x3e>
    8d4c:	e721      	b.n	8b92 <__aeabi_dsub+0x3a>
    8d4e:	0023      	movs	r3, r4
    8d50:	433b      	orrs	r3, r7
    8d52:	d100      	bne.n	8d56 <__aeabi_dsub+0x1fe>
    8d54:	e1b9      	b.n	90ca <__aeabi_dsub+0x572>
    8d56:	2280      	movs	r2, #128	; 0x80
    8d58:	0312      	lsls	r2, r2, #12
    8d5a:	4314      	orrs	r4, r2
    8d5c:	0324      	lsls	r4, r4, #12
    8d5e:	0b24      	lsrs	r4, r4, #12
    8d60:	e79f      	b.n	8ca2 <__aeabi_dsub+0x14a>
    8d62:	002e      	movs	r6, r5
    8d64:	e77e      	b.n	8c64 <__aeabi_dsub+0x10c>
    8d66:	0008      	movs	r0, r1
    8d68:	4310      	orrs	r0, r2
    8d6a:	d100      	bne.n	8d6e <__aeabi_dsub+0x216>
    8d6c:	e0ca      	b.n	8f04 <__aeabi_dsub+0x3ac>
    8d6e:	1e58      	subs	r0, r3, #1
    8d70:	4684      	mov	ip, r0
    8d72:	2800      	cmp	r0, #0
    8d74:	d000      	beq.n	8d78 <__aeabi_dsub+0x220>
    8d76:	e0e7      	b.n	8f48 <__aeabi_dsub+0x3f0>
    8d78:	4452      	add	r2, sl
    8d7a:	4552      	cmp	r2, sl
    8d7c:	4180      	sbcs	r0, r0
    8d7e:	1864      	adds	r4, r4, r1
    8d80:	4240      	negs	r0, r0
    8d82:	1824      	adds	r4, r4, r0
    8d84:	0017      	movs	r7, r2
    8d86:	2601      	movs	r6, #1
    8d88:	0223      	lsls	r3, r4, #8
    8d8a:	d507      	bpl.n	8d9c <__aeabi_dsub+0x244>
    8d8c:	2602      	movs	r6, #2
    8d8e:	e7cf      	b.n	8d30 <__aeabi_dsub+0x1d8>
    8d90:	4664      	mov	r4, ip
    8d92:	432c      	orrs	r4, r5
    8d94:	d100      	bne.n	8d98 <__aeabi_dsub+0x240>
    8d96:	e1b3      	b.n	9100 <__aeabi_dsub+0x5a8>
    8d98:	002c      	movs	r4, r5
    8d9a:	4667      	mov	r7, ip
    8d9c:	077b      	lsls	r3, r7, #29
    8d9e:	d000      	beq.n	8da2 <__aeabi_dsub+0x24a>
    8da0:	e762      	b.n	8c68 <__aeabi_dsub+0x110>
    8da2:	0763      	lsls	r3, r4, #29
    8da4:	08ff      	lsrs	r7, r7, #3
    8da6:	431f      	orrs	r7, r3
    8da8:	2501      	movs	r5, #1
    8daa:	4643      	mov	r3, r8
    8dac:	08e4      	lsrs	r4, r4, #3
    8dae:	401d      	ands	r5, r3
    8db0:	e793      	b.n	8cda <__aeabi_dsub+0x182>
    8db2:	2d00      	cmp	r5, #0
    8db4:	d178      	bne.n	8ea8 <__aeabi_dsub+0x350>
    8db6:	1c75      	adds	r5, r6, #1
    8db8:	056d      	lsls	r5, r5, #21
    8dba:	0d6d      	lsrs	r5, r5, #21
    8dbc:	2d01      	cmp	r5, #1
    8dbe:	dc00      	bgt.n	8dc2 <__aeabi_dsub+0x26a>
    8dc0:	e0f2      	b.n	8fa8 <__aeabi_dsub+0x450>
    8dc2:	4650      	mov	r0, sl
    8dc4:	1a80      	subs	r0, r0, r2
    8dc6:	4582      	cmp	sl, r0
    8dc8:	41bf      	sbcs	r7, r7
    8dca:	1a65      	subs	r5, r4, r1
    8dcc:	427f      	negs	r7, r7
    8dce:	1bed      	subs	r5, r5, r7
    8dd0:	4684      	mov	ip, r0
    8dd2:	0228      	lsls	r0, r5, #8
    8dd4:	d400      	bmi.n	8dd8 <__aeabi_dsub+0x280>
    8dd6:	e08c      	b.n	8ef2 <__aeabi_dsub+0x39a>
    8dd8:	4650      	mov	r0, sl
    8dda:	1a17      	subs	r7, r2, r0
    8ddc:	42ba      	cmp	r2, r7
    8dde:	4192      	sbcs	r2, r2
    8de0:	1b0c      	subs	r4, r1, r4
    8de2:	4255      	negs	r5, r2
    8de4:	1b65      	subs	r5, r4, r5
    8de6:	4698      	mov	r8, r3
    8de8:	e714      	b.n	8c14 <__aeabi_dsub+0xbc>
    8dea:	2501      	movs	r5, #1
    8dec:	4643      	mov	r3, r8
    8dee:	2400      	movs	r4, #0
    8df0:	401d      	ands	r5, r3
    8df2:	2700      	movs	r7, #0
    8df4:	e755      	b.n	8ca2 <__aeabi_dsub+0x14a>
    8df6:	4c2a      	ldr	r4, [pc, #168]	; (8ea0 <__aeabi_dsub+0x348>)
    8df8:	1af6      	subs	r6, r6, r3
    8dfa:	402c      	ands	r4, r5
    8dfc:	e732      	b.n	8c64 <__aeabi_dsub+0x10c>
    8dfe:	003d      	movs	r5, r7
    8e00:	3828      	subs	r0, #40	; 0x28
    8e02:	4085      	lsls	r5, r0
    8e04:	2700      	movs	r7, #0
    8e06:	e717      	b.n	8c38 <__aeabi_dsub+0xe0>
    8e08:	0038      	movs	r0, r7
    8e0a:	f000 fa47 	bl	929c <__clzsi2>
    8e0e:	3020      	adds	r0, #32
    8e10:	e706      	b.n	8c20 <__aeabi_dsub+0xc8>
    8e12:	430a      	orrs	r2, r1
    8e14:	0017      	movs	r7, r2
    8e16:	2100      	movs	r1, #0
    8e18:	1e7a      	subs	r2, r7, #1
    8e1a:	4197      	sbcs	r7, r2
    8e1c:	e6ee      	b.n	8bfc <__aeabi_dsub+0xa4>
    8e1e:	2b00      	cmp	r3, #0
    8e20:	d000      	beq.n	8e24 <__aeabi_dsub+0x2cc>
    8e22:	e0e5      	b.n	8ff0 <__aeabi_dsub+0x498>
    8e24:	1c73      	adds	r3, r6, #1
    8e26:	469c      	mov	ip, r3
    8e28:	055b      	lsls	r3, r3, #21
    8e2a:	0d5b      	lsrs	r3, r3, #21
    8e2c:	2b01      	cmp	r3, #1
    8e2e:	dc00      	bgt.n	8e32 <__aeabi_dsub+0x2da>
    8e30:	e09f      	b.n	8f72 <__aeabi_dsub+0x41a>
    8e32:	4b1a      	ldr	r3, [pc, #104]	; (8e9c <__aeabi_dsub+0x344>)
    8e34:	459c      	cmp	ip, r3
    8e36:	d100      	bne.n	8e3a <__aeabi_dsub+0x2e2>
    8e38:	e0c5      	b.n	8fc6 <__aeabi_dsub+0x46e>
    8e3a:	4452      	add	r2, sl
    8e3c:	4552      	cmp	r2, sl
    8e3e:	4180      	sbcs	r0, r0
    8e40:	1864      	adds	r4, r4, r1
    8e42:	4240      	negs	r0, r0
    8e44:	1824      	adds	r4, r4, r0
    8e46:	07e7      	lsls	r7, r4, #31
    8e48:	0852      	lsrs	r2, r2, #1
    8e4a:	4317      	orrs	r7, r2
    8e4c:	0864      	lsrs	r4, r4, #1
    8e4e:	4666      	mov	r6, ip
    8e50:	e708      	b.n	8c64 <__aeabi_dsub+0x10c>
    8e52:	4812      	ldr	r0, [pc, #72]	; (8e9c <__aeabi_dsub+0x344>)
    8e54:	4285      	cmp	r5, r0
    8e56:	d100      	bne.n	8e5a <__aeabi_dsub+0x302>
    8e58:	e085      	b.n	8f66 <__aeabi_dsub+0x40e>
    8e5a:	001d      	movs	r5, r3
    8e5c:	e6bc      	b.n	8bd8 <__aeabi_dsub+0x80>
    8e5e:	0029      	movs	r1, r5
    8e60:	3e1f      	subs	r6, #31
    8e62:	40f1      	lsrs	r1, r6
    8e64:	2b20      	cmp	r3, #32
    8e66:	d100      	bne.n	8e6a <__aeabi_dsub+0x312>
    8e68:	e07f      	b.n	8f6a <__aeabi_dsub+0x412>
    8e6a:	2240      	movs	r2, #64	; 0x40
    8e6c:	1ad3      	subs	r3, r2, r3
    8e6e:	409d      	lsls	r5, r3
    8e70:	432f      	orrs	r7, r5
    8e72:	1e7d      	subs	r5, r7, #1
    8e74:	41af      	sbcs	r7, r5
    8e76:	2400      	movs	r4, #0
    8e78:	430f      	orrs	r7, r1
    8e7a:	2600      	movs	r6, #0
    8e7c:	e78e      	b.n	8d9c <__aeabi_dsub+0x244>
    8e7e:	002b      	movs	r3, r5
    8e80:	000f      	movs	r7, r1
    8e82:	3b20      	subs	r3, #32
    8e84:	40df      	lsrs	r7, r3
    8e86:	2d20      	cmp	r5, #32
    8e88:	d071      	beq.n	8f6e <__aeabi_dsub+0x416>
    8e8a:	2340      	movs	r3, #64	; 0x40
    8e8c:	1b5d      	subs	r5, r3, r5
    8e8e:	40a9      	lsls	r1, r5
    8e90:	430a      	orrs	r2, r1
    8e92:	1e51      	subs	r1, r2, #1
    8e94:	418a      	sbcs	r2, r1
    8e96:	2100      	movs	r1, #0
    8e98:	4317      	orrs	r7, r2
    8e9a:	e6af      	b.n	8bfc <__aeabi_dsub+0xa4>
    8e9c:	000007ff 	.word	0x000007ff
    8ea0:	ff7fffff 	.word	0xff7fffff
    8ea4:	800fffff 	.word	0x800fffff
    8ea8:	2e00      	cmp	r6, #0
    8eaa:	d03e      	beq.n	8f2a <__aeabi_dsub+0x3d2>
    8eac:	4eb3      	ldr	r6, [pc, #716]	; (917c <__aeabi_dsub+0x624>)
    8eae:	45b4      	cmp	ip, r6
    8eb0:	d045      	beq.n	8f3e <__aeabi_dsub+0x3e6>
    8eb2:	2680      	movs	r6, #128	; 0x80
    8eb4:	0436      	lsls	r6, r6, #16
    8eb6:	426d      	negs	r5, r5
    8eb8:	4334      	orrs	r4, r6
    8eba:	2d38      	cmp	r5, #56	; 0x38
    8ebc:	dd00      	ble.n	8ec0 <__aeabi_dsub+0x368>
    8ebe:	e0a8      	b.n	9012 <__aeabi_dsub+0x4ba>
    8ec0:	2d1f      	cmp	r5, #31
    8ec2:	dd00      	ble.n	8ec6 <__aeabi_dsub+0x36e>
    8ec4:	e11f      	b.n	9106 <__aeabi_dsub+0x5ae>
    8ec6:	2620      	movs	r6, #32
    8ec8:	0027      	movs	r7, r4
    8eca:	4650      	mov	r0, sl
    8ecc:	1b76      	subs	r6, r6, r5
    8ece:	40b7      	lsls	r7, r6
    8ed0:	40e8      	lsrs	r0, r5
    8ed2:	4307      	orrs	r7, r0
    8ed4:	4650      	mov	r0, sl
    8ed6:	40b0      	lsls	r0, r6
    8ed8:	1e46      	subs	r6, r0, #1
    8eda:	41b0      	sbcs	r0, r6
    8edc:	40ec      	lsrs	r4, r5
    8ede:	4338      	orrs	r0, r7
    8ee0:	1a17      	subs	r7, r2, r0
    8ee2:	42ba      	cmp	r2, r7
    8ee4:	4192      	sbcs	r2, r2
    8ee6:	1b0c      	subs	r4, r1, r4
    8ee8:	4252      	negs	r2, r2
    8eea:	1aa4      	subs	r4, r4, r2
    8eec:	4666      	mov	r6, ip
    8eee:	4698      	mov	r8, r3
    8ef0:	e68b      	b.n	8c0a <__aeabi_dsub+0xb2>
    8ef2:	4664      	mov	r4, ip
    8ef4:	4667      	mov	r7, ip
    8ef6:	432c      	orrs	r4, r5
    8ef8:	d000      	beq.n	8efc <__aeabi_dsub+0x3a4>
    8efa:	e68b      	b.n	8c14 <__aeabi_dsub+0xbc>
    8efc:	2500      	movs	r5, #0
    8efe:	2600      	movs	r6, #0
    8f00:	2700      	movs	r7, #0
    8f02:	e6ea      	b.n	8cda <__aeabi_dsub+0x182>
    8f04:	001e      	movs	r6, r3
    8f06:	e6ad      	b.n	8c64 <__aeabi_dsub+0x10c>
    8f08:	2b1f      	cmp	r3, #31
    8f0a:	dc60      	bgt.n	8fce <__aeabi_dsub+0x476>
    8f0c:	2720      	movs	r7, #32
    8f0e:	1af8      	subs	r0, r7, r3
    8f10:	000f      	movs	r7, r1
    8f12:	4684      	mov	ip, r0
    8f14:	4087      	lsls	r7, r0
    8f16:	0010      	movs	r0, r2
    8f18:	40d8      	lsrs	r0, r3
    8f1a:	4307      	orrs	r7, r0
    8f1c:	4660      	mov	r0, ip
    8f1e:	4082      	lsls	r2, r0
    8f20:	1e50      	subs	r0, r2, #1
    8f22:	4182      	sbcs	r2, r0
    8f24:	40d9      	lsrs	r1, r3
    8f26:	4317      	orrs	r7, r2
    8f28:	e6f5      	b.n	8d16 <__aeabi_dsub+0x1be>
    8f2a:	0026      	movs	r6, r4
    8f2c:	4650      	mov	r0, sl
    8f2e:	4306      	orrs	r6, r0
    8f30:	d005      	beq.n	8f3e <__aeabi_dsub+0x3e6>
    8f32:	43ed      	mvns	r5, r5
    8f34:	2d00      	cmp	r5, #0
    8f36:	d0d3      	beq.n	8ee0 <__aeabi_dsub+0x388>
    8f38:	4e90      	ldr	r6, [pc, #576]	; (917c <__aeabi_dsub+0x624>)
    8f3a:	45b4      	cmp	ip, r6
    8f3c:	d1bd      	bne.n	8eba <__aeabi_dsub+0x362>
    8f3e:	000c      	movs	r4, r1
    8f40:	0017      	movs	r7, r2
    8f42:	4666      	mov	r6, ip
    8f44:	4698      	mov	r8, r3
    8f46:	e68d      	b.n	8c64 <__aeabi_dsub+0x10c>
    8f48:	488c      	ldr	r0, [pc, #560]	; (917c <__aeabi_dsub+0x624>)
    8f4a:	4283      	cmp	r3, r0
    8f4c:	d00b      	beq.n	8f66 <__aeabi_dsub+0x40e>
    8f4e:	4663      	mov	r3, ip
    8f50:	e6d9      	b.n	8d06 <__aeabi_dsub+0x1ae>
    8f52:	2d00      	cmp	r5, #0
    8f54:	d000      	beq.n	8f58 <__aeabi_dsub+0x400>
    8f56:	e096      	b.n	9086 <__aeabi_dsub+0x52e>
    8f58:	0008      	movs	r0, r1
    8f5a:	4310      	orrs	r0, r2
    8f5c:	d100      	bne.n	8f60 <__aeabi_dsub+0x408>
    8f5e:	e0e2      	b.n	9126 <__aeabi_dsub+0x5ce>
    8f60:	000c      	movs	r4, r1
    8f62:	0017      	movs	r7, r2
    8f64:	4698      	mov	r8, r3
    8f66:	4e85      	ldr	r6, [pc, #532]	; (917c <__aeabi_dsub+0x624>)
    8f68:	e67c      	b.n	8c64 <__aeabi_dsub+0x10c>
    8f6a:	2500      	movs	r5, #0
    8f6c:	e780      	b.n	8e70 <__aeabi_dsub+0x318>
    8f6e:	2100      	movs	r1, #0
    8f70:	e78e      	b.n	8e90 <__aeabi_dsub+0x338>
    8f72:	0023      	movs	r3, r4
    8f74:	4650      	mov	r0, sl
    8f76:	4303      	orrs	r3, r0
    8f78:	2e00      	cmp	r6, #0
    8f7a:	d000      	beq.n	8f7e <__aeabi_dsub+0x426>
    8f7c:	e0a8      	b.n	90d0 <__aeabi_dsub+0x578>
    8f7e:	2b00      	cmp	r3, #0
    8f80:	d100      	bne.n	8f84 <__aeabi_dsub+0x42c>
    8f82:	e0de      	b.n	9142 <__aeabi_dsub+0x5ea>
    8f84:	000b      	movs	r3, r1
    8f86:	4313      	orrs	r3, r2
    8f88:	d100      	bne.n	8f8c <__aeabi_dsub+0x434>
    8f8a:	e66b      	b.n	8c64 <__aeabi_dsub+0x10c>
    8f8c:	4452      	add	r2, sl
    8f8e:	4552      	cmp	r2, sl
    8f90:	4180      	sbcs	r0, r0
    8f92:	1864      	adds	r4, r4, r1
    8f94:	4240      	negs	r0, r0
    8f96:	1824      	adds	r4, r4, r0
    8f98:	0017      	movs	r7, r2
    8f9a:	0223      	lsls	r3, r4, #8
    8f9c:	d400      	bmi.n	8fa0 <__aeabi_dsub+0x448>
    8f9e:	e6fd      	b.n	8d9c <__aeabi_dsub+0x244>
    8fa0:	4b77      	ldr	r3, [pc, #476]	; (9180 <__aeabi_dsub+0x628>)
    8fa2:	4666      	mov	r6, ip
    8fa4:	401c      	ands	r4, r3
    8fa6:	e65d      	b.n	8c64 <__aeabi_dsub+0x10c>
    8fa8:	0025      	movs	r5, r4
    8faa:	4650      	mov	r0, sl
    8fac:	4305      	orrs	r5, r0
    8fae:	2e00      	cmp	r6, #0
    8fb0:	d1cf      	bne.n	8f52 <__aeabi_dsub+0x3fa>
    8fb2:	2d00      	cmp	r5, #0
    8fb4:	d14f      	bne.n	9056 <__aeabi_dsub+0x4fe>
    8fb6:	000c      	movs	r4, r1
    8fb8:	4314      	orrs	r4, r2
    8fba:	d100      	bne.n	8fbe <__aeabi_dsub+0x466>
    8fbc:	e0a0      	b.n	9100 <__aeabi_dsub+0x5a8>
    8fbe:	000c      	movs	r4, r1
    8fc0:	0017      	movs	r7, r2
    8fc2:	4698      	mov	r8, r3
    8fc4:	e64e      	b.n	8c64 <__aeabi_dsub+0x10c>
    8fc6:	4666      	mov	r6, ip
    8fc8:	2400      	movs	r4, #0
    8fca:	2700      	movs	r7, #0
    8fcc:	e685      	b.n	8cda <__aeabi_dsub+0x182>
    8fce:	001f      	movs	r7, r3
    8fd0:	0008      	movs	r0, r1
    8fd2:	3f20      	subs	r7, #32
    8fd4:	40f8      	lsrs	r0, r7
    8fd6:	0007      	movs	r7, r0
    8fd8:	2b20      	cmp	r3, #32
    8fda:	d100      	bne.n	8fde <__aeabi_dsub+0x486>
    8fdc:	e08e      	b.n	90fc <__aeabi_dsub+0x5a4>
    8fde:	2040      	movs	r0, #64	; 0x40
    8fe0:	1ac3      	subs	r3, r0, r3
    8fe2:	4099      	lsls	r1, r3
    8fe4:	430a      	orrs	r2, r1
    8fe6:	1e51      	subs	r1, r2, #1
    8fe8:	418a      	sbcs	r2, r1
    8fea:	2100      	movs	r1, #0
    8fec:	4317      	orrs	r7, r2
    8fee:	e692      	b.n	8d16 <__aeabi_dsub+0x1be>
    8ff0:	2e00      	cmp	r6, #0
    8ff2:	d114      	bne.n	901e <__aeabi_dsub+0x4c6>
    8ff4:	0026      	movs	r6, r4
    8ff6:	4650      	mov	r0, sl
    8ff8:	4306      	orrs	r6, r0
    8ffa:	d062      	beq.n	90c2 <__aeabi_dsub+0x56a>
    8ffc:	43db      	mvns	r3, r3
    8ffe:	2b00      	cmp	r3, #0
    9000:	d15c      	bne.n	90bc <__aeabi_dsub+0x564>
    9002:	1887      	adds	r7, r0, r2
    9004:	4297      	cmp	r7, r2
    9006:	4192      	sbcs	r2, r2
    9008:	1864      	adds	r4, r4, r1
    900a:	4252      	negs	r2, r2
    900c:	18a4      	adds	r4, r4, r2
    900e:	4666      	mov	r6, ip
    9010:	e687      	b.n	8d22 <__aeabi_dsub+0x1ca>
    9012:	4650      	mov	r0, sl
    9014:	4320      	orrs	r0, r4
    9016:	1e44      	subs	r4, r0, #1
    9018:	41a0      	sbcs	r0, r4
    901a:	2400      	movs	r4, #0
    901c:	e760      	b.n	8ee0 <__aeabi_dsub+0x388>
    901e:	4e57      	ldr	r6, [pc, #348]	; (917c <__aeabi_dsub+0x624>)
    9020:	45b4      	cmp	ip, r6
    9022:	d04e      	beq.n	90c2 <__aeabi_dsub+0x56a>
    9024:	2680      	movs	r6, #128	; 0x80
    9026:	0436      	lsls	r6, r6, #16
    9028:	425b      	negs	r3, r3
    902a:	4334      	orrs	r4, r6
    902c:	2b38      	cmp	r3, #56	; 0x38
    902e:	dd00      	ble.n	9032 <__aeabi_dsub+0x4da>
    9030:	e07f      	b.n	9132 <__aeabi_dsub+0x5da>
    9032:	2b1f      	cmp	r3, #31
    9034:	dd00      	ble.n	9038 <__aeabi_dsub+0x4e0>
    9036:	e08b      	b.n	9150 <__aeabi_dsub+0x5f8>
    9038:	2620      	movs	r6, #32
    903a:	0027      	movs	r7, r4
    903c:	4650      	mov	r0, sl
    903e:	1af6      	subs	r6, r6, r3
    9040:	40b7      	lsls	r7, r6
    9042:	40d8      	lsrs	r0, r3
    9044:	4307      	orrs	r7, r0
    9046:	4650      	mov	r0, sl
    9048:	40b0      	lsls	r0, r6
    904a:	1e46      	subs	r6, r0, #1
    904c:	41b0      	sbcs	r0, r6
    904e:	4307      	orrs	r7, r0
    9050:	40dc      	lsrs	r4, r3
    9052:	18bf      	adds	r7, r7, r2
    9054:	e7d6      	b.n	9004 <__aeabi_dsub+0x4ac>
    9056:	000d      	movs	r5, r1
    9058:	4315      	orrs	r5, r2
    905a:	d100      	bne.n	905e <__aeabi_dsub+0x506>
    905c:	e602      	b.n	8c64 <__aeabi_dsub+0x10c>
    905e:	4650      	mov	r0, sl
    9060:	1a80      	subs	r0, r0, r2
    9062:	4582      	cmp	sl, r0
    9064:	41bf      	sbcs	r7, r7
    9066:	1a65      	subs	r5, r4, r1
    9068:	427f      	negs	r7, r7
    906a:	1bed      	subs	r5, r5, r7
    906c:	4684      	mov	ip, r0
    906e:	0228      	lsls	r0, r5, #8
    9070:	d400      	bmi.n	9074 <__aeabi_dsub+0x51c>
    9072:	e68d      	b.n	8d90 <__aeabi_dsub+0x238>
    9074:	4650      	mov	r0, sl
    9076:	1a17      	subs	r7, r2, r0
    9078:	42ba      	cmp	r2, r7
    907a:	4192      	sbcs	r2, r2
    907c:	1b0c      	subs	r4, r1, r4
    907e:	4252      	negs	r2, r2
    9080:	1aa4      	subs	r4, r4, r2
    9082:	4698      	mov	r8, r3
    9084:	e5ee      	b.n	8c64 <__aeabi_dsub+0x10c>
    9086:	000d      	movs	r5, r1
    9088:	4315      	orrs	r5, r2
    908a:	d100      	bne.n	908e <__aeabi_dsub+0x536>
    908c:	e76b      	b.n	8f66 <__aeabi_dsub+0x40e>
    908e:	4650      	mov	r0, sl
    9090:	0767      	lsls	r7, r4, #29
    9092:	08c0      	lsrs	r0, r0, #3
    9094:	4307      	orrs	r7, r0
    9096:	2080      	movs	r0, #128	; 0x80
    9098:	08e4      	lsrs	r4, r4, #3
    909a:	0300      	lsls	r0, r0, #12
    909c:	4204      	tst	r4, r0
    909e:	d007      	beq.n	90b0 <__aeabi_dsub+0x558>
    90a0:	08cd      	lsrs	r5, r1, #3
    90a2:	4205      	tst	r5, r0
    90a4:	d104      	bne.n	90b0 <__aeabi_dsub+0x558>
    90a6:	002c      	movs	r4, r5
    90a8:	4698      	mov	r8, r3
    90aa:	08d7      	lsrs	r7, r2, #3
    90ac:	0749      	lsls	r1, r1, #29
    90ae:	430f      	orrs	r7, r1
    90b0:	0f7b      	lsrs	r3, r7, #29
    90b2:	00e4      	lsls	r4, r4, #3
    90b4:	431c      	orrs	r4, r3
    90b6:	00ff      	lsls	r7, r7, #3
    90b8:	4e30      	ldr	r6, [pc, #192]	; (917c <__aeabi_dsub+0x624>)
    90ba:	e5d3      	b.n	8c64 <__aeabi_dsub+0x10c>
    90bc:	4e2f      	ldr	r6, [pc, #188]	; (917c <__aeabi_dsub+0x624>)
    90be:	45b4      	cmp	ip, r6
    90c0:	d1b4      	bne.n	902c <__aeabi_dsub+0x4d4>
    90c2:	000c      	movs	r4, r1
    90c4:	0017      	movs	r7, r2
    90c6:	4666      	mov	r6, ip
    90c8:	e5cc      	b.n	8c64 <__aeabi_dsub+0x10c>
    90ca:	2700      	movs	r7, #0
    90cc:	2400      	movs	r4, #0
    90ce:	e5e8      	b.n	8ca2 <__aeabi_dsub+0x14a>
    90d0:	2b00      	cmp	r3, #0
    90d2:	d039      	beq.n	9148 <__aeabi_dsub+0x5f0>
    90d4:	000b      	movs	r3, r1
    90d6:	4313      	orrs	r3, r2
    90d8:	d100      	bne.n	90dc <__aeabi_dsub+0x584>
    90da:	e744      	b.n	8f66 <__aeabi_dsub+0x40e>
    90dc:	08c0      	lsrs	r0, r0, #3
    90de:	0767      	lsls	r7, r4, #29
    90e0:	4307      	orrs	r7, r0
    90e2:	2080      	movs	r0, #128	; 0x80
    90e4:	08e4      	lsrs	r4, r4, #3
    90e6:	0300      	lsls	r0, r0, #12
    90e8:	4204      	tst	r4, r0
    90ea:	d0e1      	beq.n	90b0 <__aeabi_dsub+0x558>
    90ec:	08cb      	lsrs	r3, r1, #3
    90ee:	4203      	tst	r3, r0
    90f0:	d1de      	bne.n	90b0 <__aeabi_dsub+0x558>
    90f2:	08d7      	lsrs	r7, r2, #3
    90f4:	0749      	lsls	r1, r1, #29
    90f6:	430f      	orrs	r7, r1
    90f8:	001c      	movs	r4, r3
    90fa:	e7d9      	b.n	90b0 <__aeabi_dsub+0x558>
    90fc:	2100      	movs	r1, #0
    90fe:	e771      	b.n	8fe4 <__aeabi_dsub+0x48c>
    9100:	2500      	movs	r5, #0
    9102:	2700      	movs	r7, #0
    9104:	e5e9      	b.n	8cda <__aeabi_dsub+0x182>
    9106:	002e      	movs	r6, r5
    9108:	0027      	movs	r7, r4
    910a:	3e20      	subs	r6, #32
    910c:	40f7      	lsrs	r7, r6
    910e:	2d20      	cmp	r5, #32
    9110:	d02f      	beq.n	9172 <__aeabi_dsub+0x61a>
    9112:	2640      	movs	r6, #64	; 0x40
    9114:	1b75      	subs	r5, r6, r5
    9116:	40ac      	lsls	r4, r5
    9118:	4650      	mov	r0, sl
    911a:	4320      	orrs	r0, r4
    911c:	1e44      	subs	r4, r0, #1
    911e:	41a0      	sbcs	r0, r4
    9120:	2400      	movs	r4, #0
    9122:	4338      	orrs	r0, r7
    9124:	e6dc      	b.n	8ee0 <__aeabi_dsub+0x388>
    9126:	2480      	movs	r4, #128	; 0x80
    9128:	2500      	movs	r5, #0
    912a:	0324      	lsls	r4, r4, #12
    912c:	4e13      	ldr	r6, [pc, #76]	; (917c <__aeabi_dsub+0x624>)
    912e:	2700      	movs	r7, #0
    9130:	e5d3      	b.n	8cda <__aeabi_dsub+0x182>
    9132:	4650      	mov	r0, sl
    9134:	4320      	orrs	r0, r4
    9136:	0007      	movs	r7, r0
    9138:	1e78      	subs	r0, r7, #1
    913a:	4187      	sbcs	r7, r0
    913c:	2400      	movs	r4, #0
    913e:	18bf      	adds	r7, r7, r2
    9140:	e760      	b.n	9004 <__aeabi_dsub+0x4ac>
    9142:	000c      	movs	r4, r1
    9144:	0017      	movs	r7, r2
    9146:	e58d      	b.n	8c64 <__aeabi_dsub+0x10c>
    9148:	000c      	movs	r4, r1
    914a:	0017      	movs	r7, r2
    914c:	4e0b      	ldr	r6, [pc, #44]	; (917c <__aeabi_dsub+0x624>)
    914e:	e589      	b.n	8c64 <__aeabi_dsub+0x10c>
    9150:	001e      	movs	r6, r3
    9152:	0027      	movs	r7, r4
    9154:	3e20      	subs	r6, #32
    9156:	40f7      	lsrs	r7, r6
    9158:	2b20      	cmp	r3, #32
    915a:	d00c      	beq.n	9176 <__aeabi_dsub+0x61e>
    915c:	2640      	movs	r6, #64	; 0x40
    915e:	1af3      	subs	r3, r6, r3
    9160:	409c      	lsls	r4, r3
    9162:	4650      	mov	r0, sl
    9164:	4320      	orrs	r0, r4
    9166:	1e44      	subs	r4, r0, #1
    9168:	41a0      	sbcs	r0, r4
    916a:	4307      	orrs	r7, r0
    916c:	2400      	movs	r4, #0
    916e:	18bf      	adds	r7, r7, r2
    9170:	e748      	b.n	9004 <__aeabi_dsub+0x4ac>
    9172:	2400      	movs	r4, #0
    9174:	e7d0      	b.n	9118 <__aeabi_dsub+0x5c0>
    9176:	2400      	movs	r4, #0
    9178:	e7f3      	b.n	9162 <__aeabi_dsub+0x60a>
    917a:	46c0      	nop			; (mov r8, r8)
    917c:	000007ff 	.word	0x000007ff
    9180:	ff7fffff 	.word	0xff7fffff

00009184 <__aeabi_dcmpun>:
    9184:	b570      	push	{r4, r5, r6, lr}
    9186:	4e0e      	ldr	r6, [pc, #56]	; (91c0 <__aeabi_dcmpun+0x3c>)
    9188:	030d      	lsls	r5, r1, #12
    918a:	031c      	lsls	r4, r3, #12
    918c:	0049      	lsls	r1, r1, #1
    918e:	005b      	lsls	r3, r3, #1
    9190:	0b2d      	lsrs	r5, r5, #12
    9192:	0d49      	lsrs	r1, r1, #21
    9194:	0b24      	lsrs	r4, r4, #12
    9196:	0d5b      	lsrs	r3, r3, #21
    9198:	42b1      	cmp	r1, r6
    919a:	d004      	beq.n	91a6 <__aeabi_dcmpun+0x22>
    919c:	4908      	ldr	r1, [pc, #32]	; (91c0 <__aeabi_dcmpun+0x3c>)
    919e:	2000      	movs	r0, #0
    91a0:	428b      	cmp	r3, r1
    91a2:	d008      	beq.n	91b6 <__aeabi_dcmpun+0x32>
    91a4:	bd70      	pop	{r4, r5, r6, pc}
    91a6:	4305      	orrs	r5, r0
    91a8:	2001      	movs	r0, #1
    91aa:	2d00      	cmp	r5, #0
    91ac:	d1fa      	bne.n	91a4 <__aeabi_dcmpun+0x20>
    91ae:	4904      	ldr	r1, [pc, #16]	; (91c0 <__aeabi_dcmpun+0x3c>)
    91b0:	2000      	movs	r0, #0
    91b2:	428b      	cmp	r3, r1
    91b4:	d1f6      	bne.n	91a4 <__aeabi_dcmpun+0x20>
    91b6:	4314      	orrs	r4, r2
    91b8:	0020      	movs	r0, r4
    91ba:	1e44      	subs	r4, r0, #1
    91bc:	41a0      	sbcs	r0, r4
    91be:	e7f1      	b.n	91a4 <__aeabi_dcmpun+0x20>
    91c0:	000007ff 	.word	0x000007ff

000091c4 <__aeabi_d2iz>:
    91c4:	b530      	push	{r4, r5, lr}
    91c6:	4d13      	ldr	r5, [pc, #76]	; (9214 <__aeabi_d2iz+0x50>)
    91c8:	030a      	lsls	r2, r1, #12
    91ca:	004b      	lsls	r3, r1, #1
    91cc:	0b12      	lsrs	r2, r2, #12
    91ce:	0d5b      	lsrs	r3, r3, #21
    91d0:	0fc9      	lsrs	r1, r1, #31
    91d2:	2400      	movs	r4, #0
    91d4:	42ab      	cmp	r3, r5
    91d6:	dd10      	ble.n	91fa <__aeabi_d2iz+0x36>
    91d8:	4c0f      	ldr	r4, [pc, #60]	; (9218 <__aeabi_d2iz+0x54>)
    91da:	42a3      	cmp	r3, r4
    91dc:	dc0f      	bgt.n	91fe <__aeabi_d2iz+0x3a>
    91de:	2480      	movs	r4, #128	; 0x80
    91e0:	4d0e      	ldr	r5, [pc, #56]	; (921c <__aeabi_d2iz+0x58>)
    91e2:	0364      	lsls	r4, r4, #13
    91e4:	4322      	orrs	r2, r4
    91e6:	1aed      	subs	r5, r5, r3
    91e8:	2d1f      	cmp	r5, #31
    91ea:	dd0b      	ble.n	9204 <__aeabi_d2iz+0x40>
    91ec:	480c      	ldr	r0, [pc, #48]	; (9220 <__aeabi_d2iz+0x5c>)
    91ee:	1ac3      	subs	r3, r0, r3
    91f0:	40da      	lsrs	r2, r3
    91f2:	4254      	negs	r4, r2
    91f4:	2900      	cmp	r1, #0
    91f6:	d100      	bne.n	91fa <__aeabi_d2iz+0x36>
    91f8:	0014      	movs	r4, r2
    91fa:	0020      	movs	r0, r4
    91fc:	bd30      	pop	{r4, r5, pc}
    91fe:	4b09      	ldr	r3, [pc, #36]	; (9224 <__aeabi_d2iz+0x60>)
    9200:	18cc      	adds	r4, r1, r3
    9202:	e7fa      	b.n	91fa <__aeabi_d2iz+0x36>
    9204:	4c08      	ldr	r4, [pc, #32]	; (9228 <__aeabi_d2iz+0x64>)
    9206:	40e8      	lsrs	r0, r5
    9208:	46a4      	mov	ip, r4
    920a:	4463      	add	r3, ip
    920c:	409a      	lsls	r2, r3
    920e:	4302      	orrs	r2, r0
    9210:	e7ef      	b.n	91f2 <__aeabi_d2iz+0x2e>
    9212:	46c0      	nop			; (mov r8, r8)
    9214:	000003fe 	.word	0x000003fe
    9218:	0000041d 	.word	0x0000041d
    921c:	00000433 	.word	0x00000433
    9220:	00000413 	.word	0x00000413
    9224:	7fffffff 	.word	0x7fffffff
    9228:	fffffbed 	.word	0xfffffbed

0000922c <__aeabi_ui2d>:
    922c:	b510      	push	{r4, lr}
    922e:	1e04      	subs	r4, r0, #0
    9230:	d028      	beq.n	9284 <__aeabi_ui2d+0x58>
    9232:	f000 f833 	bl	929c <__clzsi2>
    9236:	4b15      	ldr	r3, [pc, #84]	; (928c <__aeabi_ui2d+0x60>)
    9238:	4a15      	ldr	r2, [pc, #84]	; (9290 <__aeabi_ui2d+0x64>)
    923a:	1a1b      	subs	r3, r3, r0
    923c:	1ad2      	subs	r2, r2, r3
    923e:	2a1f      	cmp	r2, #31
    9240:	dd15      	ble.n	926e <__aeabi_ui2d+0x42>
    9242:	4a14      	ldr	r2, [pc, #80]	; (9294 <__aeabi_ui2d+0x68>)
    9244:	1ad2      	subs	r2, r2, r3
    9246:	4094      	lsls	r4, r2
    9248:	2200      	movs	r2, #0
    924a:	0324      	lsls	r4, r4, #12
    924c:	055b      	lsls	r3, r3, #21
    924e:	0b24      	lsrs	r4, r4, #12
    9250:	0d5b      	lsrs	r3, r3, #21
    9252:	2100      	movs	r1, #0
    9254:	0010      	movs	r0, r2
    9256:	0324      	lsls	r4, r4, #12
    9258:	0d0a      	lsrs	r2, r1, #20
    925a:	0b24      	lsrs	r4, r4, #12
    925c:	0512      	lsls	r2, r2, #20
    925e:	4322      	orrs	r2, r4
    9260:	4c0d      	ldr	r4, [pc, #52]	; (9298 <__aeabi_ui2d+0x6c>)
    9262:	051b      	lsls	r3, r3, #20
    9264:	4022      	ands	r2, r4
    9266:	4313      	orrs	r3, r2
    9268:	005b      	lsls	r3, r3, #1
    926a:	0859      	lsrs	r1, r3, #1
    926c:	bd10      	pop	{r4, pc}
    926e:	0021      	movs	r1, r4
    9270:	4091      	lsls	r1, r2
    9272:	000a      	movs	r2, r1
    9274:	210b      	movs	r1, #11
    9276:	1a08      	subs	r0, r1, r0
    9278:	40c4      	lsrs	r4, r0
    927a:	055b      	lsls	r3, r3, #21
    927c:	0324      	lsls	r4, r4, #12
    927e:	0b24      	lsrs	r4, r4, #12
    9280:	0d5b      	lsrs	r3, r3, #21
    9282:	e7e6      	b.n	9252 <__aeabi_ui2d+0x26>
    9284:	2300      	movs	r3, #0
    9286:	2400      	movs	r4, #0
    9288:	2200      	movs	r2, #0
    928a:	e7e2      	b.n	9252 <__aeabi_ui2d+0x26>
    928c:	0000041e 	.word	0x0000041e
    9290:	00000433 	.word	0x00000433
    9294:	00000413 	.word	0x00000413
    9298:	800fffff 	.word	0x800fffff

0000929c <__clzsi2>:
    929c:	211c      	movs	r1, #28
    929e:	2301      	movs	r3, #1
    92a0:	041b      	lsls	r3, r3, #16
    92a2:	4298      	cmp	r0, r3
    92a4:	d301      	bcc.n	92aa <__clzsi2+0xe>
    92a6:	0c00      	lsrs	r0, r0, #16
    92a8:	3910      	subs	r1, #16
    92aa:	0a1b      	lsrs	r3, r3, #8
    92ac:	4298      	cmp	r0, r3
    92ae:	d301      	bcc.n	92b4 <__clzsi2+0x18>
    92b0:	0a00      	lsrs	r0, r0, #8
    92b2:	3908      	subs	r1, #8
    92b4:	091b      	lsrs	r3, r3, #4
    92b6:	4298      	cmp	r0, r3
    92b8:	d301      	bcc.n	92be <__clzsi2+0x22>
    92ba:	0900      	lsrs	r0, r0, #4
    92bc:	3904      	subs	r1, #4
    92be:	a202      	add	r2, pc, #8	; (adr r2, 92c8 <__clzsi2+0x2c>)
    92c0:	5c10      	ldrb	r0, [r2, r0]
    92c2:	1840      	adds	r0, r0, r1
    92c4:	4770      	bx	lr
    92c6:	46c0      	nop			; (mov r8, r8)
    92c8:	02020304 	.word	0x02020304
    92cc:	01010101 	.word	0x01010101
	...

000092d8 <__cxa_atexit>:
    92d8:	b570      	push	{r4, r5, r6, lr}
    92da:	4c05      	ldr	r4, [pc, #20]	; (92f0 <__cxa_atexit+0x18>)
    92dc:	0005      	movs	r5, r0
    92de:	0013      	movs	r3, r2
    92e0:	1e20      	subs	r0, r4, #0
    92e2:	d004      	beq.n	92ee <__cxa_atexit+0x16>
    92e4:	000a      	movs	r2, r1
    92e6:	2002      	movs	r0, #2
    92e8:	0029      	movs	r1, r5
    92ea:	e000      	b.n	92ee <__cxa_atexit+0x16>
    92ec:	bf00      	nop
    92ee:	bd70      	pop	{r4, r5, r6, pc}
    92f0:	00000000 	.word	0x00000000

000092f4 <__libc_init_array>:
    92f4:	b570      	push	{r4, r5, r6, lr}
    92f6:	2600      	movs	r6, #0
    92f8:	4d0c      	ldr	r5, [pc, #48]	; (932c <__libc_init_array+0x38>)
    92fa:	4c0d      	ldr	r4, [pc, #52]	; (9330 <__libc_init_array+0x3c>)
    92fc:	1b64      	subs	r4, r4, r5
    92fe:	10a4      	asrs	r4, r4, #2
    9300:	42a6      	cmp	r6, r4
    9302:	d109      	bne.n	9318 <__libc_init_array+0x24>
    9304:	2600      	movs	r6, #0
    9306:	f002 f9db 	bl	b6c0 <_init>
    930a:	4d0a      	ldr	r5, [pc, #40]	; (9334 <__libc_init_array+0x40>)
    930c:	4c0a      	ldr	r4, [pc, #40]	; (9338 <__libc_init_array+0x44>)
    930e:	1b64      	subs	r4, r4, r5
    9310:	10a4      	asrs	r4, r4, #2
    9312:	42a6      	cmp	r6, r4
    9314:	d105      	bne.n	9322 <__libc_init_array+0x2e>
    9316:	bd70      	pop	{r4, r5, r6, pc}
    9318:	00b3      	lsls	r3, r6, #2
    931a:	58eb      	ldr	r3, [r5, r3]
    931c:	4798      	blx	r3
    931e:	3601      	adds	r6, #1
    9320:	e7ee      	b.n	9300 <__libc_init_array+0xc>
    9322:	00b3      	lsls	r3, r6, #2
    9324:	58eb      	ldr	r3, [r5, r3]
    9326:	4798      	blx	r3
    9328:	3601      	adds	r6, #1
    932a:	e7f2      	b.n	9312 <__libc_init_array+0x1e>
    932c:	2000025c 	.word	0x2000025c
    9330:	2000025c 	.word	0x2000025c
    9334:	2000025c 	.word	0x2000025c
    9338:	2000029c 	.word	0x2000029c

0000933c <__locale_ctype_ptr_l>:
    933c:	30ec      	adds	r0, #236	; 0xec
    933e:	6800      	ldr	r0, [r0, #0]
    9340:	4770      	bx	lr
	...

00009344 <malloc>:
    9344:	b510      	push	{r4, lr}
    9346:	4b03      	ldr	r3, [pc, #12]	; (9354 <malloc+0x10>)
    9348:	0001      	movs	r1, r0
    934a:	6818      	ldr	r0, [r3, #0]
    934c:	f000 f89c 	bl	9488 <_malloc_r>
    9350:	bd10      	pop	{r4, pc}
    9352:	46c0      	nop			; (mov r8, r8)
    9354:	2000008c 	.word	0x2000008c

00009358 <free>:
    9358:	b510      	push	{r4, lr}
    935a:	4b03      	ldr	r3, [pc, #12]	; (9368 <free+0x10>)
    935c:	0001      	movs	r1, r0
    935e:	6818      	ldr	r0, [r3, #0]
    9360:	f000 f848 	bl	93f4 <_free_r>
    9364:	bd10      	pop	{r4, pc}
    9366:	46c0      	nop			; (mov r8, r8)
    9368:	2000008c 	.word	0x2000008c

0000936c <__ascii_mbtowc>:
    936c:	b082      	sub	sp, #8
    936e:	2900      	cmp	r1, #0
    9370:	d100      	bne.n	9374 <__ascii_mbtowc+0x8>
    9372:	a901      	add	r1, sp, #4
    9374:	1e10      	subs	r0, r2, #0
    9376:	d006      	beq.n	9386 <__ascii_mbtowc+0x1a>
    9378:	2b00      	cmp	r3, #0
    937a:	d006      	beq.n	938a <__ascii_mbtowc+0x1e>
    937c:	7813      	ldrb	r3, [r2, #0]
    937e:	600b      	str	r3, [r1, #0]
    9380:	7810      	ldrb	r0, [r2, #0]
    9382:	1e43      	subs	r3, r0, #1
    9384:	4198      	sbcs	r0, r3
    9386:	b002      	add	sp, #8
    9388:	4770      	bx	lr
    938a:	2002      	movs	r0, #2
    938c:	4240      	negs	r0, r0
    938e:	e7fa      	b.n	9386 <__ascii_mbtowc+0x1a>

00009390 <memcmp>:
    9390:	b530      	push	{r4, r5, lr}
    9392:	2400      	movs	r4, #0
    9394:	42a2      	cmp	r2, r4
    9396:	d101      	bne.n	939c <memcmp+0xc>
    9398:	2000      	movs	r0, #0
    939a:	e005      	b.n	93a8 <memcmp+0x18>
    939c:	5d03      	ldrb	r3, [r0, r4]
    939e:	1c65      	adds	r5, r4, #1
    93a0:	5d0c      	ldrb	r4, [r1, r4]
    93a2:	42a3      	cmp	r3, r4
    93a4:	d001      	beq.n	93aa <memcmp+0x1a>
    93a6:	1b18      	subs	r0, r3, r4
    93a8:	bd30      	pop	{r4, r5, pc}
    93aa:	002c      	movs	r4, r5
    93ac:	e7f2      	b.n	9394 <memcmp+0x4>

000093ae <memcpy>:
    93ae:	2300      	movs	r3, #0
    93b0:	b510      	push	{r4, lr}
    93b2:	429a      	cmp	r2, r3
    93b4:	d100      	bne.n	93b8 <memcpy+0xa>
    93b6:	bd10      	pop	{r4, pc}
    93b8:	5ccc      	ldrb	r4, [r1, r3]
    93ba:	54c4      	strb	r4, [r0, r3]
    93bc:	3301      	adds	r3, #1
    93be:	e7f8      	b.n	93b2 <memcpy+0x4>

000093c0 <memmove>:
    93c0:	b510      	push	{r4, lr}
    93c2:	4288      	cmp	r0, r1
    93c4:	d902      	bls.n	93cc <memmove+0xc>
    93c6:	188b      	adds	r3, r1, r2
    93c8:	4298      	cmp	r0, r3
    93ca:	d308      	bcc.n	93de <memmove+0x1e>
    93cc:	2300      	movs	r3, #0
    93ce:	429a      	cmp	r2, r3
    93d0:	d007      	beq.n	93e2 <memmove+0x22>
    93d2:	5ccc      	ldrb	r4, [r1, r3]
    93d4:	54c4      	strb	r4, [r0, r3]
    93d6:	3301      	adds	r3, #1
    93d8:	e7f9      	b.n	93ce <memmove+0xe>
    93da:	5c8b      	ldrb	r3, [r1, r2]
    93dc:	5483      	strb	r3, [r0, r2]
    93de:	3a01      	subs	r2, #1
    93e0:	d2fb      	bcs.n	93da <memmove+0x1a>
    93e2:	bd10      	pop	{r4, pc}

000093e4 <memset>:
    93e4:	0003      	movs	r3, r0
    93e6:	1882      	adds	r2, r0, r2
    93e8:	4293      	cmp	r3, r2
    93ea:	d100      	bne.n	93ee <memset+0xa>
    93ec:	4770      	bx	lr
    93ee:	7019      	strb	r1, [r3, #0]
    93f0:	3301      	adds	r3, #1
    93f2:	e7f9      	b.n	93e8 <memset+0x4>

000093f4 <_free_r>:
    93f4:	b570      	push	{r4, r5, r6, lr}
    93f6:	0005      	movs	r5, r0
    93f8:	2900      	cmp	r1, #0
    93fa:	d010      	beq.n	941e <_free_r+0x2a>
    93fc:	1f0c      	subs	r4, r1, #4
    93fe:	6823      	ldr	r3, [r4, #0]
    9400:	2b00      	cmp	r3, #0
    9402:	da00      	bge.n	9406 <_free_r+0x12>
    9404:	18e4      	adds	r4, r4, r3
    9406:	0028      	movs	r0, r5
    9408:	f001 fc83 	bl	ad12 <__malloc_lock>
    940c:	4a1d      	ldr	r2, [pc, #116]	; (9484 <_free_r+0x90>)
    940e:	6813      	ldr	r3, [r2, #0]
    9410:	2b00      	cmp	r3, #0
    9412:	d105      	bne.n	9420 <_free_r+0x2c>
    9414:	6063      	str	r3, [r4, #4]
    9416:	6014      	str	r4, [r2, #0]
    9418:	0028      	movs	r0, r5
    941a:	f001 fc7b 	bl	ad14 <__malloc_unlock>
    941e:	bd70      	pop	{r4, r5, r6, pc}
    9420:	42a3      	cmp	r3, r4
    9422:	d909      	bls.n	9438 <_free_r+0x44>
    9424:	6821      	ldr	r1, [r4, #0]
    9426:	1860      	adds	r0, r4, r1
    9428:	4283      	cmp	r3, r0
    942a:	d1f3      	bne.n	9414 <_free_r+0x20>
    942c:	6818      	ldr	r0, [r3, #0]
    942e:	685b      	ldr	r3, [r3, #4]
    9430:	1841      	adds	r1, r0, r1
    9432:	6021      	str	r1, [r4, #0]
    9434:	e7ee      	b.n	9414 <_free_r+0x20>
    9436:	0013      	movs	r3, r2
    9438:	685a      	ldr	r2, [r3, #4]
    943a:	2a00      	cmp	r2, #0
    943c:	d001      	beq.n	9442 <_free_r+0x4e>
    943e:	42a2      	cmp	r2, r4
    9440:	d9f9      	bls.n	9436 <_free_r+0x42>
    9442:	6819      	ldr	r1, [r3, #0]
    9444:	1858      	adds	r0, r3, r1
    9446:	42a0      	cmp	r0, r4
    9448:	d10b      	bne.n	9462 <_free_r+0x6e>
    944a:	6820      	ldr	r0, [r4, #0]
    944c:	1809      	adds	r1, r1, r0
    944e:	1858      	adds	r0, r3, r1
    9450:	6019      	str	r1, [r3, #0]
    9452:	4282      	cmp	r2, r0
    9454:	d1e0      	bne.n	9418 <_free_r+0x24>
    9456:	6810      	ldr	r0, [r2, #0]
    9458:	6852      	ldr	r2, [r2, #4]
    945a:	1841      	adds	r1, r0, r1
    945c:	6019      	str	r1, [r3, #0]
    945e:	605a      	str	r2, [r3, #4]
    9460:	e7da      	b.n	9418 <_free_r+0x24>
    9462:	42a0      	cmp	r0, r4
    9464:	d902      	bls.n	946c <_free_r+0x78>
    9466:	230c      	movs	r3, #12
    9468:	602b      	str	r3, [r5, #0]
    946a:	e7d5      	b.n	9418 <_free_r+0x24>
    946c:	6821      	ldr	r1, [r4, #0]
    946e:	1860      	adds	r0, r4, r1
    9470:	4282      	cmp	r2, r0
    9472:	d103      	bne.n	947c <_free_r+0x88>
    9474:	6810      	ldr	r0, [r2, #0]
    9476:	6852      	ldr	r2, [r2, #4]
    9478:	1841      	adds	r1, r0, r1
    947a:	6021      	str	r1, [r4, #0]
    947c:	6062      	str	r2, [r4, #4]
    947e:	605c      	str	r4, [r3, #4]
    9480:	e7ca      	b.n	9418 <_free_r+0x24>
    9482:	46c0      	nop			; (mov r8, r8)
    9484:	200010b8 	.word	0x200010b8

00009488 <_malloc_r>:
    9488:	2303      	movs	r3, #3
    948a:	b570      	push	{r4, r5, r6, lr}
    948c:	1ccd      	adds	r5, r1, #3
    948e:	439d      	bics	r5, r3
    9490:	3508      	adds	r5, #8
    9492:	0006      	movs	r6, r0
    9494:	2d0c      	cmp	r5, #12
    9496:	d21e      	bcs.n	94d6 <_malloc_r+0x4e>
    9498:	250c      	movs	r5, #12
    949a:	42a9      	cmp	r1, r5
    949c:	d81d      	bhi.n	94da <_malloc_r+0x52>
    949e:	0030      	movs	r0, r6
    94a0:	f001 fc37 	bl	ad12 <__malloc_lock>
    94a4:	4a25      	ldr	r2, [pc, #148]	; (953c <_malloc_r+0xb4>)
    94a6:	6814      	ldr	r4, [r2, #0]
    94a8:	0021      	movs	r1, r4
    94aa:	2900      	cmp	r1, #0
    94ac:	d119      	bne.n	94e2 <_malloc_r+0x5a>
    94ae:	4c24      	ldr	r4, [pc, #144]	; (9540 <_malloc_r+0xb8>)
    94b0:	6823      	ldr	r3, [r4, #0]
    94b2:	2b00      	cmp	r3, #0
    94b4:	d103      	bne.n	94be <_malloc_r+0x36>
    94b6:	0030      	movs	r0, r6
    94b8:	f000 fcbe 	bl	9e38 <_sbrk_r>
    94bc:	6020      	str	r0, [r4, #0]
    94be:	0029      	movs	r1, r5
    94c0:	0030      	movs	r0, r6
    94c2:	f000 fcb9 	bl	9e38 <_sbrk_r>
    94c6:	1c43      	adds	r3, r0, #1
    94c8:	d12c      	bne.n	9524 <_malloc_r+0x9c>
    94ca:	230c      	movs	r3, #12
    94cc:	0030      	movs	r0, r6
    94ce:	6033      	str	r3, [r6, #0]
    94d0:	f001 fc20 	bl	ad14 <__malloc_unlock>
    94d4:	e003      	b.n	94de <_malloc_r+0x56>
    94d6:	2d00      	cmp	r5, #0
    94d8:	dadf      	bge.n	949a <_malloc_r+0x12>
    94da:	230c      	movs	r3, #12
    94dc:	6033      	str	r3, [r6, #0]
    94de:	2000      	movs	r0, #0
    94e0:	bd70      	pop	{r4, r5, r6, pc}
    94e2:	680b      	ldr	r3, [r1, #0]
    94e4:	1b5b      	subs	r3, r3, r5
    94e6:	d41a      	bmi.n	951e <_malloc_r+0x96>
    94e8:	2b0b      	cmp	r3, #11
    94ea:	d903      	bls.n	94f4 <_malloc_r+0x6c>
    94ec:	600b      	str	r3, [r1, #0]
    94ee:	18cc      	adds	r4, r1, r3
    94f0:	6025      	str	r5, [r4, #0]
    94f2:	e003      	b.n	94fc <_malloc_r+0x74>
    94f4:	428c      	cmp	r4, r1
    94f6:	d10e      	bne.n	9516 <_malloc_r+0x8e>
    94f8:	6863      	ldr	r3, [r4, #4]
    94fa:	6013      	str	r3, [r2, #0]
    94fc:	0030      	movs	r0, r6
    94fe:	f001 fc09 	bl	ad14 <__malloc_unlock>
    9502:	0020      	movs	r0, r4
    9504:	2207      	movs	r2, #7
    9506:	300b      	adds	r0, #11
    9508:	1d23      	adds	r3, r4, #4
    950a:	4390      	bics	r0, r2
    950c:	1ac3      	subs	r3, r0, r3
    950e:	d0e7      	beq.n	94e0 <_malloc_r+0x58>
    9510:	425a      	negs	r2, r3
    9512:	50e2      	str	r2, [r4, r3]
    9514:	e7e4      	b.n	94e0 <_malloc_r+0x58>
    9516:	684b      	ldr	r3, [r1, #4]
    9518:	6063      	str	r3, [r4, #4]
    951a:	000c      	movs	r4, r1
    951c:	e7ee      	b.n	94fc <_malloc_r+0x74>
    951e:	000c      	movs	r4, r1
    9520:	6849      	ldr	r1, [r1, #4]
    9522:	e7c2      	b.n	94aa <_malloc_r+0x22>
    9524:	2303      	movs	r3, #3
    9526:	1cc4      	adds	r4, r0, #3
    9528:	439c      	bics	r4, r3
    952a:	42a0      	cmp	r0, r4
    952c:	d0e0      	beq.n	94f0 <_malloc_r+0x68>
    952e:	1a21      	subs	r1, r4, r0
    9530:	0030      	movs	r0, r6
    9532:	f000 fc81 	bl	9e38 <_sbrk_r>
    9536:	1c43      	adds	r3, r0, #1
    9538:	d1da      	bne.n	94f0 <_malloc_r+0x68>
    953a:	e7c6      	b.n	94ca <_malloc_r+0x42>
    953c:	200010b8 	.word	0x200010b8
    9540:	200010bc 	.word	0x200010bc

00009544 <__cvt>:
    9544:	b5f0      	push	{r4, r5, r6, r7, lr}
    9546:	b08b      	sub	sp, #44	; 0x2c
    9548:	0014      	movs	r4, r2
    954a:	1e1d      	subs	r5, r3, #0
    954c:	9912      	ldr	r1, [sp, #72]	; 0x48
    954e:	da53      	bge.n	95f8 <__cvt+0xb4>
    9550:	2480      	movs	r4, #128	; 0x80
    9552:	0624      	lsls	r4, r4, #24
    9554:	191b      	adds	r3, r3, r4
    9556:	001d      	movs	r5, r3
    9558:	0014      	movs	r4, r2
    955a:	232d      	movs	r3, #45	; 0x2d
    955c:	700b      	strb	r3, [r1, #0]
    955e:	2320      	movs	r3, #32
    9560:	9e14      	ldr	r6, [sp, #80]	; 0x50
    9562:	2203      	movs	r2, #3
    9564:	439e      	bics	r6, r3
    9566:	2e46      	cmp	r6, #70	; 0x46
    9568:	d007      	beq.n	957a <__cvt+0x36>
    956a:	0033      	movs	r3, r6
    956c:	3b45      	subs	r3, #69	; 0x45
    956e:	4259      	negs	r1, r3
    9570:	414b      	adcs	r3, r1
    9572:	9910      	ldr	r1, [sp, #64]	; 0x40
    9574:	3a01      	subs	r2, #1
    9576:	18cb      	adds	r3, r1, r3
    9578:	9310      	str	r3, [sp, #64]	; 0x40
    957a:	ab09      	add	r3, sp, #36	; 0x24
    957c:	9304      	str	r3, [sp, #16]
    957e:	ab08      	add	r3, sp, #32
    9580:	9303      	str	r3, [sp, #12]
    9582:	9b13      	ldr	r3, [sp, #76]	; 0x4c
    9584:	9200      	str	r2, [sp, #0]
    9586:	9302      	str	r3, [sp, #8]
    9588:	9b10      	ldr	r3, [sp, #64]	; 0x40
    958a:	0022      	movs	r2, r4
    958c:	9301      	str	r3, [sp, #4]
    958e:	002b      	movs	r3, r5
    9590:	f000 fdc0 	bl	a114 <_dtoa_r>
    9594:	0007      	movs	r7, r0
    9596:	2e47      	cmp	r6, #71	; 0x47
    9598:	d102      	bne.n	95a0 <__cvt+0x5c>
    959a:	9b11      	ldr	r3, [sp, #68]	; 0x44
    959c:	07db      	lsls	r3, r3, #31
    959e:	d524      	bpl.n	95ea <__cvt+0xa6>
    95a0:	9b10      	ldr	r3, [sp, #64]	; 0x40
    95a2:	18fb      	adds	r3, r7, r3
    95a4:	9307      	str	r3, [sp, #28]
    95a6:	2e46      	cmp	r6, #70	; 0x46
    95a8:	d114      	bne.n	95d4 <__cvt+0x90>
    95aa:	783b      	ldrb	r3, [r7, #0]
    95ac:	2b30      	cmp	r3, #48	; 0x30
    95ae:	d10c      	bne.n	95ca <__cvt+0x86>
    95b0:	2200      	movs	r2, #0
    95b2:	2300      	movs	r3, #0
    95b4:	0020      	movs	r0, r4
    95b6:	0029      	movs	r1, r5
    95b8:	f7fe f8dc 	bl	7774 <__aeabi_dcmpeq>
    95bc:	2800      	cmp	r0, #0
    95be:	d104      	bne.n	95ca <__cvt+0x86>
    95c0:	2301      	movs	r3, #1
    95c2:	9a10      	ldr	r2, [sp, #64]	; 0x40
    95c4:	1a9b      	subs	r3, r3, r2
    95c6:	9a13      	ldr	r2, [sp, #76]	; 0x4c
    95c8:	6013      	str	r3, [r2, #0]
    95ca:	9b13      	ldr	r3, [sp, #76]	; 0x4c
    95cc:	9a07      	ldr	r2, [sp, #28]
    95ce:	681b      	ldr	r3, [r3, #0]
    95d0:	18d3      	adds	r3, r2, r3
    95d2:	9307      	str	r3, [sp, #28]
    95d4:	2200      	movs	r2, #0
    95d6:	2300      	movs	r3, #0
    95d8:	0020      	movs	r0, r4
    95da:	0029      	movs	r1, r5
    95dc:	f7fe f8ca 	bl	7774 <__aeabi_dcmpeq>
    95e0:	2230      	movs	r2, #48	; 0x30
    95e2:	2800      	cmp	r0, #0
    95e4:	d00d      	beq.n	9602 <__cvt+0xbe>
    95e6:	9b07      	ldr	r3, [sp, #28]
    95e8:	9309      	str	r3, [sp, #36]	; 0x24
    95ea:	0038      	movs	r0, r7
    95ec:	9b09      	ldr	r3, [sp, #36]	; 0x24
    95ee:	9a15      	ldr	r2, [sp, #84]	; 0x54
    95f0:	1bdb      	subs	r3, r3, r7
    95f2:	6013      	str	r3, [r2, #0]
    95f4:	b00b      	add	sp, #44	; 0x2c
    95f6:	bdf0      	pop	{r4, r5, r6, r7, pc}
    95f8:	2300      	movs	r3, #0
    95fa:	e7af      	b.n	955c <__cvt+0x18>
    95fc:	1c59      	adds	r1, r3, #1
    95fe:	9109      	str	r1, [sp, #36]	; 0x24
    9600:	701a      	strb	r2, [r3, #0]
    9602:	9b09      	ldr	r3, [sp, #36]	; 0x24
    9604:	9907      	ldr	r1, [sp, #28]
    9606:	4299      	cmp	r1, r3
    9608:	d8f8      	bhi.n	95fc <__cvt+0xb8>
    960a:	e7ee      	b.n	95ea <__cvt+0xa6>

0000960c <__exponent>:
    960c:	b5f0      	push	{r4, r5, r6, r7, lr}
    960e:	232b      	movs	r3, #43	; 0x2b
    9610:	b085      	sub	sp, #20
    9612:	0007      	movs	r7, r0
    9614:	000c      	movs	r4, r1
    9616:	7002      	strb	r2, [r0, #0]
    9618:	1c86      	adds	r6, r0, #2
    961a:	2900      	cmp	r1, #0
    961c:	da01      	bge.n	9622 <__exponent+0x16>
    961e:	232d      	movs	r3, #45	; 0x2d
    9620:	424c      	negs	r4, r1
    9622:	707b      	strb	r3, [r7, #1]
    9624:	2c09      	cmp	r4, #9
    9626:	dd23      	ble.n	9670 <__exponent+0x64>
    9628:	ab02      	add	r3, sp, #8
    962a:	1ddd      	adds	r5, r3, #7
    962c:	1e6b      	subs	r3, r5, #1
    962e:	0020      	movs	r0, r4
    9630:	210a      	movs	r1, #10
    9632:	9301      	str	r3, [sp, #4]
    9634:	f7fe f888 	bl	7748 <__aeabi_idivmod>
    9638:	1e6b      	subs	r3, r5, #1
    963a:	3130      	adds	r1, #48	; 0x30
    963c:	7019      	strb	r1, [r3, #0]
    963e:	0020      	movs	r0, r4
    9640:	210a      	movs	r1, #10
    9642:	f7fd ff9b 	bl	757c <__divsi3>
    9646:	0004      	movs	r4, r0
    9648:	2809      	cmp	r0, #9
    964a:	dc0a      	bgt.n	9662 <__exponent+0x56>
    964c:	3d02      	subs	r5, #2
    964e:	3430      	adds	r4, #48	; 0x30
    9650:	702c      	strb	r4, [r5, #0]
    9652:	ab02      	add	r3, sp, #8
    9654:	3307      	adds	r3, #7
    9656:	0030      	movs	r0, r6
    9658:	42ab      	cmp	r3, r5
    965a:	d804      	bhi.n	9666 <__exponent+0x5a>
    965c:	1bc0      	subs	r0, r0, r7
    965e:	b005      	add	sp, #20
    9660:	bdf0      	pop	{r4, r5, r6, r7, pc}
    9662:	9d01      	ldr	r5, [sp, #4]
    9664:	e7e2      	b.n	962c <__exponent+0x20>
    9666:	782b      	ldrb	r3, [r5, #0]
    9668:	3501      	adds	r5, #1
    966a:	7033      	strb	r3, [r6, #0]
    966c:	3601      	adds	r6, #1
    966e:	e7f0      	b.n	9652 <__exponent+0x46>
    9670:	2330      	movs	r3, #48	; 0x30
    9672:	18e4      	adds	r4, r4, r3
    9674:	7033      	strb	r3, [r6, #0]
    9676:	1cb0      	adds	r0, r6, #2
    9678:	7074      	strb	r4, [r6, #1]
    967a:	e7ef      	b.n	965c <__exponent+0x50>

0000967c <_printf_float>:
    967c:	b5f0      	push	{r4, r5, r6, r7, lr}
    967e:	b095      	sub	sp, #84	; 0x54
    9680:	000c      	movs	r4, r1
    9682:	920a      	str	r2, [sp, #40]	; 0x28
    9684:	930b      	str	r3, [sp, #44]	; 0x2c
    9686:	9d1a      	ldr	r5, [sp, #104]	; 0x68
    9688:	9009      	str	r0, [sp, #36]	; 0x24
    968a:	f001 fb2b 	bl	ace4 <_localeconv_r>
    968e:	6803      	ldr	r3, [r0, #0]
    9690:	0018      	movs	r0, r3
    9692:	930d      	str	r3, [sp, #52]	; 0x34
    9694:	f000 fc0c 	bl	9eb0 <strlen>
    9698:	2300      	movs	r3, #0
    969a:	9312      	str	r3, [sp, #72]	; 0x48
    969c:	6823      	ldr	r3, [r4, #0]
    969e:	900e      	str	r0, [sp, #56]	; 0x38
    96a0:	930c      	str	r3, [sp, #48]	; 0x30
    96a2:	990c      	ldr	r1, [sp, #48]	; 0x30
    96a4:	7e27      	ldrb	r7, [r4, #24]
    96a6:	682b      	ldr	r3, [r5, #0]
    96a8:	2207      	movs	r2, #7
    96aa:	05c9      	lsls	r1, r1, #23
    96ac:	d547      	bpl.n	973e <_printf_float+0xc2>
    96ae:	189b      	adds	r3, r3, r2
    96b0:	4393      	bics	r3, r2
    96b2:	001a      	movs	r2, r3
    96b4:	3208      	adds	r2, #8
    96b6:	602a      	str	r2, [r5, #0]
    96b8:	681a      	ldr	r2, [r3, #0]
    96ba:	685b      	ldr	r3, [r3, #4]
    96bc:	64a2      	str	r2, [r4, #72]	; 0x48
    96be:	64e3      	str	r3, [r4, #76]	; 0x4c
    96c0:	2201      	movs	r2, #1
    96c2:	6ce5      	ldr	r5, [r4, #76]	; 0x4c
    96c4:	6ca6      	ldr	r6, [r4, #72]	; 0x48
    96c6:	006b      	lsls	r3, r5, #1
    96c8:	085b      	lsrs	r3, r3, #1
    96ca:	930f      	str	r3, [sp, #60]	; 0x3c
    96cc:	4252      	negs	r2, r2
    96ce:	4ba7      	ldr	r3, [pc, #668]	; (996c <_printf_float+0x2f0>)
    96d0:	0030      	movs	r0, r6
    96d2:	990f      	ldr	r1, [sp, #60]	; 0x3c
    96d4:	f7ff fd56 	bl	9184 <__aeabi_dcmpun>
    96d8:	2800      	cmp	r0, #0
    96da:	d000      	beq.n	96de <_printf_float+0x62>
    96dc:	e206      	b.n	9aec <_printf_float+0x470>
    96de:	2201      	movs	r2, #1
    96e0:	4ba2      	ldr	r3, [pc, #648]	; (996c <_printf_float+0x2f0>)
    96e2:	4252      	negs	r2, r2
    96e4:	0030      	movs	r0, r6
    96e6:	990f      	ldr	r1, [sp, #60]	; 0x3c
    96e8:	f7fe f854 	bl	7794 <__aeabi_dcmple>
    96ec:	2800      	cmp	r0, #0
    96ee:	d000      	beq.n	96f2 <_printf_float+0x76>
    96f0:	e1fc      	b.n	9aec <_printf_float+0x470>
    96f2:	2200      	movs	r2, #0
    96f4:	2300      	movs	r3, #0
    96f6:	0030      	movs	r0, r6
    96f8:	0029      	movs	r1, r5
    96fa:	f7fe f841 	bl	7780 <__aeabi_dcmplt>
    96fe:	2800      	cmp	r0, #0
    9700:	d003      	beq.n	970a <_printf_float+0x8e>
    9702:	0023      	movs	r3, r4
    9704:	222d      	movs	r2, #45	; 0x2d
    9706:	3343      	adds	r3, #67	; 0x43
    9708:	701a      	strb	r2, [r3, #0]
    970a:	4d99      	ldr	r5, [pc, #612]	; (9970 <_printf_float+0x2f4>)
    970c:	2f47      	cmp	r7, #71	; 0x47
    970e:	d800      	bhi.n	9712 <_printf_float+0x96>
    9710:	4d98      	ldr	r5, [pc, #608]	; (9974 <_printf_float+0x2f8>)
    9712:	2303      	movs	r3, #3
    9714:	2600      	movs	r6, #0
    9716:	9a0c      	ldr	r2, [sp, #48]	; 0x30
    9718:	6123      	str	r3, [r4, #16]
    971a:	3301      	adds	r3, #1
    971c:	439a      	bics	r2, r3
    971e:	6022      	str	r2, [r4, #0]
    9720:	9b0b      	ldr	r3, [sp, #44]	; 0x2c
    9722:	aa13      	add	r2, sp, #76	; 0x4c
    9724:	9300      	str	r3, [sp, #0]
    9726:	0021      	movs	r1, r4
    9728:	9b0a      	ldr	r3, [sp, #40]	; 0x28
    972a:	9809      	ldr	r0, [sp, #36]	; 0x24
    972c:	f000 f9f2 	bl	9b14 <_printf_common>
    9730:	1c43      	adds	r3, r0, #1
    9732:	d000      	beq.n	9736 <_printf_float+0xba>
    9734:	e09c      	b.n	9870 <_printf_float+0x1f4>
    9736:	2001      	movs	r0, #1
    9738:	4240      	negs	r0, r0
    973a:	b015      	add	sp, #84	; 0x54
    973c:	bdf0      	pop	{r4, r5, r6, r7, pc}
    973e:	3307      	adds	r3, #7
    9740:	e7b6      	b.n	96b0 <_printf_float+0x34>
    9742:	2380      	movs	r3, #128	; 0x80
    9744:	6862      	ldr	r2, [r4, #4]
    9746:	00db      	lsls	r3, r3, #3
    9748:	1c51      	adds	r1, r2, #1
    974a:	d145      	bne.n	97d8 <_printf_float+0x15c>
    974c:	3207      	adds	r2, #7
    974e:	6062      	str	r2, [r4, #4]
    9750:	9a0c      	ldr	r2, [sp, #48]	; 0x30
    9752:	2100      	movs	r1, #0
    9754:	4313      	orrs	r3, r2
    9756:	aa12      	add	r2, sp, #72	; 0x48
    9758:	9205      	str	r2, [sp, #20]
    975a:	aa11      	add	r2, sp, #68	; 0x44
    975c:	9203      	str	r2, [sp, #12]
    975e:	2223      	movs	r2, #35	; 0x23
    9760:	6023      	str	r3, [r4, #0]
    9762:	9106      	str	r1, [sp, #24]
    9764:	9301      	str	r3, [sp, #4]
    9766:	a908      	add	r1, sp, #32
    9768:	6863      	ldr	r3, [r4, #4]
    976a:	1852      	adds	r2, r2, r1
    976c:	9202      	str	r2, [sp, #8]
    976e:	9300      	str	r3, [sp, #0]
    9770:	0032      	movs	r2, r6
    9772:	002b      	movs	r3, r5
    9774:	9704      	str	r7, [sp, #16]
    9776:	9809      	ldr	r0, [sp, #36]	; 0x24
    9778:	f7ff fee4 	bl	9544 <__cvt>
    977c:	2320      	movs	r3, #32
    977e:	003a      	movs	r2, r7
    9780:	0005      	movs	r5, r0
    9782:	439a      	bics	r2, r3
    9784:	2a47      	cmp	r2, #71	; 0x47
    9786:	d107      	bne.n	9798 <_printf_float+0x11c>
    9788:	9b11      	ldr	r3, [sp, #68]	; 0x44
    978a:	1cda      	adds	r2, r3, #3
    978c:	db02      	blt.n	9794 <_printf_float+0x118>
    978e:	6862      	ldr	r2, [r4, #4]
    9790:	4293      	cmp	r3, r2
    9792:	dd5b      	ble.n	984c <_printf_float+0x1d0>
    9794:	3f02      	subs	r7, #2
    9796:	b2ff      	uxtb	r7, r7
    9798:	9911      	ldr	r1, [sp, #68]	; 0x44
    979a:	2f65      	cmp	r7, #101	; 0x65
    979c:	d83b      	bhi.n	9816 <_printf_float+0x19a>
    979e:	0020      	movs	r0, r4
    97a0:	3901      	subs	r1, #1
    97a2:	003a      	movs	r2, r7
    97a4:	3050      	adds	r0, #80	; 0x50
    97a6:	9111      	str	r1, [sp, #68]	; 0x44
    97a8:	f7ff ff30 	bl	960c <__exponent>
    97ac:	9a12      	ldr	r2, [sp, #72]	; 0x48
    97ae:	0006      	movs	r6, r0
    97b0:	1883      	adds	r3, r0, r2
    97b2:	6123      	str	r3, [r4, #16]
    97b4:	2a01      	cmp	r2, #1
    97b6:	dc02      	bgt.n	97be <_printf_float+0x142>
    97b8:	6822      	ldr	r2, [r4, #0]
    97ba:	07d2      	lsls	r2, r2, #31
    97bc:	d501      	bpl.n	97c2 <_printf_float+0x146>
    97be:	3301      	adds	r3, #1
    97c0:	6123      	str	r3, [r4, #16]
    97c2:	2323      	movs	r3, #35	; 0x23
    97c4:	aa08      	add	r2, sp, #32
    97c6:	189b      	adds	r3, r3, r2
    97c8:	781b      	ldrb	r3, [r3, #0]
    97ca:	2b00      	cmp	r3, #0
    97cc:	d0a8      	beq.n	9720 <_printf_float+0xa4>
    97ce:	0023      	movs	r3, r4
    97d0:	222d      	movs	r2, #45	; 0x2d
    97d2:	3343      	adds	r3, #67	; 0x43
    97d4:	701a      	strb	r2, [r3, #0]
    97d6:	e7a3      	b.n	9720 <_printf_float+0xa4>
    97d8:	2f67      	cmp	r7, #103	; 0x67
    97da:	d001      	beq.n	97e0 <_printf_float+0x164>
    97dc:	2f47      	cmp	r7, #71	; 0x47
    97de:	d1b7      	bne.n	9750 <_printf_float+0xd4>
    97e0:	2a00      	cmp	r2, #0
    97e2:	d016      	beq.n	9812 <_printf_float+0x196>
    97e4:	990c      	ldr	r1, [sp, #48]	; 0x30
    97e6:	a808      	add	r0, sp, #32
    97e8:	430b      	orrs	r3, r1
    97ea:	2100      	movs	r1, #0
    97ec:	9106      	str	r1, [sp, #24]
    97ee:	a912      	add	r1, sp, #72	; 0x48
    97f0:	9105      	str	r1, [sp, #20]
    97f2:	a911      	add	r1, sp, #68	; 0x44
    97f4:	9103      	str	r1, [sp, #12]
    97f6:	2123      	movs	r1, #35	; 0x23
    97f8:	1809      	adds	r1, r1, r0
    97fa:	6023      	str	r3, [r4, #0]
    97fc:	9301      	str	r3, [sp, #4]
    97fe:	9200      	str	r2, [sp, #0]
    9800:	002b      	movs	r3, r5
    9802:	9704      	str	r7, [sp, #16]
    9804:	9102      	str	r1, [sp, #8]
    9806:	0032      	movs	r2, r6
    9808:	9809      	ldr	r0, [sp, #36]	; 0x24
    980a:	f7ff fe9b 	bl	9544 <__cvt>
    980e:	0005      	movs	r5, r0
    9810:	e7ba      	b.n	9788 <_printf_float+0x10c>
    9812:	2201      	movs	r2, #1
    9814:	e79b      	b.n	974e <_printf_float+0xd2>
    9816:	2f66      	cmp	r7, #102	; 0x66
    9818:	d119      	bne.n	984e <_printf_float+0x1d2>
    981a:	6863      	ldr	r3, [r4, #4]
    981c:	2900      	cmp	r1, #0
    981e:	dd0c      	ble.n	983a <_printf_float+0x1be>
    9820:	6121      	str	r1, [r4, #16]
    9822:	2b00      	cmp	r3, #0
    9824:	d102      	bne.n	982c <_printf_float+0x1b0>
    9826:	6822      	ldr	r2, [r4, #0]
    9828:	07d2      	lsls	r2, r2, #31
    982a:	d502      	bpl.n	9832 <_printf_float+0x1b6>
    982c:	3301      	adds	r3, #1
    982e:	185b      	adds	r3, r3, r1
    9830:	6123      	str	r3, [r4, #16]
    9832:	9b11      	ldr	r3, [sp, #68]	; 0x44
    9834:	2600      	movs	r6, #0
    9836:	65a3      	str	r3, [r4, #88]	; 0x58
    9838:	e7c3      	b.n	97c2 <_printf_float+0x146>
    983a:	2b00      	cmp	r3, #0
    983c:	d103      	bne.n	9846 <_printf_float+0x1ca>
    983e:	2201      	movs	r2, #1
    9840:	6821      	ldr	r1, [r4, #0]
    9842:	4211      	tst	r1, r2
    9844:	d000      	beq.n	9848 <_printf_float+0x1cc>
    9846:	1c9a      	adds	r2, r3, #2
    9848:	6122      	str	r2, [r4, #16]
    984a:	e7f2      	b.n	9832 <_printf_float+0x1b6>
    984c:	2767      	movs	r7, #103	; 0x67
    984e:	9b11      	ldr	r3, [sp, #68]	; 0x44
    9850:	9812      	ldr	r0, [sp, #72]	; 0x48
    9852:	4283      	cmp	r3, r0
    9854:	db05      	blt.n	9862 <_printf_float+0x1e6>
    9856:	6822      	ldr	r2, [r4, #0]
    9858:	6123      	str	r3, [r4, #16]
    985a:	07d2      	lsls	r2, r2, #31
    985c:	d5e9      	bpl.n	9832 <_printf_float+0x1b6>
    985e:	3301      	adds	r3, #1
    9860:	e7e6      	b.n	9830 <_printf_float+0x1b4>
    9862:	2201      	movs	r2, #1
    9864:	2b00      	cmp	r3, #0
    9866:	dc01      	bgt.n	986c <_printf_float+0x1f0>
    9868:	1892      	adds	r2, r2, r2
    986a:	1ad2      	subs	r2, r2, r3
    986c:	1812      	adds	r2, r2, r0
    986e:	e7eb      	b.n	9848 <_printf_float+0x1cc>
    9870:	6822      	ldr	r2, [r4, #0]
    9872:	0553      	lsls	r3, r2, #21
    9874:	d408      	bmi.n	9888 <_printf_float+0x20c>
    9876:	6923      	ldr	r3, [r4, #16]
    9878:	002a      	movs	r2, r5
    987a:	990a      	ldr	r1, [sp, #40]	; 0x28
    987c:	9809      	ldr	r0, [sp, #36]	; 0x24
    987e:	9d0b      	ldr	r5, [sp, #44]	; 0x2c
    9880:	47a8      	blx	r5
    9882:	1c43      	adds	r3, r0, #1
    9884:	d129      	bne.n	98da <_printf_float+0x25e>
    9886:	e756      	b.n	9736 <_printf_float+0xba>
    9888:	2f65      	cmp	r7, #101	; 0x65
    988a:	d800      	bhi.n	988e <_printf_float+0x212>
    988c:	e0dc      	b.n	9a48 <_printf_float+0x3cc>
    988e:	6ca0      	ldr	r0, [r4, #72]	; 0x48
    9890:	6ce1      	ldr	r1, [r4, #76]	; 0x4c
    9892:	2200      	movs	r2, #0
    9894:	2300      	movs	r3, #0
    9896:	f7fd ff6d 	bl	7774 <__aeabi_dcmpeq>
    989a:	2800      	cmp	r0, #0
    989c:	d035      	beq.n	990a <_printf_float+0x28e>
    989e:	2301      	movs	r3, #1
    98a0:	4a35      	ldr	r2, [pc, #212]	; (9978 <_printf_float+0x2fc>)
    98a2:	990a      	ldr	r1, [sp, #40]	; 0x28
    98a4:	9809      	ldr	r0, [sp, #36]	; 0x24
    98a6:	9d0b      	ldr	r5, [sp, #44]	; 0x2c
    98a8:	47a8      	blx	r5
    98aa:	1c43      	adds	r3, r0, #1
    98ac:	d100      	bne.n	98b0 <_printf_float+0x234>
    98ae:	e742      	b.n	9736 <_printf_float+0xba>
    98b0:	9b11      	ldr	r3, [sp, #68]	; 0x44
    98b2:	9a12      	ldr	r2, [sp, #72]	; 0x48
    98b4:	4293      	cmp	r3, r2
    98b6:	db02      	blt.n	98be <_printf_float+0x242>
    98b8:	6823      	ldr	r3, [r4, #0]
    98ba:	07db      	lsls	r3, r3, #31
    98bc:	d50d      	bpl.n	98da <_printf_float+0x25e>
    98be:	9d0b      	ldr	r5, [sp, #44]	; 0x2c
    98c0:	9b0e      	ldr	r3, [sp, #56]	; 0x38
    98c2:	9a0d      	ldr	r2, [sp, #52]	; 0x34
    98c4:	990a      	ldr	r1, [sp, #40]	; 0x28
    98c6:	9809      	ldr	r0, [sp, #36]	; 0x24
    98c8:	47a8      	blx	r5
    98ca:	2500      	movs	r5, #0
    98cc:	1c43      	adds	r3, r0, #1
    98ce:	d100      	bne.n	98d2 <_printf_float+0x256>
    98d0:	e731      	b.n	9736 <_printf_float+0xba>
    98d2:	9b12      	ldr	r3, [sp, #72]	; 0x48
    98d4:	3b01      	subs	r3, #1
    98d6:	429d      	cmp	r5, r3
    98d8:	db0b      	blt.n	98f2 <_printf_float+0x276>
    98da:	6823      	ldr	r3, [r4, #0]
    98dc:	2500      	movs	r5, #0
    98de:	079b      	lsls	r3, r3, #30
    98e0:	d500      	bpl.n	98e4 <_printf_float+0x268>
    98e2:	e0fd      	b.n	9ae0 <_printf_float+0x464>
    98e4:	9b13      	ldr	r3, [sp, #76]	; 0x4c
    98e6:	68e0      	ldr	r0, [r4, #12]
    98e8:	4298      	cmp	r0, r3
    98ea:	db00      	blt.n	98ee <_printf_float+0x272>
    98ec:	e725      	b.n	973a <_printf_float+0xbe>
    98ee:	0018      	movs	r0, r3
    98f0:	e723      	b.n	973a <_printf_float+0xbe>
    98f2:	0022      	movs	r2, r4
    98f4:	2301      	movs	r3, #1
    98f6:	321a      	adds	r2, #26
    98f8:	990a      	ldr	r1, [sp, #40]	; 0x28
    98fa:	9809      	ldr	r0, [sp, #36]	; 0x24
    98fc:	9e0b      	ldr	r6, [sp, #44]	; 0x2c
    98fe:	47b0      	blx	r6
    9900:	1c43      	adds	r3, r0, #1
    9902:	d100      	bne.n	9906 <_printf_float+0x28a>
    9904:	e717      	b.n	9736 <_printf_float+0xba>
    9906:	3501      	adds	r5, #1
    9908:	e7e3      	b.n	98d2 <_printf_float+0x256>
    990a:	9b11      	ldr	r3, [sp, #68]	; 0x44
    990c:	2b00      	cmp	r3, #0
    990e:	dc35      	bgt.n	997c <_printf_float+0x300>
    9910:	2301      	movs	r3, #1
    9912:	4a19      	ldr	r2, [pc, #100]	; (9978 <_printf_float+0x2fc>)
    9914:	990a      	ldr	r1, [sp, #40]	; 0x28
    9916:	9809      	ldr	r0, [sp, #36]	; 0x24
    9918:	9e0b      	ldr	r6, [sp, #44]	; 0x2c
    991a:	47b0      	blx	r6
    991c:	1c43      	adds	r3, r0, #1
    991e:	d100      	bne.n	9922 <_printf_float+0x2a6>
    9920:	e709      	b.n	9736 <_printf_float+0xba>
    9922:	9b11      	ldr	r3, [sp, #68]	; 0x44
    9924:	2b00      	cmp	r3, #0
    9926:	d105      	bne.n	9934 <_printf_float+0x2b8>
    9928:	9b12      	ldr	r3, [sp, #72]	; 0x48
    992a:	2b00      	cmp	r3, #0
    992c:	d102      	bne.n	9934 <_printf_float+0x2b8>
    992e:	6823      	ldr	r3, [r4, #0]
    9930:	07db      	lsls	r3, r3, #31
    9932:	d5d2      	bpl.n	98da <_printf_float+0x25e>
    9934:	9e0b      	ldr	r6, [sp, #44]	; 0x2c
    9936:	9b0e      	ldr	r3, [sp, #56]	; 0x38
    9938:	9a0d      	ldr	r2, [sp, #52]	; 0x34
    993a:	990a      	ldr	r1, [sp, #40]	; 0x28
    993c:	9809      	ldr	r0, [sp, #36]	; 0x24
    993e:	47b0      	blx	r6
    9940:	2600      	movs	r6, #0
    9942:	1c43      	adds	r3, r0, #1
    9944:	d100      	bne.n	9948 <_printf_float+0x2cc>
    9946:	e6f6      	b.n	9736 <_printf_float+0xba>
    9948:	9b11      	ldr	r3, [sp, #68]	; 0x44
    994a:	425b      	negs	r3, r3
    994c:	429e      	cmp	r6, r3
    994e:	db01      	blt.n	9954 <_printf_float+0x2d8>
    9950:	9b12      	ldr	r3, [sp, #72]	; 0x48
    9952:	e791      	b.n	9878 <_printf_float+0x1fc>
    9954:	0022      	movs	r2, r4
    9956:	2301      	movs	r3, #1
    9958:	321a      	adds	r2, #26
    995a:	990a      	ldr	r1, [sp, #40]	; 0x28
    995c:	9809      	ldr	r0, [sp, #36]	; 0x24
    995e:	9f0b      	ldr	r7, [sp, #44]	; 0x2c
    9960:	47b8      	blx	r7
    9962:	1c43      	adds	r3, r0, #1
    9964:	d100      	bne.n	9968 <_printf_float+0x2ec>
    9966:	e6e6      	b.n	9736 <_printf_float+0xba>
    9968:	3601      	adds	r6, #1
    996a:	e7ed      	b.n	9948 <_printf_float+0x2cc>
    996c:	7fefffff 	.word	0x7fefffff
    9970:	0000be68 	.word	0x0000be68
    9974:	0000be64 	.word	0x0000be64
    9978:	0000b853 	.word	0x0000b853
    997c:	6da3      	ldr	r3, [r4, #88]	; 0x58
    997e:	9e12      	ldr	r6, [sp, #72]	; 0x48
    9980:	429e      	cmp	r6, r3
    9982:	dd00      	ble.n	9986 <_printf_float+0x30a>
    9984:	001e      	movs	r6, r3
    9986:	2e00      	cmp	r6, #0
    9988:	dc35      	bgt.n	99f6 <_printf_float+0x37a>
    998a:	2300      	movs	r3, #0
    998c:	930c      	str	r3, [sp, #48]	; 0x30
    998e:	43f3      	mvns	r3, r6
    9990:	17db      	asrs	r3, r3, #31
    9992:	930f      	str	r3, [sp, #60]	; 0x3c
    9994:	9b0f      	ldr	r3, [sp, #60]	; 0x3c
    9996:	6da7      	ldr	r7, [r4, #88]	; 0x58
    9998:	9a0c      	ldr	r2, [sp, #48]	; 0x30
    999a:	4033      	ands	r3, r6
    999c:	1afb      	subs	r3, r7, r3
    999e:	429a      	cmp	r2, r3
    99a0:	db32      	blt.n	9a08 <_printf_float+0x38c>
    99a2:	9b11      	ldr	r3, [sp, #68]	; 0x44
    99a4:	9a12      	ldr	r2, [sp, #72]	; 0x48
    99a6:	4293      	cmp	r3, r2
    99a8:	db3c      	blt.n	9a24 <_printf_float+0x3a8>
    99aa:	6823      	ldr	r3, [r4, #0]
    99ac:	07db      	lsls	r3, r3, #31
    99ae:	d439      	bmi.n	9a24 <_printf_float+0x3a8>
    99b0:	9e12      	ldr	r6, [sp, #72]	; 0x48
    99b2:	9a11      	ldr	r2, [sp, #68]	; 0x44
    99b4:	1bf3      	subs	r3, r6, r7
    99b6:	1ab6      	subs	r6, r6, r2
    99b8:	429e      	cmp	r6, r3
    99ba:	dd00      	ble.n	99be <_printf_float+0x342>
    99bc:	001e      	movs	r6, r3
    99be:	2e00      	cmp	r6, #0
    99c0:	dc39      	bgt.n	9a36 <_printf_float+0x3ba>
    99c2:	43f7      	mvns	r7, r6
    99c4:	2500      	movs	r5, #0
    99c6:	17fb      	asrs	r3, r7, #31
    99c8:	930c      	str	r3, [sp, #48]	; 0x30
    99ca:	9a11      	ldr	r2, [sp, #68]	; 0x44
    99cc:	9b12      	ldr	r3, [sp, #72]	; 0x48
    99ce:	990c      	ldr	r1, [sp, #48]	; 0x30
    99d0:	1a9b      	subs	r3, r3, r2
    99d2:	0032      	movs	r2, r6
    99d4:	400a      	ands	r2, r1
    99d6:	1a9b      	subs	r3, r3, r2
    99d8:	429d      	cmp	r5, r3
    99da:	db00      	blt.n	99de <_printf_float+0x362>
    99dc:	e77d      	b.n	98da <_printf_float+0x25e>
    99de:	0022      	movs	r2, r4
    99e0:	2301      	movs	r3, #1
    99e2:	321a      	adds	r2, #26
    99e4:	990a      	ldr	r1, [sp, #40]	; 0x28
    99e6:	9809      	ldr	r0, [sp, #36]	; 0x24
    99e8:	9f0b      	ldr	r7, [sp, #44]	; 0x2c
    99ea:	47b8      	blx	r7
    99ec:	1c43      	adds	r3, r0, #1
    99ee:	d100      	bne.n	99f2 <_printf_float+0x376>
    99f0:	e6a1      	b.n	9736 <_printf_float+0xba>
    99f2:	3501      	adds	r5, #1
    99f4:	e7e9      	b.n	99ca <_printf_float+0x34e>
    99f6:	0033      	movs	r3, r6
    99f8:	002a      	movs	r2, r5
    99fa:	990a      	ldr	r1, [sp, #40]	; 0x28
    99fc:	9809      	ldr	r0, [sp, #36]	; 0x24
    99fe:	9f0b      	ldr	r7, [sp, #44]	; 0x2c
    9a00:	47b8      	blx	r7
    9a02:	1c43      	adds	r3, r0, #1
    9a04:	d1c1      	bne.n	998a <_printf_float+0x30e>
    9a06:	e696      	b.n	9736 <_printf_float+0xba>
    9a08:	0022      	movs	r2, r4
    9a0a:	2301      	movs	r3, #1
    9a0c:	321a      	adds	r2, #26
    9a0e:	990a      	ldr	r1, [sp, #40]	; 0x28
    9a10:	9809      	ldr	r0, [sp, #36]	; 0x24
    9a12:	9f0b      	ldr	r7, [sp, #44]	; 0x2c
    9a14:	47b8      	blx	r7
    9a16:	1c43      	adds	r3, r0, #1
    9a18:	d100      	bne.n	9a1c <_printf_float+0x3a0>
    9a1a:	e68c      	b.n	9736 <_printf_float+0xba>
    9a1c:	9b0c      	ldr	r3, [sp, #48]	; 0x30
    9a1e:	3301      	adds	r3, #1
    9a20:	930c      	str	r3, [sp, #48]	; 0x30
    9a22:	e7b7      	b.n	9994 <_printf_float+0x318>
    9a24:	9b0e      	ldr	r3, [sp, #56]	; 0x38
    9a26:	9a0d      	ldr	r2, [sp, #52]	; 0x34
    9a28:	990a      	ldr	r1, [sp, #40]	; 0x28
    9a2a:	9809      	ldr	r0, [sp, #36]	; 0x24
    9a2c:	9e0b      	ldr	r6, [sp, #44]	; 0x2c
    9a2e:	47b0      	blx	r6
    9a30:	1c43      	adds	r3, r0, #1
    9a32:	d1bd      	bne.n	99b0 <_printf_float+0x334>
    9a34:	e67f      	b.n	9736 <_printf_float+0xba>
    9a36:	19ea      	adds	r2, r5, r7
    9a38:	0033      	movs	r3, r6
    9a3a:	990a      	ldr	r1, [sp, #40]	; 0x28
    9a3c:	9809      	ldr	r0, [sp, #36]	; 0x24
    9a3e:	9d0b      	ldr	r5, [sp, #44]	; 0x2c
    9a40:	47a8      	blx	r5
    9a42:	1c43      	adds	r3, r0, #1
    9a44:	d1bd      	bne.n	99c2 <_printf_float+0x346>
    9a46:	e676      	b.n	9736 <_printf_float+0xba>
    9a48:	9b12      	ldr	r3, [sp, #72]	; 0x48
    9a4a:	2b01      	cmp	r3, #1
    9a4c:	dc02      	bgt.n	9a54 <_printf_float+0x3d8>
    9a4e:	2301      	movs	r3, #1
    9a50:	421a      	tst	r2, r3
    9a52:	d038      	beq.n	9ac6 <_printf_float+0x44a>
    9a54:	2301      	movs	r3, #1
    9a56:	002a      	movs	r2, r5
    9a58:	990a      	ldr	r1, [sp, #40]	; 0x28
    9a5a:	9809      	ldr	r0, [sp, #36]	; 0x24
    9a5c:	9f0b      	ldr	r7, [sp, #44]	; 0x2c
    9a5e:	47b8      	blx	r7
    9a60:	1c43      	adds	r3, r0, #1
    9a62:	d100      	bne.n	9a66 <_printf_float+0x3ea>
    9a64:	e667      	b.n	9736 <_printf_float+0xba>
    9a66:	9b0e      	ldr	r3, [sp, #56]	; 0x38
    9a68:	9a0d      	ldr	r2, [sp, #52]	; 0x34
    9a6a:	990a      	ldr	r1, [sp, #40]	; 0x28
    9a6c:	9809      	ldr	r0, [sp, #36]	; 0x24
    9a6e:	9f0b      	ldr	r7, [sp, #44]	; 0x2c
    9a70:	47b8      	blx	r7
    9a72:	1c43      	adds	r3, r0, #1
    9a74:	d100      	bne.n	9a78 <_printf_float+0x3fc>
    9a76:	e65e      	b.n	9736 <_printf_float+0xba>
    9a78:	6ca0      	ldr	r0, [r4, #72]	; 0x48
    9a7a:	6ce1      	ldr	r1, [r4, #76]	; 0x4c
    9a7c:	2200      	movs	r2, #0
    9a7e:	2300      	movs	r3, #0
    9a80:	f7fd fe78 	bl	7774 <__aeabi_dcmpeq>
    9a84:	2800      	cmp	r0, #0
    9a86:	d008      	beq.n	9a9a <_printf_float+0x41e>
    9a88:	2500      	movs	r5, #0
    9a8a:	9b12      	ldr	r3, [sp, #72]	; 0x48
    9a8c:	3b01      	subs	r3, #1
    9a8e:	429d      	cmp	r5, r3
    9a90:	db0d      	blt.n	9aae <_printf_float+0x432>
    9a92:	0022      	movs	r2, r4
    9a94:	0033      	movs	r3, r6
    9a96:	3250      	adds	r2, #80	; 0x50
    9a98:	e6ef      	b.n	987a <_printf_float+0x1fe>
    9a9a:	9b12      	ldr	r3, [sp, #72]	; 0x48
    9a9c:	1c6a      	adds	r2, r5, #1
    9a9e:	3b01      	subs	r3, #1
    9aa0:	990a      	ldr	r1, [sp, #40]	; 0x28
    9aa2:	9809      	ldr	r0, [sp, #36]	; 0x24
    9aa4:	9d0b      	ldr	r5, [sp, #44]	; 0x2c
    9aa6:	47a8      	blx	r5
    9aa8:	1c43      	adds	r3, r0, #1
    9aaa:	d1f2      	bne.n	9a92 <_printf_float+0x416>
    9aac:	e643      	b.n	9736 <_printf_float+0xba>
    9aae:	0022      	movs	r2, r4
    9ab0:	2301      	movs	r3, #1
    9ab2:	321a      	adds	r2, #26
    9ab4:	990a      	ldr	r1, [sp, #40]	; 0x28
    9ab6:	9809      	ldr	r0, [sp, #36]	; 0x24
    9ab8:	9f0b      	ldr	r7, [sp, #44]	; 0x2c
    9aba:	47b8      	blx	r7
    9abc:	1c43      	adds	r3, r0, #1
    9abe:	d100      	bne.n	9ac2 <_printf_float+0x446>
    9ac0:	e639      	b.n	9736 <_printf_float+0xba>
    9ac2:	3501      	adds	r5, #1
    9ac4:	e7e1      	b.n	9a8a <_printf_float+0x40e>
    9ac6:	002a      	movs	r2, r5
    9ac8:	e7ea      	b.n	9aa0 <_printf_float+0x424>
    9aca:	0022      	movs	r2, r4
    9acc:	2301      	movs	r3, #1
    9ace:	3219      	adds	r2, #25
    9ad0:	990a      	ldr	r1, [sp, #40]	; 0x28
    9ad2:	9809      	ldr	r0, [sp, #36]	; 0x24
    9ad4:	9e0b      	ldr	r6, [sp, #44]	; 0x2c
    9ad6:	47b0      	blx	r6
    9ad8:	1c43      	adds	r3, r0, #1
    9ada:	d100      	bne.n	9ade <_printf_float+0x462>
    9adc:	e62b      	b.n	9736 <_printf_float+0xba>
    9ade:	3501      	adds	r5, #1
    9ae0:	68e3      	ldr	r3, [r4, #12]
    9ae2:	9a13      	ldr	r2, [sp, #76]	; 0x4c
    9ae4:	1a9b      	subs	r3, r3, r2
    9ae6:	429d      	cmp	r5, r3
    9ae8:	dbef      	blt.n	9aca <_printf_float+0x44e>
    9aea:	e6fb      	b.n	98e4 <_printf_float+0x268>
    9aec:	0032      	movs	r2, r6
    9aee:	002b      	movs	r3, r5
    9af0:	0030      	movs	r0, r6
    9af2:	0029      	movs	r1, r5
    9af4:	f7ff fb46 	bl	9184 <__aeabi_dcmpun>
    9af8:	2800      	cmp	r0, #0
    9afa:	d100      	bne.n	9afe <_printf_float+0x482>
    9afc:	e621      	b.n	9742 <_printf_float+0xc6>
    9afe:	4d03      	ldr	r5, [pc, #12]	; (9b0c <_printf_float+0x490>)
    9b00:	2f47      	cmp	r7, #71	; 0x47
    9b02:	d900      	bls.n	9b06 <_printf_float+0x48a>
    9b04:	e605      	b.n	9712 <_printf_float+0x96>
    9b06:	4d02      	ldr	r5, [pc, #8]	; (9b10 <_printf_float+0x494>)
    9b08:	e603      	b.n	9712 <_printf_float+0x96>
    9b0a:	46c0      	nop			; (mov r8, r8)
    9b0c:	0000be70 	.word	0x0000be70
    9b10:	0000be6c 	.word	0x0000be6c

00009b14 <_printf_common>:
    9b14:	b5f7      	push	{r0, r1, r2, r4, r5, r6, r7, lr}
    9b16:	0015      	movs	r5, r2
    9b18:	9301      	str	r3, [sp, #4]
    9b1a:	688a      	ldr	r2, [r1, #8]
    9b1c:	690b      	ldr	r3, [r1, #16]
    9b1e:	9000      	str	r0, [sp, #0]
    9b20:	000c      	movs	r4, r1
    9b22:	4293      	cmp	r3, r2
    9b24:	da00      	bge.n	9b28 <_printf_common+0x14>
    9b26:	0013      	movs	r3, r2
    9b28:	0022      	movs	r2, r4
    9b2a:	602b      	str	r3, [r5, #0]
    9b2c:	3243      	adds	r2, #67	; 0x43
    9b2e:	7812      	ldrb	r2, [r2, #0]
    9b30:	2a00      	cmp	r2, #0
    9b32:	d001      	beq.n	9b38 <_printf_common+0x24>
    9b34:	3301      	adds	r3, #1
    9b36:	602b      	str	r3, [r5, #0]
    9b38:	6823      	ldr	r3, [r4, #0]
    9b3a:	069b      	lsls	r3, r3, #26
    9b3c:	d502      	bpl.n	9b44 <_printf_common+0x30>
    9b3e:	682b      	ldr	r3, [r5, #0]
    9b40:	3302      	adds	r3, #2
    9b42:	602b      	str	r3, [r5, #0]
    9b44:	2706      	movs	r7, #6
    9b46:	6823      	ldr	r3, [r4, #0]
    9b48:	401f      	ands	r7, r3
    9b4a:	d027      	beq.n	9b9c <_printf_common+0x88>
    9b4c:	0023      	movs	r3, r4
    9b4e:	3343      	adds	r3, #67	; 0x43
    9b50:	781b      	ldrb	r3, [r3, #0]
    9b52:	1e5a      	subs	r2, r3, #1
    9b54:	4193      	sbcs	r3, r2
    9b56:	6822      	ldr	r2, [r4, #0]
    9b58:	0692      	lsls	r2, r2, #26
    9b5a:	d430      	bmi.n	9bbe <_printf_common+0xaa>
    9b5c:	0022      	movs	r2, r4
    9b5e:	9901      	ldr	r1, [sp, #4]
    9b60:	3243      	adds	r2, #67	; 0x43
    9b62:	9800      	ldr	r0, [sp, #0]
    9b64:	9e08      	ldr	r6, [sp, #32]
    9b66:	47b0      	blx	r6
    9b68:	1c43      	adds	r3, r0, #1
    9b6a:	d025      	beq.n	9bb8 <_printf_common+0xa4>
    9b6c:	2306      	movs	r3, #6
    9b6e:	6820      	ldr	r0, [r4, #0]
    9b70:	682a      	ldr	r2, [r5, #0]
    9b72:	68e1      	ldr	r1, [r4, #12]
    9b74:	4003      	ands	r3, r0
    9b76:	2500      	movs	r5, #0
    9b78:	2b04      	cmp	r3, #4
    9b7a:	d103      	bne.n	9b84 <_printf_common+0x70>
    9b7c:	1a8d      	subs	r5, r1, r2
    9b7e:	43eb      	mvns	r3, r5
    9b80:	17db      	asrs	r3, r3, #31
    9b82:	401d      	ands	r5, r3
    9b84:	68a3      	ldr	r3, [r4, #8]
    9b86:	6922      	ldr	r2, [r4, #16]
    9b88:	4293      	cmp	r3, r2
    9b8a:	dd01      	ble.n	9b90 <_printf_common+0x7c>
    9b8c:	1a9b      	subs	r3, r3, r2
    9b8e:	18ed      	adds	r5, r5, r3
    9b90:	2700      	movs	r7, #0
    9b92:	42bd      	cmp	r5, r7
    9b94:	d120      	bne.n	9bd8 <_printf_common+0xc4>
    9b96:	2000      	movs	r0, #0
    9b98:	e010      	b.n	9bbc <_printf_common+0xa8>
    9b9a:	3701      	adds	r7, #1
    9b9c:	68e3      	ldr	r3, [r4, #12]
    9b9e:	682a      	ldr	r2, [r5, #0]
    9ba0:	1a9b      	subs	r3, r3, r2
    9ba2:	429f      	cmp	r7, r3
    9ba4:	dad2      	bge.n	9b4c <_printf_common+0x38>
    9ba6:	0022      	movs	r2, r4
    9ba8:	2301      	movs	r3, #1
    9baa:	3219      	adds	r2, #25
    9bac:	9901      	ldr	r1, [sp, #4]
    9bae:	9800      	ldr	r0, [sp, #0]
    9bb0:	9e08      	ldr	r6, [sp, #32]
    9bb2:	47b0      	blx	r6
    9bb4:	1c43      	adds	r3, r0, #1
    9bb6:	d1f0      	bne.n	9b9a <_printf_common+0x86>
    9bb8:	2001      	movs	r0, #1
    9bba:	4240      	negs	r0, r0
    9bbc:	bdfe      	pop	{r1, r2, r3, r4, r5, r6, r7, pc}
    9bbe:	2030      	movs	r0, #48	; 0x30
    9bc0:	18e1      	adds	r1, r4, r3
    9bc2:	3143      	adds	r1, #67	; 0x43
    9bc4:	7008      	strb	r0, [r1, #0]
    9bc6:	0021      	movs	r1, r4
    9bc8:	1c5a      	adds	r2, r3, #1
    9bca:	3145      	adds	r1, #69	; 0x45
    9bcc:	7809      	ldrb	r1, [r1, #0]
    9bce:	18a2      	adds	r2, r4, r2
    9bd0:	3243      	adds	r2, #67	; 0x43
    9bd2:	3302      	adds	r3, #2
    9bd4:	7011      	strb	r1, [r2, #0]
    9bd6:	e7c1      	b.n	9b5c <_printf_common+0x48>
    9bd8:	0022      	movs	r2, r4
    9bda:	2301      	movs	r3, #1
    9bdc:	321a      	adds	r2, #26
    9bde:	9901      	ldr	r1, [sp, #4]
    9be0:	9800      	ldr	r0, [sp, #0]
    9be2:	9e08      	ldr	r6, [sp, #32]
    9be4:	47b0      	blx	r6
    9be6:	1c43      	adds	r3, r0, #1
    9be8:	d0e6      	beq.n	9bb8 <_printf_common+0xa4>
    9bea:	3701      	adds	r7, #1
    9bec:	e7d1      	b.n	9b92 <_printf_common+0x7e>
	...

00009bf0 <_printf_i>:
    9bf0:	b5f0      	push	{r4, r5, r6, r7, lr}
    9bf2:	b08b      	sub	sp, #44	; 0x2c
    9bf4:	9206      	str	r2, [sp, #24]
    9bf6:	000a      	movs	r2, r1
    9bf8:	3243      	adds	r2, #67	; 0x43
    9bfa:	9307      	str	r3, [sp, #28]
    9bfc:	9005      	str	r0, [sp, #20]
    9bfe:	9204      	str	r2, [sp, #16]
    9c00:	7e0a      	ldrb	r2, [r1, #24]
    9c02:	000c      	movs	r4, r1
    9c04:	9b10      	ldr	r3, [sp, #64]	; 0x40
    9c06:	2a6e      	cmp	r2, #110	; 0x6e
    9c08:	d100      	bne.n	9c0c <_printf_i+0x1c>
    9c0a:	e08f      	b.n	9d2c <_printf_i+0x13c>
    9c0c:	d817      	bhi.n	9c3e <_printf_i+0x4e>
    9c0e:	2a63      	cmp	r2, #99	; 0x63
    9c10:	d02c      	beq.n	9c6c <_printf_i+0x7c>
    9c12:	d808      	bhi.n	9c26 <_printf_i+0x36>
    9c14:	2a00      	cmp	r2, #0
    9c16:	d100      	bne.n	9c1a <_printf_i+0x2a>
    9c18:	e099      	b.n	9d4e <_printf_i+0x15e>
    9c1a:	2a58      	cmp	r2, #88	; 0x58
    9c1c:	d054      	beq.n	9cc8 <_printf_i+0xd8>
    9c1e:	0026      	movs	r6, r4
    9c20:	3642      	adds	r6, #66	; 0x42
    9c22:	7032      	strb	r2, [r6, #0]
    9c24:	e029      	b.n	9c7a <_printf_i+0x8a>
    9c26:	2a64      	cmp	r2, #100	; 0x64
    9c28:	d001      	beq.n	9c2e <_printf_i+0x3e>
    9c2a:	2a69      	cmp	r2, #105	; 0x69
    9c2c:	d1f7      	bne.n	9c1e <_printf_i+0x2e>
    9c2e:	6821      	ldr	r1, [r4, #0]
    9c30:	681a      	ldr	r2, [r3, #0]
    9c32:	0608      	lsls	r0, r1, #24
    9c34:	d523      	bpl.n	9c7e <_printf_i+0x8e>
    9c36:	1d11      	adds	r1, r2, #4
    9c38:	6019      	str	r1, [r3, #0]
    9c3a:	6815      	ldr	r5, [r2, #0]
    9c3c:	e025      	b.n	9c8a <_printf_i+0x9a>
    9c3e:	2a73      	cmp	r2, #115	; 0x73
    9c40:	d100      	bne.n	9c44 <_printf_i+0x54>
    9c42:	e088      	b.n	9d56 <_printf_i+0x166>
    9c44:	d808      	bhi.n	9c58 <_printf_i+0x68>
    9c46:	2a6f      	cmp	r2, #111	; 0x6f
    9c48:	d029      	beq.n	9c9e <_printf_i+0xae>
    9c4a:	2a70      	cmp	r2, #112	; 0x70
    9c4c:	d1e7      	bne.n	9c1e <_printf_i+0x2e>
    9c4e:	2220      	movs	r2, #32
    9c50:	6809      	ldr	r1, [r1, #0]
    9c52:	430a      	orrs	r2, r1
    9c54:	6022      	str	r2, [r4, #0]
    9c56:	e003      	b.n	9c60 <_printf_i+0x70>
    9c58:	2a75      	cmp	r2, #117	; 0x75
    9c5a:	d020      	beq.n	9c9e <_printf_i+0xae>
    9c5c:	2a78      	cmp	r2, #120	; 0x78
    9c5e:	d1de      	bne.n	9c1e <_printf_i+0x2e>
    9c60:	0022      	movs	r2, r4
    9c62:	2178      	movs	r1, #120	; 0x78
    9c64:	3245      	adds	r2, #69	; 0x45
    9c66:	7011      	strb	r1, [r2, #0]
    9c68:	4a6c      	ldr	r2, [pc, #432]	; (9e1c <_printf_i+0x22c>)
    9c6a:	e030      	b.n	9cce <_printf_i+0xde>
    9c6c:	000e      	movs	r6, r1
    9c6e:	681a      	ldr	r2, [r3, #0]
    9c70:	3642      	adds	r6, #66	; 0x42
    9c72:	1d11      	adds	r1, r2, #4
    9c74:	6019      	str	r1, [r3, #0]
    9c76:	6813      	ldr	r3, [r2, #0]
    9c78:	7033      	strb	r3, [r6, #0]
    9c7a:	2301      	movs	r3, #1
    9c7c:	e079      	b.n	9d72 <_printf_i+0x182>
    9c7e:	0649      	lsls	r1, r1, #25
    9c80:	d5d9      	bpl.n	9c36 <_printf_i+0x46>
    9c82:	1d11      	adds	r1, r2, #4
    9c84:	6019      	str	r1, [r3, #0]
    9c86:	2300      	movs	r3, #0
    9c88:	5ed5      	ldrsh	r5, [r2, r3]
    9c8a:	2d00      	cmp	r5, #0
    9c8c:	da03      	bge.n	9c96 <_printf_i+0xa6>
    9c8e:	232d      	movs	r3, #45	; 0x2d
    9c90:	9a04      	ldr	r2, [sp, #16]
    9c92:	426d      	negs	r5, r5
    9c94:	7013      	strb	r3, [r2, #0]
    9c96:	4b62      	ldr	r3, [pc, #392]	; (9e20 <_printf_i+0x230>)
    9c98:	270a      	movs	r7, #10
    9c9a:	9303      	str	r3, [sp, #12]
    9c9c:	e02f      	b.n	9cfe <_printf_i+0x10e>
    9c9e:	6820      	ldr	r0, [r4, #0]
    9ca0:	6819      	ldr	r1, [r3, #0]
    9ca2:	0605      	lsls	r5, r0, #24
    9ca4:	d503      	bpl.n	9cae <_printf_i+0xbe>
    9ca6:	1d08      	adds	r0, r1, #4
    9ca8:	6018      	str	r0, [r3, #0]
    9caa:	680d      	ldr	r5, [r1, #0]
    9cac:	e005      	b.n	9cba <_printf_i+0xca>
    9cae:	0640      	lsls	r0, r0, #25
    9cb0:	d5f9      	bpl.n	9ca6 <_printf_i+0xb6>
    9cb2:	680d      	ldr	r5, [r1, #0]
    9cb4:	1d08      	adds	r0, r1, #4
    9cb6:	6018      	str	r0, [r3, #0]
    9cb8:	b2ad      	uxth	r5, r5
    9cba:	4b59      	ldr	r3, [pc, #356]	; (9e20 <_printf_i+0x230>)
    9cbc:	2708      	movs	r7, #8
    9cbe:	9303      	str	r3, [sp, #12]
    9cc0:	2a6f      	cmp	r2, #111	; 0x6f
    9cc2:	d018      	beq.n	9cf6 <_printf_i+0x106>
    9cc4:	270a      	movs	r7, #10
    9cc6:	e016      	b.n	9cf6 <_printf_i+0x106>
    9cc8:	3145      	adds	r1, #69	; 0x45
    9cca:	700a      	strb	r2, [r1, #0]
    9ccc:	4a54      	ldr	r2, [pc, #336]	; (9e20 <_printf_i+0x230>)
    9cce:	9203      	str	r2, [sp, #12]
    9cd0:	681a      	ldr	r2, [r3, #0]
    9cd2:	6821      	ldr	r1, [r4, #0]
    9cd4:	1d10      	adds	r0, r2, #4
    9cd6:	6018      	str	r0, [r3, #0]
    9cd8:	6815      	ldr	r5, [r2, #0]
    9cda:	0608      	lsls	r0, r1, #24
    9cdc:	d522      	bpl.n	9d24 <_printf_i+0x134>
    9cde:	07cb      	lsls	r3, r1, #31
    9ce0:	d502      	bpl.n	9ce8 <_printf_i+0xf8>
    9ce2:	2320      	movs	r3, #32
    9ce4:	4319      	orrs	r1, r3
    9ce6:	6021      	str	r1, [r4, #0]
    9ce8:	2710      	movs	r7, #16
    9cea:	2d00      	cmp	r5, #0
    9cec:	d103      	bne.n	9cf6 <_printf_i+0x106>
    9cee:	2320      	movs	r3, #32
    9cf0:	6822      	ldr	r2, [r4, #0]
    9cf2:	439a      	bics	r2, r3
    9cf4:	6022      	str	r2, [r4, #0]
    9cf6:	0023      	movs	r3, r4
    9cf8:	2200      	movs	r2, #0
    9cfa:	3343      	adds	r3, #67	; 0x43
    9cfc:	701a      	strb	r2, [r3, #0]
    9cfe:	6863      	ldr	r3, [r4, #4]
    9d00:	60a3      	str	r3, [r4, #8]
    9d02:	2b00      	cmp	r3, #0
    9d04:	db5c      	blt.n	9dc0 <_printf_i+0x1d0>
    9d06:	2204      	movs	r2, #4
    9d08:	6821      	ldr	r1, [r4, #0]
    9d0a:	4391      	bics	r1, r2
    9d0c:	6021      	str	r1, [r4, #0]
    9d0e:	2d00      	cmp	r5, #0
    9d10:	d158      	bne.n	9dc4 <_printf_i+0x1d4>
    9d12:	9e04      	ldr	r6, [sp, #16]
    9d14:	2b00      	cmp	r3, #0
    9d16:	d064      	beq.n	9de2 <_printf_i+0x1f2>
    9d18:	0026      	movs	r6, r4
    9d1a:	9b03      	ldr	r3, [sp, #12]
    9d1c:	3642      	adds	r6, #66	; 0x42
    9d1e:	781b      	ldrb	r3, [r3, #0]
    9d20:	7033      	strb	r3, [r6, #0]
    9d22:	e05e      	b.n	9de2 <_printf_i+0x1f2>
    9d24:	0648      	lsls	r0, r1, #25
    9d26:	d5da      	bpl.n	9cde <_printf_i+0xee>
    9d28:	b2ad      	uxth	r5, r5
    9d2a:	e7d8      	b.n	9cde <_printf_i+0xee>
    9d2c:	6809      	ldr	r1, [r1, #0]
    9d2e:	681a      	ldr	r2, [r3, #0]
    9d30:	0608      	lsls	r0, r1, #24
    9d32:	d505      	bpl.n	9d40 <_printf_i+0x150>
    9d34:	1d11      	adds	r1, r2, #4
    9d36:	6019      	str	r1, [r3, #0]
    9d38:	6813      	ldr	r3, [r2, #0]
    9d3a:	6962      	ldr	r2, [r4, #20]
    9d3c:	601a      	str	r2, [r3, #0]
    9d3e:	e006      	b.n	9d4e <_printf_i+0x15e>
    9d40:	0649      	lsls	r1, r1, #25
    9d42:	d5f7      	bpl.n	9d34 <_printf_i+0x144>
    9d44:	1d11      	adds	r1, r2, #4
    9d46:	6019      	str	r1, [r3, #0]
    9d48:	6813      	ldr	r3, [r2, #0]
    9d4a:	8aa2      	ldrh	r2, [r4, #20]
    9d4c:	801a      	strh	r2, [r3, #0]
    9d4e:	2300      	movs	r3, #0
    9d50:	9e04      	ldr	r6, [sp, #16]
    9d52:	6123      	str	r3, [r4, #16]
    9d54:	e054      	b.n	9e00 <_printf_i+0x210>
    9d56:	681a      	ldr	r2, [r3, #0]
    9d58:	1d11      	adds	r1, r2, #4
    9d5a:	6019      	str	r1, [r3, #0]
    9d5c:	6816      	ldr	r6, [r2, #0]
    9d5e:	2100      	movs	r1, #0
    9d60:	6862      	ldr	r2, [r4, #4]
    9d62:	0030      	movs	r0, r6
    9d64:	f000 ffca 	bl	acfc <memchr>
    9d68:	2800      	cmp	r0, #0
    9d6a:	d001      	beq.n	9d70 <_printf_i+0x180>
    9d6c:	1b80      	subs	r0, r0, r6
    9d6e:	6060      	str	r0, [r4, #4]
    9d70:	6863      	ldr	r3, [r4, #4]
    9d72:	6123      	str	r3, [r4, #16]
    9d74:	2300      	movs	r3, #0
    9d76:	9a04      	ldr	r2, [sp, #16]
    9d78:	7013      	strb	r3, [r2, #0]
    9d7a:	e041      	b.n	9e00 <_printf_i+0x210>
    9d7c:	6923      	ldr	r3, [r4, #16]
    9d7e:	0032      	movs	r2, r6
    9d80:	9906      	ldr	r1, [sp, #24]
    9d82:	9805      	ldr	r0, [sp, #20]
    9d84:	9d07      	ldr	r5, [sp, #28]
    9d86:	47a8      	blx	r5
    9d88:	1c43      	adds	r3, r0, #1
    9d8a:	d043      	beq.n	9e14 <_printf_i+0x224>
    9d8c:	6823      	ldr	r3, [r4, #0]
    9d8e:	2500      	movs	r5, #0
    9d90:	079b      	lsls	r3, r3, #30
    9d92:	d40f      	bmi.n	9db4 <_printf_i+0x1c4>
    9d94:	9b09      	ldr	r3, [sp, #36]	; 0x24
    9d96:	68e0      	ldr	r0, [r4, #12]
    9d98:	4298      	cmp	r0, r3
    9d9a:	da3d      	bge.n	9e18 <_printf_i+0x228>
    9d9c:	0018      	movs	r0, r3
    9d9e:	e03b      	b.n	9e18 <_printf_i+0x228>
    9da0:	0022      	movs	r2, r4
    9da2:	2301      	movs	r3, #1
    9da4:	3219      	adds	r2, #25
    9da6:	9906      	ldr	r1, [sp, #24]
    9da8:	9805      	ldr	r0, [sp, #20]
    9daa:	9e07      	ldr	r6, [sp, #28]
    9dac:	47b0      	blx	r6
    9dae:	1c43      	adds	r3, r0, #1
    9db0:	d030      	beq.n	9e14 <_printf_i+0x224>
    9db2:	3501      	adds	r5, #1
    9db4:	68e3      	ldr	r3, [r4, #12]
    9db6:	9a09      	ldr	r2, [sp, #36]	; 0x24
    9db8:	1a9b      	subs	r3, r3, r2
    9dba:	429d      	cmp	r5, r3
    9dbc:	dbf0      	blt.n	9da0 <_printf_i+0x1b0>
    9dbe:	e7e9      	b.n	9d94 <_printf_i+0x1a4>
    9dc0:	2d00      	cmp	r5, #0
    9dc2:	d0a9      	beq.n	9d18 <_printf_i+0x128>
    9dc4:	9e04      	ldr	r6, [sp, #16]
    9dc6:	0028      	movs	r0, r5
    9dc8:	0039      	movs	r1, r7
    9dca:	f7fd fbd3 	bl	7574 <__aeabi_uidivmod>
    9dce:	9b03      	ldr	r3, [sp, #12]
    9dd0:	3e01      	subs	r6, #1
    9dd2:	5c5b      	ldrb	r3, [r3, r1]
    9dd4:	0028      	movs	r0, r5
    9dd6:	7033      	strb	r3, [r6, #0]
    9dd8:	0039      	movs	r1, r7
    9dda:	f7fd fb45 	bl	7468 <__udivsi3>
    9dde:	1e05      	subs	r5, r0, #0
    9de0:	d1f1      	bne.n	9dc6 <_printf_i+0x1d6>
    9de2:	2f08      	cmp	r7, #8
    9de4:	d109      	bne.n	9dfa <_printf_i+0x20a>
    9de6:	6823      	ldr	r3, [r4, #0]
    9de8:	07db      	lsls	r3, r3, #31
    9dea:	d506      	bpl.n	9dfa <_printf_i+0x20a>
    9dec:	6863      	ldr	r3, [r4, #4]
    9dee:	6922      	ldr	r2, [r4, #16]
    9df0:	4293      	cmp	r3, r2
    9df2:	dc02      	bgt.n	9dfa <_printf_i+0x20a>
    9df4:	2330      	movs	r3, #48	; 0x30
    9df6:	3e01      	subs	r6, #1
    9df8:	7033      	strb	r3, [r6, #0]
    9dfa:	9b04      	ldr	r3, [sp, #16]
    9dfc:	1b9b      	subs	r3, r3, r6
    9dfe:	6123      	str	r3, [r4, #16]
    9e00:	9b07      	ldr	r3, [sp, #28]
    9e02:	aa09      	add	r2, sp, #36	; 0x24
    9e04:	9300      	str	r3, [sp, #0]
    9e06:	0021      	movs	r1, r4
    9e08:	9b06      	ldr	r3, [sp, #24]
    9e0a:	9805      	ldr	r0, [sp, #20]
    9e0c:	f7ff fe82 	bl	9b14 <_printf_common>
    9e10:	1c43      	adds	r3, r0, #1
    9e12:	d1b3      	bne.n	9d7c <_printf_i+0x18c>
    9e14:	2001      	movs	r0, #1
    9e16:	4240      	negs	r0, r0
    9e18:	b00b      	add	sp, #44	; 0x2c
    9e1a:	bdf0      	pop	{r4, r5, r6, r7, pc}
    9e1c:	0000be85 	.word	0x0000be85
    9e20:	0000be74 	.word	0x0000be74

00009e24 <realloc>:
    9e24:	b510      	push	{r4, lr}
    9e26:	4b03      	ldr	r3, [pc, #12]	; (9e34 <realloc+0x10>)
    9e28:	000a      	movs	r2, r1
    9e2a:	0001      	movs	r1, r0
    9e2c:	6818      	ldr	r0, [r3, #0]
    9e2e:	f001 fa63 	bl	b2f8 <_realloc_r>
    9e32:	bd10      	pop	{r4, pc}
    9e34:	2000008c 	.word	0x2000008c

00009e38 <_sbrk_r>:
    9e38:	2300      	movs	r3, #0
    9e3a:	b570      	push	{r4, r5, r6, lr}
    9e3c:	4c06      	ldr	r4, [pc, #24]	; (9e58 <_sbrk_r+0x20>)
    9e3e:	0005      	movs	r5, r0
    9e40:	0008      	movs	r0, r1
    9e42:	6023      	str	r3, [r4, #0]
    9e44:	f001 fc2e 	bl	b6a4 <_sbrk>
    9e48:	1c43      	adds	r3, r0, #1
    9e4a:	d103      	bne.n	9e54 <_sbrk_r+0x1c>
    9e4c:	6823      	ldr	r3, [r4, #0]
    9e4e:	2b00      	cmp	r3, #0
    9e50:	d000      	beq.n	9e54 <_sbrk_r+0x1c>
    9e52:	602b      	str	r3, [r5, #0]
    9e54:	bd70      	pop	{r4, r5, r6, pc}
    9e56:	46c0      	nop			; (mov r8, r8)
    9e58:	200010c4 	.word	0x200010c4

00009e5c <siprintf>:
    9e5c:	b40e      	push	{r1, r2, r3}
    9e5e:	b510      	push	{r4, lr}
    9e60:	b09d      	sub	sp, #116	; 0x74
    9e62:	a902      	add	r1, sp, #8
    9e64:	9002      	str	r0, [sp, #8]
    9e66:	6108      	str	r0, [r1, #16]
    9e68:	480b      	ldr	r0, [pc, #44]	; (9e98 <siprintf+0x3c>)
    9e6a:	2482      	movs	r4, #130	; 0x82
    9e6c:	6088      	str	r0, [r1, #8]
    9e6e:	6148      	str	r0, [r1, #20]
    9e70:	2001      	movs	r0, #1
    9e72:	4240      	negs	r0, r0
    9e74:	ab1f      	add	r3, sp, #124	; 0x7c
    9e76:	81c8      	strh	r0, [r1, #14]
    9e78:	4808      	ldr	r0, [pc, #32]	; (9e9c <siprintf+0x40>)
    9e7a:	cb04      	ldmia	r3!, {r2}
    9e7c:	00a4      	lsls	r4, r4, #2
    9e7e:	6800      	ldr	r0, [r0, #0]
    9e80:	9301      	str	r3, [sp, #4]
    9e82:	818c      	strh	r4, [r1, #12]
    9e84:	f001 fac0 	bl	b408 <_svfiprintf_r>
    9e88:	2300      	movs	r3, #0
    9e8a:	9a02      	ldr	r2, [sp, #8]
    9e8c:	7013      	strb	r3, [r2, #0]
    9e8e:	b01d      	add	sp, #116	; 0x74
    9e90:	bc10      	pop	{r4}
    9e92:	bc08      	pop	{r3}
    9e94:	b003      	add	sp, #12
    9e96:	4718      	bx	r3
    9e98:	7fffffff 	.word	0x7fffffff
    9e9c:	2000008c 	.word	0x2000008c

00009ea0 <strcpy>:
    9ea0:	1c03      	adds	r3, r0, #0
    9ea2:	780a      	ldrb	r2, [r1, #0]
    9ea4:	3101      	adds	r1, #1
    9ea6:	701a      	strb	r2, [r3, #0]
    9ea8:	3301      	adds	r3, #1
    9eaa:	2a00      	cmp	r2, #0
    9eac:	d1f9      	bne.n	9ea2 <strcpy+0x2>
    9eae:	4770      	bx	lr

00009eb0 <strlen>:
    9eb0:	2300      	movs	r3, #0
    9eb2:	5cc2      	ldrb	r2, [r0, r3]
    9eb4:	3301      	adds	r3, #1
    9eb6:	2a00      	cmp	r2, #0
    9eb8:	d1fb      	bne.n	9eb2 <strlen+0x2>
    9eba:	1e58      	subs	r0, r3, #1
    9ebc:	4770      	bx	lr

00009ebe <_strtoul_l.isra.0>:
    9ebe:	b5f0      	push	{r4, r5, r6, r7, lr}
    9ec0:	001f      	movs	r7, r3
    9ec2:	000e      	movs	r6, r1
    9ec4:	b087      	sub	sp, #28
    9ec6:	9005      	str	r0, [sp, #20]
    9ec8:	9103      	str	r1, [sp, #12]
    9eca:	9201      	str	r2, [sp, #4]
    9ecc:	980c      	ldr	r0, [sp, #48]	; 0x30
    9ece:	7834      	ldrb	r4, [r6, #0]
    9ed0:	f7ff fa34 	bl	933c <__locale_ctype_ptr_l>
    9ed4:	2208      	movs	r2, #8
    9ed6:	1900      	adds	r0, r0, r4
    9ed8:	7843      	ldrb	r3, [r0, #1]
    9eda:	1c75      	adds	r5, r6, #1
    9edc:	4013      	ands	r3, r2
    9ede:	d10c      	bne.n	9efa <_strtoul_l.isra.0+0x3c>
    9ee0:	2c2d      	cmp	r4, #45	; 0x2d
    9ee2:	d10c      	bne.n	9efe <_strtoul_l.isra.0+0x40>
    9ee4:	3301      	adds	r3, #1
    9ee6:	782c      	ldrb	r4, [r5, #0]
    9ee8:	9302      	str	r3, [sp, #8]
    9eea:	1cb5      	adds	r5, r6, #2
    9eec:	2f00      	cmp	r7, #0
    9eee:	d00c      	beq.n	9f0a <_strtoul_l.isra.0+0x4c>
    9ef0:	2f10      	cmp	r7, #16
    9ef2:	d114      	bne.n	9f1e <_strtoul_l.isra.0+0x60>
    9ef4:	2c30      	cmp	r4, #48	; 0x30
    9ef6:	d00a      	beq.n	9f0e <_strtoul_l.isra.0+0x50>
    9ef8:	e011      	b.n	9f1e <_strtoul_l.isra.0+0x60>
    9efa:	002e      	movs	r6, r5
    9efc:	e7e6      	b.n	9ecc <_strtoul_l.isra.0+0xe>
    9efe:	9302      	str	r3, [sp, #8]
    9f00:	2c2b      	cmp	r4, #43	; 0x2b
    9f02:	d1f3      	bne.n	9eec <_strtoul_l.isra.0+0x2e>
    9f04:	782c      	ldrb	r4, [r5, #0]
    9f06:	1cb5      	adds	r5, r6, #2
    9f08:	e7f0      	b.n	9eec <_strtoul_l.isra.0+0x2e>
    9f0a:	2c30      	cmp	r4, #48	; 0x30
    9f0c:	d12f      	bne.n	9f6e <_strtoul_l.isra.0+0xb0>
    9f0e:	2220      	movs	r2, #32
    9f10:	782b      	ldrb	r3, [r5, #0]
    9f12:	4393      	bics	r3, r2
    9f14:	2b58      	cmp	r3, #88	; 0x58
    9f16:	d154      	bne.n	9fc2 <_strtoul_l.isra.0+0x104>
    9f18:	2710      	movs	r7, #16
    9f1a:	786c      	ldrb	r4, [r5, #1]
    9f1c:	3502      	adds	r5, #2
    9f1e:	2001      	movs	r0, #1
    9f20:	0039      	movs	r1, r7
    9f22:	4240      	negs	r0, r0
    9f24:	f7fd faa0 	bl	7468 <__udivsi3>
    9f28:	0006      	movs	r6, r0
    9f2a:	2001      	movs	r0, #1
    9f2c:	0039      	movs	r1, r7
    9f2e:	4240      	negs	r0, r0
    9f30:	f7fd fb20 	bl	7574 <__aeabi_uidivmod>
    9f34:	2300      	movs	r3, #0
    9f36:	9104      	str	r1, [sp, #16]
    9f38:	2101      	movs	r1, #1
    9f3a:	2201      	movs	r2, #1
    9f3c:	0018      	movs	r0, r3
    9f3e:	468c      	mov	ip, r1
    9f40:	4252      	negs	r2, r2
    9f42:	0021      	movs	r1, r4
    9f44:	3930      	subs	r1, #48	; 0x30
    9f46:	2909      	cmp	r1, #9
    9f48:	d813      	bhi.n	9f72 <_strtoul_l.isra.0+0xb4>
    9f4a:	000c      	movs	r4, r1
    9f4c:	42a7      	cmp	r7, r4
    9f4e:	dd1e      	ble.n	9f8e <_strtoul_l.isra.0+0xd0>
    9f50:	2b00      	cmp	r3, #0
    9f52:	db1a      	blt.n	9f8a <_strtoul_l.isra.0+0xcc>
    9f54:	0013      	movs	r3, r2
    9f56:	4286      	cmp	r6, r0
    9f58:	d306      	bcc.n	9f68 <_strtoul_l.isra.0+0xaa>
    9f5a:	d102      	bne.n	9f62 <_strtoul_l.isra.0+0xa4>
    9f5c:	9904      	ldr	r1, [sp, #16]
    9f5e:	42a1      	cmp	r1, r4
    9f60:	db02      	blt.n	9f68 <_strtoul_l.isra.0+0xaa>
    9f62:	4663      	mov	r3, ip
    9f64:	4378      	muls	r0, r7
    9f66:	1820      	adds	r0, r4, r0
    9f68:	782c      	ldrb	r4, [r5, #0]
    9f6a:	3501      	adds	r5, #1
    9f6c:	e7e9      	b.n	9f42 <_strtoul_l.isra.0+0x84>
    9f6e:	270a      	movs	r7, #10
    9f70:	e7d5      	b.n	9f1e <_strtoul_l.isra.0+0x60>
    9f72:	0021      	movs	r1, r4
    9f74:	3941      	subs	r1, #65	; 0x41
    9f76:	2919      	cmp	r1, #25
    9f78:	d801      	bhi.n	9f7e <_strtoul_l.isra.0+0xc0>
    9f7a:	3c37      	subs	r4, #55	; 0x37
    9f7c:	e7e6      	b.n	9f4c <_strtoul_l.isra.0+0x8e>
    9f7e:	0021      	movs	r1, r4
    9f80:	3961      	subs	r1, #97	; 0x61
    9f82:	2919      	cmp	r1, #25
    9f84:	d803      	bhi.n	9f8e <_strtoul_l.isra.0+0xd0>
    9f86:	3c57      	subs	r4, #87	; 0x57
    9f88:	e7e0      	b.n	9f4c <_strtoul_l.isra.0+0x8e>
    9f8a:	0013      	movs	r3, r2
    9f8c:	e7ec      	b.n	9f68 <_strtoul_l.isra.0+0xaa>
    9f8e:	2b00      	cmp	r3, #0
    9f90:	da09      	bge.n	9fa6 <_strtoul_l.isra.0+0xe8>
    9f92:	2322      	movs	r3, #34	; 0x22
    9f94:	2001      	movs	r0, #1
    9f96:	9a05      	ldr	r2, [sp, #20]
    9f98:	4240      	negs	r0, r0
    9f9a:	6013      	str	r3, [r2, #0]
    9f9c:	9b01      	ldr	r3, [sp, #4]
    9f9e:	2b00      	cmp	r3, #0
    9fa0:	d10b      	bne.n	9fba <_strtoul_l.isra.0+0xfc>
    9fa2:	b007      	add	sp, #28
    9fa4:	bdf0      	pop	{r4, r5, r6, r7, pc}
    9fa6:	9a02      	ldr	r2, [sp, #8]
    9fa8:	2a00      	cmp	r2, #0
    9faa:	d000      	beq.n	9fae <_strtoul_l.isra.0+0xf0>
    9fac:	4240      	negs	r0, r0
    9fae:	9a01      	ldr	r2, [sp, #4]
    9fb0:	2a00      	cmp	r2, #0
    9fb2:	d0f6      	beq.n	9fa2 <_strtoul_l.isra.0+0xe4>
    9fb4:	9a03      	ldr	r2, [sp, #12]
    9fb6:	2b00      	cmp	r3, #0
    9fb8:	d000      	beq.n	9fbc <_strtoul_l.isra.0+0xfe>
    9fba:	1e6a      	subs	r2, r5, #1
    9fbc:	9b01      	ldr	r3, [sp, #4]
    9fbe:	601a      	str	r2, [r3, #0]
    9fc0:	e7ef      	b.n	9fa2 <_strtoul_l.isra.0+0xe4>
    9fc2:	2430      	movs	r4, #48	; 0x30
    9fc4:	2f00      	cmp	r7, #0
    9fc6:	d1aa      	bne.n	9f1e <_strtoul_l.isra.0+0x60>
    9fc8:	3708      	adds	r7, #8
    9fca:	e7a8      	b.n	9f1e <_strtoul_l.isra.0+0x60>

00009fcc <strtoul>:
    9fcc:	b537      	push	{r0, r1, r2, r4, r5, lr}
    9fce:	0013      	movs	r3, r2
    9fd0:	4a06      	ldr	r2, [pc, #24]	; (9fec <strtoul+0x20>)
    9fd2:	0005      	movs	r5, r0
    9fd4:	6810      	ldr	r0, [r2, #0]
    9fd6:	6a04      	ldr	r4, [r0, #32]
    9fd8:	2c00      	cmp	r4, #0
    9fda:	d100      	bne.n	9fde <strtoul+0x12>
    9fdc:	4c04      	ldr	r4, [pc, #16]	; (9ff0 <strtoul+0x24>)
    9fde:	000a      	movs	r2, r1
    9fe0:	9400      	str	r4, [sp, #0]
    9fe2:	0029      	movs	r1, r5
    9fe4:	f7ff ff6b 	bl	9ebe <_strtoul_l.isra.0>
    9fe8:	bd3e      	pop	{r1, r2, r3, r4, r5, pc}
    9fea:	46c0      	nop			; (mov r8, r8)
    9fec:	2000008c 	.word	0x2000008c
    9ff0:	200000f0 	.word	0x200000f0

00009ff4 <__ascii_wctomb>:
    9ff4:	1e0b      	subs	r3, r1, #0
    9ff6:	d004      	beq.n	a002 <__ascii_wctomb+0xe>
    9ff8:	2aff      	cmp	r2, #255	; 0xff
    9ffa:	d904      	bls.n	a006 <__ascii_wctomb+0x12>
    9ffc:	238a      	movs	r3, #138	; 0x8a
    9ffe:	6003      	str	r3, [r0, #0]
    a000:	3b8b      	subs	r3, #139	; 0x8b
    a002:	0018      	movs	r0, r3
    a004:	4770      	bx	lr
    a006:	700a      	strb	r2, [r1, #0]
    a008:	2301      	movs	r3, #1
    a00a:	e7fa      	b.n	a002 <__ascii_wctomb+0xe>

0000a00c <quorem>:
    a00c:	b5f0      	push	{r4, r5, r6, r7, lr}
    a00e:	6903      	ldr	r3, [r0, #16]
    a010:	690c      	ldr	r4, [r1, #16]
    a012:	b089      	sub	sp, #36	; 0x24
    a014:	0007      	movs	r7, r0
    a016:	9105      	str	r1, [sp, #20]
    a018:	2600      	movs	r6, #0
    a01a:	429c      	cmp	r4, r3
    a01c:	dc6d      	bgt.n	a0fa <quorem+0xee>
    a01e:	000b      	movs	r3, r1
    a020:	3c01      	subs	r4, #1
    a022:	3314      	adds	r3, #20
    a024:	00a5      	lsls	r5, r4, #2
    a026:	9303      	str	r3, [sp, #12]
    a028:	195b      	adds	r3, r3, r5
    a02a:	9304      	str	r3, [sp, #16]
    a02c:	0003      	movs	r3, r0
    a02e:	3314      	adds	r3, #20
    a030:	9302      	str	r3, [sp, #8]
    a032:	195d      	adds	r5, r3, r5
    a034:	9b04      	ldr	r3, [sp, #16]
    a036:	6828      	ldr	r0, [r5, #0]
    a038:	681b      	ldr	r3, [r3, #0]
    a03a:	1c59      	adds	r1, r3, #1
    a03c:	9301      	str	r3, [sp, #4]
    a03e:	f7fd fa13 	bl	7468 <__udivsi3>
    a042:	9001      	str	r0, [sp, #4]
    a044:	42b0      	cmp	r0, r6
    a046:	d02d      	beq.n	a0a4 <quorem+0x98>
    a048:	9b03      	ldr	r3, [sp, #12]
    a04a:	9802      	ldr	r0, [sp, #8]
    a04c:	469c      	mov	ip, r3
    a04e:	9606      	str	r6, [sp, #24]
    a050:	4662      	mov	r2, ip
    a052:	ca08      	ldmia	r2!, {r3}
    a054:	4694      	mov	ip, r2
    a056:	9a01      	ldr	r2, [sp, #4]
    a058:	b299      	uxth	r1, r3
    a05a:	4351      	muls	r1, r2
    a05c:	0c1b      	lsrs	r3, r3, #16
    a05e:	4353      	muls	r3, r2
    a060:	1989      	adds	r1, r1, r6
    a062:	0c0a      	lsrs	r2, r1, #16
    a064:	189b      	adds	r3, r3, r2
    a066:	9307      	str	r3, [sp, #28]
    a068:	8802      	ldrh	r2, [r0, #0]
    a06a:	0c1e      	lsrs	r6, r3, #16
    a06c:	9b06      	ldr	r3, [sp, #24]
    a06e:	b289      	uxth	r1, r1
    a070:	18d2      	adds	r2, r2, r3
    a072:	6803      	ldr	r3, [r0, #0]
    a074:	1a52      	subs	r2, r2, r1
    a076:	0c19      	lsrs	r1, r3, #16
    a078:	466b      	mov	r3, sp
    a07a:	8b9b      	ldrh	r3, [r3, #28]
    a07c:	1acb      	subs	r3, r1, r3
    a07e:	1411      	asrs	r1, r2, #16
    a080:	185b      	adds	r3, r3, r1
    a082:	1419      	asrs	r1, r3, #16
    a084:	b292      	uxth	r2, r2
    a086:	041b      	lsls	r3, r3, #16
    a088:	431a      	orrs	r2, r3
    a08a:	9b04      	ldr	r3, [sp, #16]
    a08c:	9106      	str	r1, [sp, #24]
    a08e:	c004      	stmia	r0!, {r2}
    a090:	4563      	cmp	r3, ip
    a092:	d2dd      	bcs.n	a050 <quorem+0x44>
    a094:	682b      	ldr	r3, [r5, #0]
    a096:	2b00      	cmp	r3, #0
    a098:	d104      	bne.n	a0a4 <quorem+0x98>
    a09a:	9b02      	ldr	r3, [sp, #8]
    a09c:	3d04      	subs	r5, #4
    a09e:	42ab      	cmp	r3, r5
    a0a0:	d32e      	bcc.n	a100 <quorem+0xf4>
    a0a2:	613c      	str	r4, [r7, #16]
    a0a4:	9905      	ldr	r1, [sp, #20]
    a0a6:	0038      	movs	r0, r7
    a0a8:	f001 f847 	bl	b13a <__mcmp>
    a0ac:	2800      	cmp	r0, #0
    a0ae:	db23      	blt.n	a0f8 <quorem+0xec>
    a0b0:	2500      	movs	r5, #0
    a0b2:	9b01      	ldr	r3, [sp, #4]
    a0b4:	9802      	ldr	r0, [sp, #8]
    a0b6:	3301      	adds	r3, #1
    a0b8:	9903      	ldr	r1, [sp, #12]
    a0ba:	9301      	str	r3, [sp, #4]
    a0bc:	c908      	ldmia	r1!, {r3}
    a0be:	8802      	ldrh	r2, [r0, #0]
    a0c0:	1955      	adds	r5, r2, r5
    a0c2:	b29a      	uxth	r2, r3
    a0c4:	1aaa      	subs	r2, r5, r2
    a0c6:	6805      	ldr	r5, [r0, #0]
    a0c8:	0c1b      	lsrs	r3, r3, #16
    a0ca:	0c2d      	lsrs	r5, r5, #16
    a0cc:	1aeb      	subs	r3, r5, r3
    a0ce:	1415      	asrs	r5, r2, #16
    a0d0:	195b      	adds	r3, r3, r5
    a0d2:	141d      	asrs	r5, r3, #16
    a0d4:	b292      	uxth	r2, r2
    a0d6:	041b      	lsls	r3, r3, #16
    a0d8:	4313      	orrs	r3, r2
    a0da:	c008      	stmia	r0!, {r3}
    a0dc:	9b04      	ldr	r3, [sp, #16]
    a0de:	428b      	cmp	r3, r1
    a0e0:	d2ec      	bcs.n	a0bc <quorem+0xb0>
    a0e2:	9a02      	ldr	r2, [sp, #8]
    a0e4:	00a3      	lsls	r3, r4, #2
    a0e6:	18d3      	adds	r3, r2, r3
    a0e8:	681a      	ldr	r2, [r3, #0]
    a0ea:	2a00      	cmp	r2, #0
    a0ec:	d104      	bne.n	a0f8 <quorem+0xec>
    a0ee:	9a02      	ldr	r2, [sp, #8]
    a0f0:	3b04      	subs	r3, #4
    a0f2:	429a      	cmp	r2, r3
    a0f4:	d309      	bcc.n	a10a <quorem+0xfe>
    a0f6:	613c      	str	r4, [r7, #16]
    a0f8:	9e01      	ldr	r6, [sp, #4]
    a0fa:	0030      	movs	r0, r6
    a0fc:	b009      	add	sp, #36	; 0x24
    a0fe:	bdf0      	pop	{r4, r5, r6, r7, pc}
    a100:	682b      	ldr	r3, [r5, #0]
    a102:	2b00      	cmp	r3, #0
    a104:	d1cd      	bne.n	a0a2 <quorem+0x96>
    a106:	3c01      	subs	r4, #1
    a108:	e7c7      	b.n	a09a <quorem+0x8e>
    a10a:	681a      	ldr	r2, [r3, #0]
    a10c:	2a00      	cmp	r2, #0
    a10e:	d1f2      	bne.n	a0f6 <quorem+0xea>
    a110:	3c01      	subs	r4, #1
    a112:	e7ec      	b.n	a0ee <quorem+0xe2>

0000a114 <_dtoa_r>:
    a114:	b5f0      	push	{r4, r5, r6, r7, lr}
    a116:	0016      	movs	r6, r2
    a118:	001f      	movs	r7, r3
    a11a:	6a44      	ldr	r4, [r0, #36]	; 0x24
    a11c:	b09d      	sub	sp, #116	; 0x74
    a11e:	9004      	str	r0, [sp, #16]
    a120:	9d25      	ldr	r5, [sp, #148]	; 0x94
    a122:	9606      	str	r6, [sp, #24]
    a124:	9707      	str	r7, [sp, #28]
    a126:	2c00      	cmp	r4, #0
    a128:	d108      	bne.n	a13c <_dtoa_r+0x28>
    a12a:	2010      	movs	r0, #16
    a12c:	f7ff f90a 	bl	9344 <malloc>
    a130:	9b04      	ldr	r3, [sp, #16]
    a132:	6258      	str	r0, [r3, #36]	; 0x24
    a134:	6044      	str	r4, [r0, #4]
    a136:	6084      	str	r4, [r0, #8]
    a138:	6004      	str	r4, [r0, #0]
    a13a:	60c4      	str	r4, [r0, #12]
    a13c:	9b04      	ldr	r3, [sp, #16]
    a13e:	6a5b      	ldr	r3, [r3, #36]	; 0x24
    a140:	6819      	ldr	r1, [r3, #0]
    a142:	2900      	cmp	r1, #0
    a144:	d00b      	beq.n	a15e <_dtoa_r+0x4a>
    a146:	685a      	ldr	r2, [r3, #4]
    a148:	2301      	movs	r3, #1
    a14a:	4093      	lsls	r3, r2
    a14c:	604a      	str	r2, [r1, #4]
    a14e:	608b      	str	r3, [r1, #8]
    a150:	9804      	ldr	r0, [sp, #16]
    a152:	f000 fe18 	bl	ad86 <_Bfree>
    a156:	2200      	movs	r2, #0
    a158:	9b04      	ldr	r3, [sp, #16]
    a15a:	6a5b      	ldr	r3, [r3, #36]	; 0x24
    a15c:	601a      	str	r2, [r3, #0]
    a15e:	9b07      	ldr	r3, [sp, #28]
    a160:	2b00      	cmp	r3, #0
    a162:	da1f      	bge.n	a1a4 <_dtoa_r+0x90>
    a164:	2301      	movs	r3, #1
    a166:	602b      	str	r3, [r5, #0]
    a168:	007b      	lsls	r3, r7, #1
    a16a:	085b      	lsrs	r3, r3, #1
    a16c:	9307      	str	r3, [sp, #28]
    a16e:	9c07      	ldr	r4, [sp, #28]
    a170:	4bb7      	ldr	r3, [pc, #732]	; (a450 <_dtoa_r+0x33c>)
    a172:	0022      	movs	r2, r4
    a174:	9319      	str	r3, [sp, #100]	; 0x64
    a176:	401a      	ands	r2, r3
    a178:	429a      	cmp	r2, r3
    a17a:	d116      	bne.n	a1aa <_dtoa_r+0x96>
    a17c:	4bb5      	ldr	r3, [pc, #724]	; (a454 <_dtoa_r+0x340>)
    a17e:	9a24      	ldr	r2, [sp, #144]	; 0x90
    a180:	6013      	str	r3, [r2, #0]
    a182:	9b06      	ldr	r3, [sp, #24]
    a184:	2b00      	cmp	r3, #0
    a186:	d103      	bne.n	a190 <_dtoa_r+0x7c>
    a188:	0324      	lsls	r4, r4, #12
    a18a:	d101      	bne.n	a190 <_dtoa_r+0x7c>
    a18c:	f000 fd91 	bl	acb2 <_dtoa_r+0xb9e>
    a190:	4bb1      	ldr	r3, [pc, #708]	; (a458 <_dtoa_r+0x344>)
    a192:	9a26      	ldr	r2, [sp, #152]	; 0x98
    a194:	930a      	str	r3, [sp, #40]	; 0x28
    a196:	4bb1      	ldr	r3, [pc, #708]	; (a45c <_dtoa_r+0x348>)
    a198:	2a00      	cmp	r2, #0
    a19a:	d001      	beq.n	a1a0 <_dtoa_r+0x8c>
    a19c:	f000 fd8f 	bl	acbe <_dtoa_r+0xbaa>
    a1a0:	f000 fd8f 	bl	acc2 <_dtoa_r+0xbae>
    a1a4:	2300      	movs	r3, #0
    a1a6:	602b      	str	r3, [r5, #0]
    a1a8:	e7e1      	b.n	a16e <_dtoa_r+0x5a>
    a1aa:	9e06      	ldr	r6, [sp, #24]
    a1ac:	9f07      	ldr	r7, [sp, #28]
    a1ae:	2200      	movs	r2, #0
    a1b0:	2300      	movs	r3, #0
    a1b2:	0030      	movs	r0, r6
    a1b4:	0039      	movs	r1, r7
    a1b6:	f7fd fadd 	bl	7774 <__aeabi_dcmpeq>
    a1ba:	1e05      	subs	r5, r0, #0
    a1bc:	d00e      	beq.n	a1dc <_dtoa_r+0xc8>
    a1be:	2301      	movs	r3, #1
    a1c0:	9a24      	ldr	r2, [sp, #144]	; 0x90
    a1c2:	6013      	str	r3, [r2, #0]
    a1c4:	4ba6      	ldr	r3, [pc, #664]	; (a460 <_dtoa_r+0x34c>)
    a1c6:	9a26      	ldr	r2, [sp, #152]	; 0x98
    a1c8:	930a      	str	r3, [sp, #40]	; 0x28
    a1ca:	2a00      	cmp	r2, #0
    a1cc:	d101      	bne.n	a1d2 <_dtoa_r+0xbe>
    a1ce:	f000 fd78 	bl	acc2 <_dtoa_r+0xbae>
    a1d2:	4aa4      	ldr	r2, [pc, #656]	; (a464 <_dtoa_r+0x350>)
    a1d4:	9926      	ldr	r1, [sp, #152]	; 0x98
    a1d6:	600a      	str	r2, [r1, #0]
    a1d8:	f000 fd73 	bl	acc2 <_dtoa_r+0xbae>
    a1dc:	ab1a      	add	r3, sp, #104	; 0x68
    a1de:	9301      	str	r3, [sp, #4]
    a1e0:	ab1b      	add	r3, sp, #108	; 0x6c
    a1e2:	9300      	str	r3, [sp, #0]
    a1e4:	0032      	movs	r2, r6
    a1e6:	003b      	movs	r3, r7
    a1e8:	9804      	ldr	r0, [sp, #16]
    a1ea:	f001 f823 	bl	b234 <__d2b>
    a1ee:	0063      	lsls	r3, r4, #1
    a1f0:	9005      	str	r0, [sp, #20]
    a1f2:	0d5b      	lsrs	r3, r3, #21
    a1f4:	d100      	bne.n	a1f8 <_dtoa_r+0xe4>
    a1f6:	e07f      	b.n	a2f8 <_dtoa_r+0x1e4>
    a1f8:	033a      	lsls	r2, r7, #12
    a1fa:	4c9b      	ldr	r4, [pc, #620]	; (a468 <_dtoa_r+0x354>)
    a1fc:	0b12      	lsrs	r2, r2, #12
    a1fe:	4314      	orrs	r4, r2
    a200:	0021      	movs	r1, r4
    a202:	4a9a      	ldr	r2, [pc, #616]	; (a46c <_dtoa_r+0x358>)
    a204:	0030      	movs	r0, r6
    a206:	9518      	str	r5, [sp, #96]	; 0x60
    a208:	189e      	adds	r6, r3, r2
    a20a:	2200      	movs	r2, #0
    a20c:	4b98      	ldr	r3, [pc, #608]	; (a470 <_dtoa_r+0x35c>)
    a20e:	f7fe fca3 	bl	8b58 <__aeabi_dsub>
    a212:	4a98      	ldr	r2, [pc, #608]	; (a474 <_dtoa_r+0x360>)
    a214:	4b98      	ldr	r3, [pc, #608]	; (a478 <_dtoa_r+0x364>)
    a216:	f7fe fa1f 	bl	8658 <__aeabi_dmul>
    a21a:	4a98      	ldr	r2, [pc, #608]	; (a47c <_dtoa_r+0x368>)
    a21c:	4b98      	ldr	r3, [pc, #608]	; (a480 <_dtoa_r+0x36c>)
    a21e:	f7fd fad7 	bl	77d0 <__aeabi_dadd>
    a222:	0004      	movs	r4, r0
    a224:	0030      	movs	r0, r6
    a226:	000d      	movs	r5, r1
    a228:	f001 f9fa 	bl	b620 <__aeabi_i2d>
    a22c:	4a95      	ldr	r2, [pc, #596]	; (a484 <_dtoa_r+0x370>)
    a22e:	4b96      	ldr	r3, [pc, #600]	; (a488 <_dtoa_r+0x374>)
    a230:	f7fe fa12 	bl	8658 <__aeabi_dmul>
    a234:	0002      	movs	r2, r0
    a236:	000b      	movs	r3, r1
    a238:	0020      	movs	r0, r4
    a23a:	0029      	movs	r1, r5
    a23c:	f7fd fac8 	bl	77d0 <__aeabi_dadd>
    a240:	0004      	movs	r4, r0
    a242:	000d      	movs	r5, r1
    a244:	f7fe ffbe 	bl	91c4 <__aeabi_d2iz>
    a248:	2200      	movs	r2, #0
    a24a:	9003      	str	r0, [sp, #12]
    a24c:	2300      	movs	r3, #0
    a24e:	0020      	movs	r0, r4
    a250:	0029      	movs	r1, r5
    a252:	f7fd fa95 	bl	7780 <__aeabi_dcmplt>
    a256:	2800      	cmp	r0, #0
    a258:	d00e      	beq.n	a278 <_dtoa_r+0x164>
    a25a:	9803      	ldr	r0, [sp, #12]
    a25c:	f001 f9e0 	bl	b620 <__aeabi_i2d>
    a260:	000b      	movs	r3, r1
    a262:	0002      	movs	r2, r0
    a264:	0029      	movs	r1, r5
    a266:	0020      	movs	r0, r4
    a268:	f7fd fa84 	bl	7774 <__aeabi_dcmpeq>
    a26c:	0003      	movs	r3, r0
    a26e:	4258      	negs	r0, r3
    a270:	4158      	adcs	r0, r3
    a272:	9b03      	ldr	r3, [sp, #12]
    a274:	1a1b      	subs	r3, r3, r0
    a276:	9303      	str	r3, [sp, #12]
    a278:	2301      	movs	r3, #1
    a27a:	9316      	str	r3, [sp, #88]	; 0x58
    a27c:	9b03      	ldr	r3, [sp, #12]
    a27e:	2b16      	cmp	r3, #22
    a280:	d80f      	bhi.n	a2a2 <_dtoa_r+0x18e>
    a282:	4982      	ldr	r1, [pc, #520]	; (a48c <_dtoa_r+0x378>)
    a284:	00db      	lsls	r3, r3, #3
    a286:	18c9      	adds	r1, r1, r3
    a288:	6808      	ldr	r0, [r1, #0]
    a28a:	6849      	ldr	r1, [r1, #4]
    a28c:	9a06      	ldr	r2, [sp, #24]
    a28e:	9b07      	ldr	r3, [sp, #28]
    a290:	f7fd fa8a 	bl	77a8 <__aeabi_dcmpgt>
    a294:	2800      	cmp	r0, #0
    a296:	d04b      	beq.n	a330 <_dtoa_r+0x21c>
    a298:	9b03      	ldr	r3, [sp, #12]
    a29a:	3b01      	subs	r3, #1
    a29c:	9303      	str	r3, [sp, #12]
    a29e:	2300      	movs	r3, #0
    a2a0:	9316      	str	r3, [sp, #88]	; 0x58
    a2a2:	9b1a      	ldr	r3, [sp, #104]	; 0x68
    a2a4:	1b9e      	subs	r6, r3, r6
    a2a6:	2300      	movs	r3, #0
    a2a8:	930b      	str	r3, [sp, #44]	; 0x2c
    a2aa:	0033      	movs	r3, r6
    a2ac:	3b01      	subs	r3, #1
    a2ae:	930c      	str	r3, [sp, #48]	; 0x30
    a2b0:	d504      	bpl.n	a2bc <_dtoa_r+0x1a8>
    a2b2:	2301      	movs	r3, #1
    a2b4:	1b9b      	subs	r3, r3, r6
    a2b6:	930b      	str	r3, [sp, #44]	; 0x2c
    a2b8:	2300      	movs	r3, #0
    a2ba:	930c      	str	r3, [sp, #48]	; 0x30
    a2bc:	9b03      	ldr	r3, [sp, #12]
    a2be:	2b00      	cmp	r3, #0
    a2c0:	db38      	blt.n	a334 <_dtoa_r+0x220>
    a2c2:	9a03      	ldr	r2, [sp, #12]
    a2c4:	9b0c      	ldr	r3, [sp, #48]	; 0x30
    a2c6:	4694      	mov	ip, r2
    a2c8:	4463      	add	r3, ip
    a2ca:	930c      	str	r3, [sp, #48]	; 0x30
    a2cc:	2300      	movs	r3, #0
    a2ce:	920f      	str	r2, [sp, #60]	; 0x3c
    a2d0:	9308      	str	r3, [sp, #32]
    a2d2:	9b22      	ldr	r3, [sp, #136]	; 0x88
    a2d4:	2501      	movs	r5, #1
    a2d6:	2b09      	cmp	r3, #9
    a2d8:	d900      	bls.n	a2dc <_dtoa_r+0x1c8>
    a2da:	e091      	b.n	a400 <_dtoa_r+0x2ec>
    a2dc:	2b05      	cmp	r3, #5
    a2de:	dd02      	ble.n	a2e6 <_dtoa_r+0x1d2>
    a2e0:	2500      	movs	r5, #0
    a2e2:	3b04      	subs	r3, #4
    a2e4:	9322      	str	r3, [sp, #136]	; 0x88
    a2e6:	9b22      	ldr	r3, [sp, #136]	; 0x88
    a2e8:	1e98      	subs	r0, r3, #2
    a2ea:	2803      	cmp	r0, #3
    a2ec:	d900      	bls.n	a2f0 <_dtoa_r+0x1dc>
    a2ee:	e091      	b.n	a414 <_dtoa_r+0x300>
    a2f0:	f7fd f8b0 	bl	7454 <__gnu_thumb1_case_uqi>
    a2f4:	76298482 	.word	0x76298482
    a2f8:	9b1a      	ldr	r3, [sp, #104]	; 0x68
    a2fa:	9a1b      	ldr	r2, [sp, #108]	; 0x6c
    a2fc:	189e      	adds	r6, r3, r2
    a2fe:	4b64      	ldr	r3, [pc, #400]	; (a490 <_dtoa_r+0x37c>)
    a300:	18f2      	adds	r2, r6, r3
    a302:	2a20      	cmp	r2, #32
    a304:	dd0f      	ble.n	a326 <_dtoa_r+0x212>
    a306:	4b63      	ldr	r3, [pc, #396]	; (a494 <_dtoa_r+0x380>)
    a308:	9806      	ldr	r0, [sp, #24]
    a30a:	18f3      	adds	r3, r6, r3
    a30c:	40d8      	lsrs	r0, r3
    a30e:	2340      	movs	r3, #64	; 0x40
    a310:	1a9b      	subs	r3, r3, r2
    a312:	409c      	lsls	r4, r3
    a314:	4320      	orrs	r0, r4
    a316:	f7fe ff89 	bl	922c <__aeabi_ui2d>
    a31a:	2301      	movs	r3, #1
    a31c:	4c5e      	ldr	r4, [pc, #376]	; (a498 <_dtoa_r+0x384>)
    a31e:	3e01      	subs	r6, #1
    a320:	1909      	adds	r1, r1, r4
    a322:	9318      	str	r3, [sp, #96]	; 0x60
    a324:	e771      	b.n	a20a <_dtoa_r+0xf6>
    a326:	2320      	movs	r3, #32
    a328:	9806      	ldr	r0, [sp, #24]
    a32a:	1a9b      	subs	r3, r3, r2
    a32c:	4098      	lsls	r0, r3
    a32e:	e7f2      	b.n	a316 <_dtoa_r+0x202>
    a330:	9016      	str	r0, [sp, #88]	; 0x58
    a332:	e7b6      	b.n	a2a2 <_dtoa_r+0x18e>
    a334:	9b0b      	ldr	r3, [sp, #44]	; 0x2c
    a336:	9a03      	ldr	r2, [sp, #12]
    a338:	1a9b      	subs	r3, r3, r2
    a33a:	930b      	str	r3, [sp, #44]	; 0x2c
    a33c:	4253      	negs	r3, r2
    a33e:	9308      	str	r3, [sp, #32]
    a340:	2300      	movs	r3, #0
    a342:	930f      	str	r3, [sp, #60]	; 0x3c
    a344:	e7c5      	b.n	a2d2 <_dtoa_r+0x1be>
    a346:	2301      	movs	r3, #1
    a348:	930e      	str	r3, [sp, #56]	; 0x38
    a34a:	9b23      	ldr	r3, [sp, #140]	; 0x8c
    a34c:	2b00      	cmp	r3, #0
    a34e:	dd65      	ble.n	a41c <_dtoa_r+0x308>
    a350:	001f      	movs	r7, r3
    a352:	930d      	str	r3, [sp, #52]	; 0x34
    a354:	9a04      	ldr	r2, [sp, #16]
    a356:	6a54      	ldr	r4, [r2, #36]	; 0x24
    a358:	2200      	movs	r2, #0
    a35a:	6062      	str	r2, [r4, #4]
    a35c:	3204      	adds	r2, #4
    a35e:	0011      	movs	r1, r2
    a360:	3114      	adds	r1, #20
    a362:	4299      	cmp	r1, r3
    a364:	d95f      	bls.n	a426 <_dtoa_r+0x312>
    a366:	6861      	ldr	r1, [r4, #4]
    a368:	9804      	ldr	r0, [sp, #16]
    a36a:	f000 fcd4 	bl	ad16 <_Balloc>
    a36e:	9b04      	ldr	r3, [sp, #16]
    a370:	6020      	str	r0, [r4, #0]
    a372:	6a5b      	ldr	r3, [r3, #36]	; 0x24
    a374:	681b      	ldr	r3, [r3, #0]
    a376:	930a      	str	r3, [sp, #40]	; 0x28
    a378:	2f0e      	cmp	r7, #14
    a37a:	d900      	bls.n	a37e <_dtoa_r+0x26a>
    a37c:	e105      	b.n	a58a <_dtoa_r+0x476>
    a37e:	2d00      	cmp	r5, #0
    a380:	d100      	bne.n	a384 <_dtoa_r+0x270>
    a382:	e102      	b.n	a58a <_dtoa_r+0x476>
    a384:	9b06      	ldr	r3, [sp, #24]
    a386:	9c07      	ldr	r4, [sp, #28]
    a388:	9314      	str	r3, [sp, #80]	; 0x50
    a38a:	9415      	str	r4, [sp, #84]	; 0x54
    a38c:	9b03      	ldr	r3, [sp, #12]
    a38e:	2b00      	cmp	r3, #0
    a390:	dc00      	bgt.n	a394 <_dtoa_r+0x280>
    a392:	e085      	b.n	a4a0 <_dtoa_r+0x38c>
    a394:	001a      	movs	r2, r3
    a396:	210f      	movs	r1, #15
    a398:	4b3c      	ldr	r3, [pc, #240]	; (a48c <_dtoa_r+0x378>)
    a39a:	400a      	ands	r2, r1
    a39c:	00d2      	lsls	r2, r2, #3
    a39e:	189b      	adds	r3, r3, r2
    a3a0:	685c      	ldr	r4, [r3, #4]
    a3a2:	681b      	ldr	r3, [r3, #0]
    a3a4:	9310      	str	r3, [sp, #64]	; 0x40
    a3a6:	9411      	str	r4, [sp, #68]	; 0x44
    a3a8:	9b03      	ldr	r3, [sp, #12]
    a3aa:	2402      	movs	r4, #2
    a3ac:	111d      	asrs	r5, r3, #4
    a3ae:	06eb      	lsls	r3, r5, #27
    a3b0:	d50a      	bpl.n	a3c8 <_dtoa_r+0x2b4>
    a3b2:	4b3a      	ldr	r3, [pc, #232]	; (a49c <_dtoa_r+0x388>)
    a3b4:	400d      	ands	r5, r1
    a3b6:	6a1a      	ldr	r2, [r3, #32]
    a3b8:	6a5b      	ldr	r3, [r3, #36]	; 0x24
    a3ba:	9814      	ldr	r0, [sp, #80]	; 0x50
    a3bc:	9915      	ldr	r1, [sp, #84]	; 0x54
    a3be:	f7fd fd17 	bl	7df0 <__aeabi_ddiv>
    a3c2:	9006      	str	r0, [sp, #24]
    a3c4:	9107      	str	r1, [sp, #28]
    a3c6:	3401      	adds	r4, #1
    a3c8:	4e34      	ldr	r6, [pc, #208]	; (a49c <_dtoa_r+0x388>)
    a3ca:	2d00      	cmp	r5, #0
    a3cc:	d130      	bne.n	a430 <_dtoa_r+0x31c>
    a3ce:	9a10      	ldr	r2, [sp, #64]	; 0x40
    a3d0:	9b11      	ldr	r3, [sp, #68]	; 0x44
    a3d2:	9806      	ldr	r0, [sp, #24]
    a3d4:	9907      	ldr	r1, [sp, #28]
    a3d6:	f7fd fd0b 	bl	7df0 <__aeabi_ddiv>
    a3da:	9006      	str	r0, [sp, #24]
    a3dc:	9107      	str	r1, [sp, #28]
    a3de:	e07a      	b.n	a4d6 <_dtoa_r+0x3c2>
    a3e0:	2301      	movs	r3, #1
    a3e2:	9a23      	ldr	r2, [sp, #140]	; 0x8c
    a3e4:	930e      	str	r3, [sp, #56]	; 0x38
    a3e6:	4694      	mov	ip, r2
    a3e8:	9b03      	ldr	r3, [sp, #12]
    a3ea:	4463      	add	r3, ip
    a3ec:	1c5f      	adds	r7, r3, #1
    a3ee:	930d      	str	r3, [sp, #52]	; 0x34
    a3f0:	1e3b      	subs	r3, r7, #0
    a3f2:	dcaf      	bgt.n	a354 <_dtoa_r+0x240>
    a3f4:	2301      	movs	r3, #1
    a3f6:	e7ad      	b.n	a354 <_dtoa_r+0x240>
    a3f8:	2300      	movs	r3, #0
    a3fa:	e7a5      	b.n	a348 <_dtoa_r+0x234>
    a3fc:	2300      	movs	r3, #0
    a3fe:	e7f0      	b.n	a3e2 <_dtoa_r+0x2ce>
    a400:	2300      	movs	r3, #0
    a402:	950e      	str	r5, [sp, #56]	; 0x38
    a404:	9322      	str	r3, [sp, #136]	; 0x88
    a406:	3b01      	subs	r3, #1
    a408:	2200      	movs	r2, #0
    a40a:	930d      	str	r3, [sp, #52]	; 0x34
    a40c:	001f      	movs	r7, r3
    a40e:	3313      	adds	r3, #19
    a410:	9223      	str	r2, [sp, #140]	; 0x8c
    a412:	e79f      	b.n	a354 <_dtoa_r+0x240>
    a414:	2301      	movs	r3, #1
    a416:	930e      	str	r3, [sp, #56]	; 0x38
    a418:	3b02      	subs	r3, #2
    a41a:	e7f5      	b.n	a408 <_dtoa_r+0x2f4>
    a41c:	2301      	movs	r3, #1
    a41e:	930d      	str	r3, [sp, #52]	; 0x34
    a420:	001f      	movs	r7, r3
    a422:	001a      	movs	r2, r3
    a424:	e7f4      	b.n	a410 <_dtoa_r+0x2fc>
    a426:	6861      	ldr	r1, [r4, #4]
    a428:	0052      	lsls	r2, r2, #1
    a42a:	3101      	adds	r1, #1
    a42c:	6061      	str	r1, [r4, #4]
    a42e:	e796      	b.n	a35e <_dtoa_r+0x24a>
    a430:	2301      	movs	r3, #1
    a432:	421d      	tst	r5, r3
    a434:	d008      	beq.n	a448 <_dtoa_r+0x334>
    a436:	9810      	ldr	r0, [sp, #64]	; 0x40
    a438:	9911      	ldr	r1, [sp, #68]	; 0x44
    a43a:	18e4      	adds	r4, r4, r3
    a43c:	6832      	ldr	r2, [r6, #0]
    a43e:	6873      	ldr	r3, [r6, #4]
    a440:	f7fe f90a 	bl	8658 <__aeabi_dmul>
    a444:	9010      	str	r0, [sp, #64]	; 0x40
    a446:	9111      	str	r1, [sp, #68]	; 0x44
    a448:	106d      	asrs	r5, r5, #1
    a44a:	3608      	adds	r6, #8
    a44c:	e7bd      	b.n	a3ca <_dtoa_r+0x2b6>
    a44e:	46c0      	nop			; (mov r8, r8)
    a450:	7ff00000 	.word	0x7ff00000
    a454:	0000270f 	.word	0x0000270f
    a458:	0000bfa0 	.word	0x0000bfa0
    a45c:	0000bfa3 	.word	0x0000bfa3
    a460:	0000b853 	.word	0x0000b853
    a464:	0000b854 	.word	0x0000b854
    a468:	3ff00000 	.word	0x3ff00000
    a46c:	fffffc01 	.word	0xfffffc01
    a470:	3ff80000 	.word	0x3ff80000
    a474:	636f4361 	.word	0x636f4361
    a478:	3fd287a7 	.word	0x3fd287a7
    a47c:	8b60c8b3 	.word	0x8b60c8b3
    a480:	3fc68a28 	.word	0x3fc68a28
    a484:	509f79fb 	.word	0x509f79fb
    a488:	3fd34413 	.word	0x3fd34413
    a48c:	0000bfd0 	.word	0x0000bfd0
    a490:	00000432 	.word	0x00000432
    a494:	00000412 	.word	0x00000412
    a498:	fe100000 	.word	0xfe100000
    a49c:	0000bfa8 	.word	0x0000bfa8
    a4a0:	9b03      	ldr	r3, [sp, #12]
    a4a2:	2402      	movs	r4, #2
    a4a4:	2b00      	cmp	r3, #0
    a4a6:	d016      	beq.n	a4d6 <_dtoa_r+0x3c2>
    a4a8:	9814      	ldr	r0, [sp, #80]	; 0x50
    a4aa:	9915      	ldr	r1, [sp, #84]	; 0x54
    a4ac:	425d      	negs	r5, r3
    a4ae:	230f      	movs	r3, #15
    a4b0:	4aca      	ldr	r2, [pc, #808]	; (a7dc <_dtoa_r+0x6c8>)
    a4b2:	402b      	ands	r3, r5
    a4b4:	00db      	lsls	r3, r3, #3
    a4b6:	18d3      	adds	r3, r2, r3
    a4b8:	681a      	ldr	r2, [r3, #0]
    a4ba:	685b      	ldr	r3, [r3, #4]
    a4bc:	f7fe f8cc 	bl	8658 <__aeabi_dmul>
    a4c0:	2300      	movs	r3, #0
    a4c2:	9006      	str	r0, [sp, #24]
    a4c4:	9107      	str	r1, [sp, #28]
    a4c6:	4ec6      	ldr	r6, [pc, #792]	; (a7e0 <_dtoa_r+0x6cc>)
    a4c8:	112d      	asrs	r5, r5, #4
    a4ca:	2d00      	cmp	r5, #0
    a4cc:	d000      	beq.n	a4d0 <_dtoa_r+0x3bc>
    a4ce:	e08c      	b.n	a5ea <_dtoa_r+0x4d6>
    a4d0:	2b00      	cmp	r3, #0
    a4d2:	d000      	beq.n	a4d6 <_dtoa_r+0x3c2>
    a4d4:	e781      	b.n	a3da <_dtoa_r+0x2c6>
    a4d6:	9b16      	ldr	r3, [sp, #88]	; 0x58
    a4d8:	2b00      	cmp	r3, #0
    a4da:	d100      	bne.n	a4de <_dtoa_r+0x3ca>
    a4dc:	e091      	b.n	a602 <_dtoa_r+0x4ee>
    a4de:	9a06      	ldr	r2, [sp, #24]
    a4e0:	9b07      	ldr	r3, [sp, #28]
    a4e2:	9210      	str	r2, [sp, #64]	; 0x40
    a4e4:	9311      	str	r3, [sp, #68]	; 0x44
    a4e6:	9810      	ldr	r0, [sp, #64]	; 0x40
    a4e8:	9911      	ldr	r1, [sp, #68]	; 0x44
    a4ea:	2200      	movs	r2, #0
    a4ec:	4bbd      	ldr	r3, [pc, #756]	; (a7e4 <_dtoa_r+0x6d0>)
    a4ee:	f7fd f947 	bl	7780 <__aeabi_dcmplt>
    a4f2:	2800      	cmp	r0, #0
    a4f4:	d100      	bne.n	a4f8 <_dtoa_r+0x3e4>
    a4f6:	e084      	b.n	a602 <_dtoa_r+0x4ee>
    a4f8:	2f00      	cmp	r7, #0
    a4fa:	d100      	bne.n	a4fe <_dtoa_r+0x3ea>
    a4fc:	e081      	b.n	a602 <_dtoa_r+0x4ee>
    a4fe:	9b0d      	ldr	r3, [sp, #52]	; 0x34
    a500:	2b00      	cmp	r3, #0
    a502:	dd3e      	ble.n	a582 <_dtoa_r+0x46e>
    a504:	9810      	ldr	r0, [sp, #64]	; 0x40
    a506:	9911      	ldr	r1, [sp, #68]	; 0x44
    a508:	9b03      	ldr	r3, [sp, #12]
    a50a:	2200      	movs	r2, #0
    a50c:	1e5e      	subs	r6, r3, #1
    a50e:	4bb6      	ldr	r3, [pc, #728]	; (a7e8 <_dtoa_r+0x6d4>)
    a510:	f7fe f8a2 	bl	8658 <__aeabi_dmul>
    a514:	9006      	str	r0, [sp, #24]
    a516:	9107      	str	r1, [sp, #28]
    a518:	9d0d      	ldr	r5, [sp, #52]	; 0x34
    a51a:	3401      	adds	r4, #1
    a51c:	0020      	movs	r0, r4
    a51e:	f001 f87f 	bl	b620 <__aeabi_i2d>
    a522:	9a06      	ldr	r2, [sp, #24]
    a524:	9b07      	ldr	r3, [sp, #28]
    a526:	f7fe f897 	bl	8658 <__aeabi_dmul>
    a52a:	2200      	movs	r2, #0
    a52c:	4baf      	ldr	r3, [pc, #700]	; (a7ec <_dtoa_r+0x6d8>)
    a52e:	f7fd f94f 	bl	77d0 <__aeabi_dadd>
    a532:	9012      	str	r0, [sp, #72]	; 0x48
    a534:	9113      	str	r1, [sp, #76]	; 0x4c
    a536:	9b12      	ldr	r3, [sp, #72]	; 0x48
    a538:	9c13      	ldr	r4, [sp, #76]	; 0x4c
    a53a:	4aad      	ldr	r2, [pc, #692]	; (a7f0 <_dtoa_r+0x6dc>)
    a53c:	9310      	str	r3, [sp, #64]	; 0x40
    a53e:	9411      	str	r4, [sp, #68]	; 0x44
    a540:	9b13      	ldr	r3, [sp, #76]	; 0x4c
    a542:	189c      	adds	r4, r3, r2
    a544:	9411      	str	r4, [sp, #68]	; 0x44
    a546:	2d00      	cmp	r5, #0
    a548:	d15e      	bne.n	a608 <_dtoa_r+0x4f4>
    a54a:	9806      	ldr	r0, [sp, #24]
    a54c:	9907      	ldr	r1, [sp, #28]
    a54e:	2200      	movs	r2, #0
    a550:	4ba8      	ldr	r3, [pc, #672]	; (a7f4 <_dtoa_r+0x6e0>)
    a552:	f7fe fb01 	bl	8b58 <__aeabi_dsub>
    a556:	9a10      	ldr	r2, [sp, #64]	; 0x40
    a558:	0023      	movs	r3, r4
    a55a:	9006      	str	r0, [sp, #24]
    a55c:	9107      	str	r1, [sp, #28]
    a55e:	f7fd f923 	bl	77a8 <__aeabi_dcmpgt>
    a562:	2800      	cmp	r0, #0
    a564:	d000      	beq.n	a568 <_dtoa_r+0x454>
    a566:	e301      	b.n	ab6c <_dtoa_r+0xa58>
    a568:	48a3      	ldr	r0, [pc, #652]	; (a7f8 <_dtoa_r+0x6e4>)
    a56a:	9913      	ldr	r1, [sp, #76]	; 0x4c
    a56c:	4684      	mov	ip, r0
    a56e:	4461      	add	r1, ip
    a570:	000b      	movs	r3, r1
    a572:	9806      	ldr	r0, [sp, #24]
    a574:	9907      	ldr	r1, [sp, #28]
    a576:	9a10      	ldr	r2, [sp, #64]	; 0x40
    a578:	f7fd f902 	bl	7780 <__aeabi_dcmplt>
    a57c:	2800      	cmp	r0, #0
    a57e:	d000      	beq.n	a582 <_dtoa_r+0x46e>
    a580:	e2e8      	b.n	ab54 <_dtoa_r+0xa40>
    a582:	9b14      	ldr	r3, [sp, #80]	; 0x50
    a584:	9c15      	ldr	r4, [sp, #84]	; 0x54
    a586:	9306      	str	r3, [sp, #24]
    a588:	9407      	str	r4, [sp, #28]
    a58a:	9b1b      	ldr	r3, [sp, #108]	; 0x6c
    a58c:	2b00      	cmp	r3, #0
    a58e:	da00      	bge.n	a592 <_dtoa_r+0x47e>
    a590:	e157      	b.n	a842 <_dtoa_r+0x72e>
    a592:	9a03      	ldr	r2, [sp, #12]
    a594:	2a0e      	cmp	r2, #14
    a596:	dd00      	ble.n	a59a <_dtoa_r+0x486>
    a598:	e153      	b.n	a842 <_dtoa_r+0x72e>
    a59a:	4b90      	ldr	r3, [pc, #576]	; (a7dc <_dtoa_r+0x6c8>)
    a59c:	00d2      	lsls	r2, r2, #3
    a59e:	189b      	adds	r3, r3, r2
    a5a0:	685c      	ldr	r4, [r3, #4]
    a5a2:	681b      	ldr	r3, [r3, #0]
    a5a4:	9308      	str	r3, [sp, #32]
    a5a6:	9409      	str	r4, [sp, #36]	; 0x24
    a5a8:	9b23      	ldr	r3, [sp, #140]	; 0x8c
    a5aa:	2b00      	cmp	r3, #0
    a5ac:	db00      	blt.n	a5b0 <_dtoa_r+0x49c>
    a5ae:	e0ce      	b.n	a74e <_dtoa_r+0x63a>
    a5b0:	2f00      	cmp	r7, #0
    a5b2:	dd00      	ble.n	a5b6 <_dtoa_r+0x4a2>
    a5b4:	e0cb      	b.n	a74e <_dtoa_r+0x63a>
    a5b6:	d000      	beq.n	a5ba <_dtoa_r+0x4a6>
    a5b8:	e2cf      	b.n	ab5a <_dtoa_r+0xa46>
    a5ba:	9808      	ldr	r0, [sp, #32]
    a5bc:	9909      	ldr	r1, [sp, #36]	; 0x24
    a5be:	2200      	movs	r2, #0
    a5c0:	4b8c      	ldr	r3, [pc, #560]	; (a7f4 <_dtoa_r+0x6e0>)
    a5c2:	f7fe f849 	bl	8658 <__aeabi_dmul>
    a5c6:	9a06      	ldr	r2, [sp, #24]
    a5c8:	9b07      	ldr	r3, [sp, #28]
    a5ca:	f7fd f8f7 	bl	77bc <__aeabi_dcmpge>
    a5ce:	003e      	movs	r6, r7
    a5d0:	9708      	str	r7, [sp, #32]
    a5d2:	2800      	cmp	r0, #0
    a5d4:	d000      	beq.n	a5d8 <_dtoa_r+0x4c4>
    a5d6:	e2a4      	b.n	ab22 <_dtoa_r+0xa0e>
    a5d8:	9b0a      	ldr	r3, [sp, #40]	; 0x28
    a5da:	9a0a      	ldr	r2, [sp, #40]	; 0x28
    a5dc:	1c5d      	adds	r5, r3, #1
    a5de:	2331      	movs	r3, #49	; 0x31
    a5e0:	7013      	strb	r3, [r2, #0]
    a5e2:	9b03      	ldr	r3, [sp, #12]
    a5e4:	3301      	adds	r3, #1
    a5e6:	9303      	str	r3, [sp, #12]
    a5e8:	e29f      	b.n	ab2a <_dtoa_r+0xa16>
    a5ea:	2201      	movs	r2, #1
    a5ec:	4215      	tst	r5, r2
    a5ee:	d005      	beq.n	a5fc <_dtoa_r+0x4e8>
    a5f0:	18a4      	adds	r4, r4, r2
    a5f2:	6832      	ldr	r2, [r6, #0]
    a5f4:	6873      	ldr	r3, [r6, #4]
    a5f6:	f7fe f82f 	bl	8658 <__aeabi_dmul>
    a5fa:	2301      	movs	r3, #1
    a5fc:	106d      	asrs	r5, r5, #1
    a5fe:	3608      	adds	r6, #8
    a600:	e763      	b.n	a4ca <_dtoa_r+0x3b6>
    a602:	9e03      	ldr	r6, [sp, #12]
    a604:	003d      	movs	r5, r7
    a606:	e789      	b.n	a51c <_dtoa_r+0x408>
    a608:	9a0a      	ldr	r2, [sp, #40]	; 0x28
    a60a:	1e69      	subs	r1, r5, #1
    a60c:	1952      	adds	r2, r2, r5
    a60e:	9217      	str	r2, [sp, #92]	; 0x5c
    a610:	9a0e      	ldr	r2, [sp, #56]	; 0x38
    a612:	4b72      	ldr	r3, [pc, #456]	; (a7dc <_dtoa_r+0x6c8>)
    a614:	00c9      	lsls	r1, r1, #3
    a616:	2a00      	cmp	r2, #0
    a618:	d04a      	beq.n	a6b0 <_dtoa_r+0x59c>
    a61a:	185b      	adds	r3, r3, r1
    a61c:	681a      	ldr	r2, [r3, #0]
    a61e:	685b      	ldr	r3, [r3, #4]
    a620:	2000      	movs	r0, #0
    a622:	4976      	ldr	r1, [pc, #472]	; (a7fc <_dtoa_r+0x6e8>)
    a624:	f7fd fbe4 	bl	7df0 <__aeabi_ddiv>
    a628:	9a10      	ldr	r2, [sp, #64]	; 0x40
    a62a:	9b11      	ldr	r3, [sp, #68]	; 0x44
    a62c:	f7fe fa94 	bl	8b58 <__aeabi_dsub>
    a630:	9b0a      	ldr	r3, [sp, #40]	; 0x28
    a632:	9010      	str	r0, [sp, #64]	; 0x40
    a634:	9111      	str	r1, [sp, #68]	; 0x44
    a636:	9312      	str	r3, [sp, #72]	; 0x48
    a638:	9806      	ldr	r0, [sp, #24]
    a63a:	9907      	ldr	r1, [sp, #28]
    a63c:	f7fe fdc2 	bl	91c4 <__aeabi_d2iz>
    a640:	0004      	movs	r4, r0
    a642:	f000 ffed 	bl	b620 <__aeabi_i2d>
    a646:	0002      	movs	r2, r0
    a648:	000b      	movs	r3, r1
    a64a:	9806      	ldr	r0, [sp, #24]
    a64c:	9907      	ldr	r1, [sp, #28]
    a64e:	f7fe fa83 	bl	8b58 <__aeabi_dsub>
    a652:	9b12      	ldr	r3, [sp, #72]	; 0x48
    a654:	3430      	adds	r4, #48	; 0x30
    a656:	1c5d      	adds	r5, r3, #1
    a658:	701c      	strb	r4, [r3, #0]
    a65a:	9a10      	ldr	r2, [sp, #64]	; 0x40
    a65c:	9b11      	ldr	r3, [sp, #68]	; 0x44
    a65e:	9006      	str	r0, [sp, #24]
    a660:	9107      	str	r1, [sp, #28]
    a662:	f7fd f88d 	bl	7780 <__aeabi_dcmplt>
    a666:	2800      	cmp	r0, #0
    a668:	d165      	bne.n	a736 <_dtoa_r+0x622>
    a66a:	9a06      	ldr	r2, [sp, #24]
    a66c:	9b07      	ldr	r3, [sp, #28]
    a66e:	2000      	movs	r0, #0
    a670:	495c      	ldr	r1, [pc, #368]	; (a7e4 <_dtoa_r+0x6d0>)
    a672:	f7fe fa71 	bl	8b58 <__aeabi_dsub>
    a676:	9a10      	ldr	r2, [sp, #64]	; 0x40
    a678:	9b11      	ldr	r3, [sp, #68]	; 0x44
    a67a:	f7fd f881 	bl	7780 <__aeabi_dcmplt>
    a67e:	2800      	cmp	r0, #0
    a680:	d000      	beq.n	a684 <_dtoa_r+0x570>
    a682:	e0be      	b.n	a802 <_dtoa_r+0x6ee>
    a684:	9b17      	ldr	r3, [sp, #92]	; 0x5c
    a686:	429d      	cmp	r5, r3
    a688:	d100      	bne.n	a68c <_dtoa_r+0x578>
    a68a:	e77a      	b.n	a582 <_dtoa_r+0x46e>
    a68c:	9810      	ldr	r0, [sp, #64]	; 0x40
    a68e:	9911      	ldr	r1, [sp, #68]	; 0x44
    a690:	2200      	movs	r2, #0
    a692:	4b55      	ldr	r3, [pc, #340]	; (a7e8 <_dtoa_r+0x6d4>)
    a694:	f7fd ffe0 	bl	8658 <__aeabi_dmul>
    a698:	2200      	movs	r2, #0
    a69a:	9010      	str	r0, [sp, #64]	; 0x40
    a69c:	9111      	str	r1, [sp, #68]	; 0x44
    a69e:	9806      	ldr	r0, [sp, #24]
    a6a0:	9907      	ldr	r1, [sp, #28]
    a6a2:	4b51      	ldr	r3, [pc, #324]	; (a7e8 <_dtoa_r+0x6d4>)
    a6a4:	f7fd ffd8 	bl	8658 <__aeabi_dmul>
    a6a8:	9512      	str	r5, [sp, #72]	; 0x48
    a6aa:	9006      	str	r0, [sp, #24]
    a6ac:	9107      	str	r1, [sp, #28]
    a6ae:	e7c3      	b.n	a638 <_dtoa_r+0x524>
    a6b0:	1859      	adds	r1, r3, r1
    a6b2:	6808      	ldr	r0, [r1, #0]
    a6b4:	6849      	ldr	r1, [r1, #4]
    a6b6:	9a10      	ldr	r2, [sp, #64]	; 0x40
    a6b8:	9b11      	ldr	r3, [sp, #68]	; 0x44
    a6ba:	f7fd ffcd 	bl	8658 <__aeabi_dmul>
    a6be:	9010      	str	r0, [sp, #64]	; 0x40
    a6c0:	9111      	str	r1, [sp, #68]	; 0x44
    a6c2:	9c0a      	ldr	r4, [sp, #40]	; 0x28
    a6c4:	9d17      	ldr	r5, [sp, #92]	; 0x5c
    a6c6:	9806      	ldr	r0, [sp, #24]
    a6c8:	9907      	ldr	r1, [sp, #28]
    a6ca:	f7fe fd7b 	bl	91c4 <__aeabi_d2iz>
    a6ce:	9012      	str	r0, [sp, #72]	; 0x48
    a6d0:	f000 ffa6 	bl	b620 <__aeabi_i2d>
    a6d4:	0002      	movs	r2, r0
    a6d6:	000b      	movs	r3, r1
    a6d8:	9806      	ldr	r0, [sp, #24]
    a6da:	9907      	ldr	r1, [sp, #28]
    a6dc:	f7fe fa3c 	bl	8b58 <__aeabi_dsub>
    a6e0:	9b12      	ldr	r3, [sp, #72]	; 0x48
    a6e2:	9006      	str	r0, [sp, #24]
    a6e4:	9107      	str	r1, [sp, #28]
    a6e6:	3330      	adds	r3, #48	; 0x30
    a6e8:	7023      	strb	r3, [r4, #0]
    a6ea:	9b17      	ldr	r3, [sp, #92]	; 0x5c
    a6ec:	3401      	adds	r4, #1
    a6ee:	2200      	movs	r2, #0
    a6f0:	42a3      	cmp	r3, r4
    a6f2:	d124      	bne.n	a73e <_dtoa_r+0x62a>
    a6f4:	4b41      	ldr	r3, [pc, #260]	; (a7fc <_dtoa_r+0x6e8>)
    a6f6:	9810      	ldr	r0, [sp, #64]	; 0x40
    a6f8:	9911      	ldr	r1, [sp, #68]	; 0x44
    a6fa:	f7fd f869 	bl	77d0 <__aeabi_dadd>
    a6fe:	0002      	movs	r2, r0
    a700:	000b      	movs	r3, r1
    a702:	9806      	ldr	r0, [sp, #24]
    a704:	9907      	ldr	r1, [sp, #28]
    a706:	f7fd f84f 	bl	77a8 <__aeabi_dcmpgt>
    a70a:	2800      	cmp	r0, #0
    a70c:	d000      	beq.n	a710 <_dtoa_r+0x5fc>
    a70e:	e078      	b.n	a802 <_dtoa_r+0x6ee>
    a710:	9a10      	ldr	r2, [sp, #64]	; 0x40
    a712:	9b11      	ldr	r3, [sp, #68]	; 0x44
    a714:	2000      	movs	r0, #0
    a716:	4939      	ldr	r1, [pc, #228]	; (a7fc <_dtoa_r+0x6e8>)
    a718:	f7fe fa1e 	bl	8b58 <__aeabi_dsub>
    a71c:	0002      	movs	r2, r0
    a71e:	000b      	movs	r3, r1
    a720:	9806      	ldr	r0, [sp, #24]
    a722:	9907      	ldr	r1, [sp, #28]
    a724:	f7fd f82c 	bl	7780 <__aeabi_dcmplt>
    a728:	2800      	cmp	r0, #0
    a72a:	d100      	bne.n	a72e <_dtoa_r+0x61a>
    a72c:	e729      	b.n	a582 <_dtoa_r+0x46e>
    a72e:	1e6b      	subs	r3, r5, #1
    a730:	781a      	ldrb	r2, [r3, #0]
    a732:	2a30      	cmp	r2, #48	; 0x30
    a734:	d001      	beq.n	a73a <_dtoa_r+0x626>
    a736:	9603      	str	r6, [sp, #12]
    a738:	e03f      	b.n	a7ba <_dtoa_r+0x6a6>
    a73a:	001d      	movs	r5, r3
    a73c:	e7f7      	b.n	a72e <_dtoa_r+0x61a>
    a73e:	9806      	ldr	r0, [sp, #24]
    a740:	9907      	ldr	r1, [sp, #28]
    a742:	4b29      	ldr	r3, [pc, #164]	; (a7e8 <_dtoa_r+0x6d4>)
    a744:	f7fd ff88 	bl	8658 <__aeabi_dmul>
    a748:	9006      	str	r0, [sp, #24]
    a74a:	9107      	str	r1, [sp, #28]
    a74c:	e7bb      	b.n	a6c6 <_dtoa_r+0x5b2>
    a74e:	9e0a      	ldr	r6, [sp, #40]	; 0x28
    a750:	9a08      	ldr	r2, [sp, #32]
    a752:	9b09      	ldr	r3, [sp, #36]	; 0x24
    a754:	9806      	ldr	r0, [sp, #24]
    a756:	9907      	ldr	r1, [sp, #28]
    a758:	f7fd fb4a 	bl	7df0 <__aeabi_ddiv>
    a75c:	f7fe fd32 	bl	91c4 <__aeabi_d2iz>
    a760:	0004      	movs	r4, r0
    a762:	f000 ff5d 	bl	b620 <__aeabi_i2d>
    a766:	9a08      	ldr	r2, [sp, #32]
    a768:	9b09      	ldr	r3, [sp, #36]	; 0x24
    a76a:	f7fd ff75 	bl	8658 <__aeabi_dmul>
    a76e:	000b      	movs	r3, r1
    a770:	0002      	movs	r2, r0
    a772:	9806      	ldr	r0, [sp, #24]
    a774:	9907      	ldr	r1, [sp, #28]
    a776:	f7fe f9ef 	bl	8b58 <__aeabi_dsub>
    a77a:	0023      	movs	r3, r4
    a77c:	3330      	adds	r3, #48	; 0x30
    a77e:	7033      	strb	r3, [r6, #0]
    a780:	9b0a      	ldr	r3, [sp, #40]	; 0x28
    a782:	1c75      	adds	r5, r6, #1
    a784:	1aeb      	subs	r3, r5, r3
    a786:	429f      	cmp	r7, r3
    a788:	d14c      	bne.n	a824 <_dtoa_r+0x710>
    a78a:	0002      	movs	r2, r0
    a78c:	000b      	movs	r3, r1
    a78e:	f7fd f81f 	bl	77d0 <__aeabi_dadd>
    a792:	0006      	movs	r6, r0
    a794:	000f      	movs	r7, r1
    a796:	0002      	movs	r2, r0
    a798:	000b      	movs	r3, r1
    a79a:	9808      	ldr	r0, [sp, #32]
    a79c:	9909      	ldr	r1, [sp, #36]	; 0x24
    a79e:	f7fc ffef 	bl	7780 <__aeabi_dcmplt>
    a7a2:	2800      	cmp	r0, #0
    a7a4:	d12c      	bne.n	a800 <_dtoa_r+0x6ec>
    a7a6:	9808      	ldr	r0, [sp, #32]
    a7a8:	9909      	ldr	r1, [sp, #36]	; 0x24
    a7aa:	0032      	movs	r2, r6
    a7ac:	003b      	movs	r3, r7
    a7ae:	f7fc ffe1 	bl	7774 <__aeabi_dcmpeq>
    a7b2:	2800      	cmp	r0, #0
    a7b4:	d001      	beq.n	a7ba <_dtoa_r+0x6a6>
    a7b6:	07e3      	lsls	r3, r4, #31
    a7b8:	d422      	bmi.n	a800 <_dtoa_r+0x6ec>
    a7ba:	9905      	ldr	r1, [sp, #20]
    a7bc:	9804      	ldr	r0, [sp, #16]
    a7be:	f000 fae2 	bl	ad86 <_Bfree>
    a7c2:	2300      	movs	r3, #0
    a7c4:	702b      	strb	r3, [r5, #0]
    a7c6:	9b03      	ldr	r3, [sp, #12]
    a7c8:	9a24      	ldr	r2, [sp, #144]	; 0x90
    a7ca:	3301      	adds	r3, #1
    a7cc:	6013      	str	r3, [r2, #0]
    a7ce:	9b26      	ldr	r3, [sp, #152]	; 0x98
    a7d0:	2b00      	cmp	r3, #0
    a7d2:	d100      	bne.n	a7d6 <_dtoa_r+0x6c2>
    a7d4:	e275      	b.n	acc2 <_dtoa_r+0xbae>
    a7d6:	601d      	str	r5, [r3, #0]
    a7d8:	e273      	b.n	acc2 <_dtoa_r+0xbae>
    a7da:	46c0      	nop			; (mov r8, r8)
    a7dc:	0000bfd0 	.word	0x0000bfd0
    a7e0:	0000bfa8 	.word	0x0000bfa8
    a7e4:	3ff00000 	.word	0x3ff00000
    a7e8:	40240000 	.word	0x40240000
    a7ec:	401c0000 	.word	0x401c0000
    a7f0:	fcc00000 	.word	0xfcc00000
    a7f4:	40140000 	.word	0x40140000
    a7f8:	7cc00000 	.word	0x7cc00000
    a7fc:	3fe00000 	.word	0x3fe00000
    a800:	9e03      	ldr	r6, [sp, #12]
    a802:	1e6b      	subs	r3, r5, #1
    a804:	781a      	ldrb	r2, [r3, #0]
    a806:	2a39      	cmp	r2, #57	; 0x39
    a808:	d106      	bne.n	a818 <_dtoa_r+0x704>
    a80a:	9a0a      	ldr	r2, [sp, #40]	; 0x28
    a80c:	429a      	cmp	r2, r3
    a80e:	d107      	bne.n	a820 <_dtoa_r+0x70c>
    a810:	2330      	movs	r3, #48	; 0x30
    a812:	7013      	strb	r3, [r2, #0]
    a814:	0013      	movs	r3, r2
    a816:	3601      	adds	r6, #1
    a818:	781a      	ldrb	r2, [r3, #0]
    a81a:	3201      	adds	r2, #1
    a81c:	701a      	strb	r2, [r3, #0]
    a81e:	e78a      	b.n	a736 <_dtoa_r+0x622>
    a820:	001d      	movs	r5, r3
    a822:	e7ee      	b.n	a802 <_dtoa_r+0x6ee>
    a824:	2200      	movs	r2, #0
    a826:	4bcf      	ldr	r3, [pc, #828]	; (ab64 <_dtoa_r+0xa50>)
    a828:	f7fd ff16 	bl	8658 <__aeabi_dmul>
    a82c:	2200      	movs	r2, #0
    a82e:	2300      	movs	r3, #0
    a830:	9006      	str	r0, [sp, #24]
    a832:	9107      	str	r1, [sp, #28]
    a834:	002e      	movs	r6, r5
    a836:	f7fc ff9d 	bl	7774 <__aeabi_dcmpeq>
    a83a:	2800      	cmp	r0, #0
    a83c:	d100      	bne.n	a840 <_dtoa_r+0x72c>
    a83e:	e787      	b.n	a750 <_dtoa_r+0x63c>
    a840:	e7bb      	b.n	a7ba <_dtoa_r+0x6a6>
    a842:	9a0e      	ldr	r2, [sp, #56]	; 0x38
    a844:	2a00      	cmp	r2, #0
    a846:	d100      	bne.n	a84a <_dtoa_r+0x736>
    a848:	e087      	b.n	a95a <_dtoa_r+0x846>
    a84a:	9a22      	ldr	r2, [sp, #136]	; 0x88
    a84c:	2a01      	cmp	r2, #1
    a84e:	dc6e      	bgt.n	a92e <_dtoa_r+0x81a>
    a850:	9a18      	ldr	r2, [sp, #96]	; 0x60
    a852:	2a00      	cmp	r2, #0
    a854:	d067      	beq.n	a926 <_dtoa_r+0x812>
    a856:	4ac4      	ldr	r2, [pc, #784]	; (ab68 <_dtoa_r+0xa54>)
    a858:	189b      	adds	r3, r3, r2
    a85a:	9d08      	ldr	r5, [sp, #32]
    a85c:	9c0b      	ldr	r4, [sp, #44]	; 0x2c
    a85e:	9a0b      	ldr	r2, [sp, #44]	; 0x2c
    a860:	2101      	movs	r1, #1
    a862:	18d2      	adds	r2, r2, r3
    a864:	920b      	str	r2, [sp, #44]	; 0x2c
    a866:	9a0c      	ldr	r2, [sp, #48]	; 0x30
    a868:	9804      	ldr	r0, [sp, #16]
    a86a:	18d3      	adds	r3, r2, r3
    a86c:	930c      	str	r3, [sp, #48]	; 0x30
    a86e:	f000 fb28 	bl	aec2 <__i2b>
    a872:	0006      	movs	r6, r0
    a874:	2c00      	cmp	r4, #0
    a876:	dd0e      	ble.n	a896 <_dtoa_r+0x782>
    a878:	9b0c      	ldr	r3, [sp, #48]	; 0x30
    a87a:	2b00      	cmp	r3, #0
    a87c:	dd0b      	ble.n	a896 <_dtoa_r+0x782>
    a87e:	9a0c      	ldr	r2, [sp, #48]	; 0x30
    a880:	0023      	movs	r3, r4
    a882:	4294      	cmp	r4, r2
    a884:	dd00      	ble.n	a888 <_dtoa_r+0x774>
    a886:	0013      	movs	r3, r2
    a888:	9a0b      	ldr	r2, [sp, #44]	; 0x2c
    a88a:	1ae4      	subs	r4, r4, r3
    a88c:	1ad2      	subs	r2, r2, r3
    a88e:	920b      	str	r2, [sp, #44]	; 0x2c
    a890:	9a0c      	ldr	r2, [sp, #48]	; 0x30
    a892:	1ad3      	subs	r3, r2, r3
    a894:	930c      	str	r3, [sp, #48]	; 0x30
    a896:	9b08      	ldr	r3, [sp, #32]
    a898:	2b00      	cmp	r3, #0
    a89a:	d01e      	beq.n	a8da <_dtoa_r+0x7c6>
    a89c:	9b0e      	ldr	r3, [sp, #56]	; 0x38
    a89e:	2b00      	cmp	r3, #0
    a8a0:	d05f      	beq.n	a962 <_dtoa_r+0x84e>
    a8a2:	2d00      	cmp	r5, #0
    a8a4:	dd11      	ble.n	a8ca <_dtoa_r+0x7b6>
    a8a6:	0031      	movs	r1, r6
    a8a8:	002a      	movs	r2, r5
    a8aa:	9804      	ldr	r0, [sp, #16]
    a8ac:	f000 fba2 	bl	aff4 <__pow5mult>
    a8b0:	9a05      	ldr	r2, [sp, #20]
    a8b2:	0001      	movs	r1, r0
    a8b4:	0006      	movs	r6, r0
    a8b6:	9804      	ldr	r0, [sp, #16]
    a8b8:	f000 fb0c 	bl	aed4 <__multiply>
    a8bc:	9905      	ldr	r1, [sp, #20]
    a8be:	9010      	str	r0, [sp, #64]	; 0x40
    a8c0:	9804      	ldr	r0, [sp, #16]
    a8c2:	f000 fa60 	bl	ad86 <_Bfree>
    a8c6:	9b10      	ldr	r3, [sp, #64]	; 0x40
    a8c8:	9305      	str	r3, [sp, #20]
    a8ca:	9b08      	ldr	r3, [sp, #32]
    a8cc:	1b5a      	subs	r2, r3, r5
    a8ce:	d004      	beq.n	a8da <_dtoa_r+0x7c6>
    a8d0:	9905      	ldr	r1, [sp, #20]
    a8d2:	9804      	ldr	r0, [sp, #16]
    a8d4:	f000 fb8e 	bl	aff4 <__pow5mult>
    a8d8:	9005      	str	r0, [sp, #20]
    a8da:	2101      	movs	r1, #1
    a8dc:	9804      	ldr	r0, [sp, #16]
    a8de:	f000 faf0 	bl	aec2 <__i2b>
    a8e2:	9b0f      	ldr	r3, [sp, #60]	; 0x3c
    a8e4:	9008      	str	r0, [sp, #32]
    a8e6:	2b00      	cmp	r3, #0
    a8e8:	dd3d      	ble.n	a966 <_dtoa_r+0x852>
    a8ea:	001a      	movs	r2, r3
    a8ec:	0001      	movs	r1, r0
    a8ee:	9804      	ldr	r0, [sp, #16]
    a8f0:	f000 fb80 	bl	aff4 <__pow5mult>
    a8f4:	9b22      	ldr	r3, [sp, #136]	; 0x88
    a8f6:	9008      	str	r0, [sp, #32]
    a8f8:	2500      	movs	r5, #0
    a8fa:	2b01      	cmp	r3, #1
    a8fc:	dc3b      	bgt.n	a976 <_dtoa_r+0x862>
    a8fe:	2500      	movs	r5, #0
    a900:	9b06      	ldr	r3, [sp, #24]
    a902:	42ab      	cmp	r3, r5
    a904:	d133      	bne.n	a96e <_dtoa_r+0x85a>
    a906:	9b07      	ldr	r3, [sp, #28]
    a908:	031b      	lsls	r3, r3, #12
    a90a:	42ab      	cmp	r3, r5
    a90c:	d12f      	bne.n	a96e <_dtoa_r+0x85a>
    a90e:	9b19      	ldr	r3, [sp, #100]	; 0x64
    a910:	9a07      	ldr	r2, [sp, #28]
    a912:	4213      	tst	r3, r2
    a914:	d02b      	beq.n	a96e <_dtoa_r+0x85a>
    a916:	9b0b      	ldr	r3, [sp, #44]	; 0x2c
    a918:	3501      	adds	r5, #1
    a91a:	3301      	adds	r3, #1
    a91c:	930b      	str	r3, [sp, #44]	; 0x2c
    a91e:	9b0c      	ldr	r3, [sp, #48]	; 0x30
    a920:	3301      	adds	r3, #1
    a922:	930c      	str	r3, [sp, #48]	; 0x30
    a924:	e023      	b.n	a96e <_dtoa_r+0x85a>
    a926:	2336      	movs	r3, #54	; 0x36
    a928:	9a1a      	ldr	r2, [sp, #104]	; 0x68
    a92a:	1a9b      	subs	r3, r3, r2
    a92c:	e795      	b.n	a85a <_dtoa_r+0x746>
    a92e:	9b08      	ldr	r3, [sp, #32]
    a930:	1e7d      	subs	r5, r7, #1
    a932:	42ab      	cmp	r3, r5
    a934:	db06      	blt.n	a944 <_dtoa_r+0x830>
    a936:	1b5d      	subs	r5, r3, r5
    a938:	2f00      	cmp	r7, #0
    a93a:	da0b      	bge.n	a954 <_dtoa_r+0x840>
    a93c:	9b0b      	ldr	r3, [sp, #44]	; 0x2c
    a93e:	1bdc      	subs	r4, r3, r7
    a940:	2300      	movs	r3, #0
    a942:	e78c      	b.n	a85e <_dtoa_r+0x74a>
    a944:	9b08      	ldr	r3, [sp, #32]
    a946:	9508      	str	r5, [sp, #32]
    a948:	1aea      	subs	r2, r5, r3
    a94a:	9b0f      	ldr	r3, [sp, #60]	; 0x3c
    a94c:	2500      	movs	r5, #0
    a94e:	189b      	adds	r3, r3, r2
    a950:	930f      	str	r3, [sp, #60]	; 0x3c
    a952:	e7f1      	b.n	a938 <_dtoa_r+0x824>
    a954:	9c0b      	ldr	r4, [sp, #44]	; 0x2c
    a956:	003b      	movs	r3, r7
    a958:	e781      	b.n	a85e <_dtoa_r+0x74a>
    a95a:	9d08      	ldr	r5, [sp, #32]
    a95c:	9c0b      	ldr	r4, [sp, #44]	; 0x2c
    a95e:	9e0e      	ldr	r6, [sp, #56]	; 0x38
    a960:	e788      	b.n	a874 <_dtoa_r+0x760>
    a962:	9a08      	ldr	r2, [sp, #32]
    a964:	e7b4      	b.n	a8d0 <_dtoa_r+0x7bc>
    a966:	9b22      	ldr	r3, [sp, #136]	; 0x88
    a968:	2500      	movs	r5, #0
    a96a:	2b01      	cmp	r3, #1
    a96c:	ddc7      	ble.n	a8fe <_dtoa_r+0x7ea>
    a96e:	9b0f      	ldr	r3, [sp, #60]	; 0x3c
    a970:	2001      	movs	r0, #1
    a972:	2b00      	cmp	r3, #0
    a974:	d00b      	beq.n	a98e <_dtoa_r+0x87a>
    a976:	9b08      	ldr	r3, [sp, #32]
    a978:	9a08      	ldr	r2, [sp, #32]
    a97a:	691b      	ldr	r3, [r3, #16]
    a97c:	930f      	str	r3, [sp, #60]	; 0x3c
    a97e:	3303      	adds	r3, #3
    a980:	009b      	lsls	r3, r3, #2
    a982:	18d3      	adds	r3, r2, r3
    a984:	6858      	ldr	r0, [r3, #4]
    a986:	f000 fa53 	bl	ae30 <__hi0bits>
    a98a:	2320      	movs	r3, #32
    a98c:	1a18      	subs	r0, r3, r0
    a98e:	9b0c      	ldr	r3, [sp, #48]	; 0x30
    a990:	18c0      	adds	r0, r0, r3
    a992:	231f      	movs	r3, #31
    a994:	4018      	ands	r0, r3
    a996:	d100      	bne.n	a99a <_dtoa_r+0x886>
    a998:	e0ab      	b.n	aaf2 <_dtoa_r+0x9de>
    a99a:	3301      	adds	r3, #1
    a99c:	1a1b      	subs	r3, r3, r0
    a99e:	2b04      	cmp	r3, #4
    a9a0:	dc00      	bgt.n	a9a4 <_dtoa_r+0x890>
    a9a2:	e09b      	b.n	aadc <_dtoa_r+0x9c8>
    a9a4:	231c      	movs	r3, #28
    a9a6:	1a18      	subs	r0, r3, r0
    a9a8:	9b0b      	ldr	r3, [sp, #44]	; 0x2c
    a9aa:	1824      	adds	r4, r4, r0
    a9ac:	181b      	adds	r3, r3, r0
    a9ae:	930b      	str	r3, [sp, #44]	; 0x2c
    a9b0:	9b0c      	ldr	r3, [sp, #48]	; 0x30
    a9b2:	181b      	adds	r3, r3, r0
    a9b4:	930c      	str	r3, [sp, #48]	; 0x30
    a9b6:	9b0b      	ldr	r3, [sp, #44]	; 0x2c
    a9b8:	2b00      	cmp	r3, #0
    a9ba:	dd05      	ble.n	a9c8 <_dtoa_r+0x8b4>
    a9bc:	001a      	movs	r2, r3
    a9be:	9905      	ldr	r1, [sp, #20]
    a9c0:	9804      	ldr	r0, [sp, #16]
    a9c2:	f000 fb69 	bl	b098 <__lshift>
    a9c6:	9005      	str	r0, [sp, #20]
    a9c8:	9b0c      	ldr	r3, [sp, #48]	; 0x30
    a9ca:	2b00      	cmp	r3, #0
    a9cc:	dd05      	ble.n	a9da <_dtoa_r+0x8c6>
    a9ce:	001a      	movs	r2, r3
    a9d0:	9908      	ldr	r1, [sp, #32]
    a9d2:	9804      	ldr	r0, [sp, #16]
    a9d4:	f000 fb60 	bl	b098 <__lshift>
    a9d8:	9008      	str	r0, [sp, #32]
    a9da:	9b16      	ldr	r3, [sp, #88]	; 0x58
    a9dc:	2b00      	cmp	r3, #0
    a9de:	d100      	bne.n	a9e2 <_dtoa_r+0x8ce>
    a9e0:	e089      	b.n	aaf6 <_dtoa_r+0x9e2>
    a9e2:	9908      	ldr	r1, [sp, #32]
    a9e4:	9805      	ldr	r0, [sp, #20]
    a9e6:	f000 fba8 	bl	b13a <__mcmp>
    a9ea:	2800      	cmp	r0, #0
    a9ec:	db00      	blt.n	a9f0 <_dtoa_r+0x8dc>
    a9ee:	e082      	b.n	aaf6 <_dtoa_r+0x9e2>
    a9f0:	9b03      	ldr	r3, [sp, #12]
    a9f2:	220a      	movs	r2, #10
    a9f4:	3b01      	subs	r3, #1
    a9f6:	9303      	str	r3, [sp, #12]
    a9f8:	9905      	ldr	r1, [sp, #20]
    a9fa:	2300      	movs	r3, #0
    a9fc:	9804      	ldr	r0, [sp, #16]
    a9fe:	f000 f9db 	bl	adb8 <__multadd>
    aa02:	9b0e      	ldr	r3, [sp, #56]	; 0x38
    aa04:	9005      	str	r0, [sp, #20]
    aa06:	2b00      	cmp	r3, #0
    aa08:	d100      	bne.n	aa0c <_dtoa_r+0x8f8>
    aa0a:	e15d      	b.n	acc8 <_dtoa_r+0xbb4>
    aa0c:	2300      	movs	r3, #0
    aa0e:	0031      	movs	r1, r6
    aa10:	220a      	movs	r2, #10
    aa12:	9804      	ldr	r0, [sp, #16]
    aa14:	f000 f9d0 	bl	adb8 <__multadd>
    aa18:	9b0d      	ldr	r3, [sp, #52]	; 0x34
    aa1a:	0006      	movs	r6, r0
    aa1c:	2b00      	cmp	r3, #0
    aa1e:	dc02      	bgt.n	aa26 <_dtoa_r+0x912>
    aa20:	9b22      	ldr	r3, [sp, #136]	; 0x88
    aa22:	2b02      	cmp	r3, #2
    aa24:	dc6d      	bgt.n	ab02 <_dtoa_r+0x9ee>
    aa26:	2c00      	cmp	r4, #0
    aa28:	dd05      	ble.n	aa36 <_dtoa_r+0x922>
    aa2a:	0031      	movs	r1, r6
    aa2c:	0022      	movs	r2, r4
    aa2e:	9804      	ldr	r0, [sp, #16]
    aa30:	f000 fb32 	bl	b098 <__lshift>
    aa34:	0006      	movs	r6, r0
    aa36:	0030      	movs	r0, r6
    aa38:	2d00      	cmp	r5, #0
    aa3a:	d011      	beq.n	aa60 <_dtoa_r+0x94c>
    aa3c:	6871      	ldr	r1, [r6, #4]
    aa3e:	9804      	ldr	r0, [sp, #16]
    aa40:	f000 f969 	bl	ad16 <_Balloc>
    aa44:	0031      	movs	r1, r6
    aa46:	0004      	movs	r4, r0
    aa48:	6933      	ldr	r3, [r6, #16]
    aa4a:	310c      	adds	r1, #12
    aa4c:	1c9a      	adds	r2, r3, #2
    aa4e:	0092      	lsls	r2, r2, #2
    aa50:	300c      	adds	r0, #12
    aa52:	f7fe fcac 	bl	93ae <memcpy>
    aa56:	2201      	movs	r2, #1
    aa58:	0021      	movs	r1, r4
    aa5a:	9804      	ldr	r0, [sp, #16]
    aa5c:	f000 fb1c 	bl	b098 <__lshift>
    aa60:	9f0d      	ldr	r7, [sp, #52]	; 0x34
    aa62:	9b0a      	ldr	r3, [sp, #40]	; 0x28
    aa64:	3f01      	subs	r7, #1
    aa66:	930b      	str	r3, [sp, #44]	; 0x2c
    aa68:	19db      	adds	r3, r3, r7
    aa6a:	0037      	movs	r7, r6
    aa6c:	0006      	movs	r6, r0
    aa6e:	930f      	str	r3, [sp, #60]	; 0x3c
    aa70:	9908      	ldr	r1, [sp, #32]
    aa72:	9805      	ldr	r0, [sp, #20]
    aa74:	f7ff faca 	bl	a00c <quorem>
    aa78:	0039      	movs	r1, r7
    aa7a:	900d      	str	r0, [sp, #52]	; 0x34
    aa7c:	0004      	movs	r4, r0
    aa7e:	9805      	ldr	r0, [sp, #20]
    aa80:	f000 fb5b 	bl	b13a <__mcmp>
    aa84:	0032      	movs	r2, r6
    aa86:	900e      	str	r0, [sp, #56]	; 0x38
    aa88:	9908      	ldr	r1, [sp, #32]
    aa8a:	9804      	ldr	r0, [sp, #16]
    aa8c:	f000 fb6e 	bl	b16c <__mdiff>
    aa90:	2301      	movs	r3, #1
    aa92:	930c      	str	r3, [sp, #48]	; 0x30
    aa94:	68c3      	ldr	r3, [r0, #12]
    aa96:	3430      	adds	r4, #48	; 0x30
    aa98:	0005      	movs	r5, r0
    aa9a:	2b00      	cmp	r3, #0
    aa9c:	d104      	bne.n	aaa8 <_dtoa_r+0x994>
    aa9e:	0001      	movs	r1, r0
    aaa0:	9805      	ldr	r0, [sp, #20]
    aaa2:	f000 fb4a 	bl	b13a <__mcmp>
    aaa6:	900c      	str	r0, [sp, #48]	; 0x30
    aaa8:	0029      	movs	r1, r5
    aaaa:	9804      	ldr	r0, [sp, #16]
    aaac:	f000 f96b 	bl	ad86 <_Bfree>
    aab0:	9b0c      	ldr	r3, [sp, #48]	; 0x30
    aab2:	9a22      	ldr	r2, [sp, #136]	; 0x88
    aab4:	4313      	orrs	r3, r2
    aab6:	d000      	beq.n	aaba <_dtoa_r+0x9a6>
    aab8:	e089      	b.n	abce <_dtoa_r+0xaba>
    aaba:	9a06      	ldr	r2, [sp, #24]
    aabc:	3301      	adds	r3, #1
    aabe:	4213      	tst	r3, r2
    aac0:	d000      	beq.n	aac4 <_dtoa_r+0x9b0>
    aac2:	e084      	b.n	abce <_dtoa_r+0xaba>
    aac4:	2c39      	cmp	r4, #57	; 0x39
    aac6:	d100      	bne.n	aaca <_dtoa_r+0x9b6>
    aac8:	e0a3      	b.n	ac12 <_dtoa_r+0xafe>
    aaca:	9b0e      	ldr	r3, [sp, #56]	; 0x38
    aacc:	2b00      	cmp	r3, #0
    aace:	dd01      	ble.n	aad4 <_dtoa_r+0x9c0>
    aad0:	9c0d      	ldr	r4, [sp, #52]	; 0x34
    aad2:	3431      	adds	r4, #49	; 0x31
    aad4:	9b0b      	ldr	r3, [sp, #44]	; 0x2c
    aad6:	1c5d      	adds	r5, r3, #1
    aad8:	701c      	strb	r4, [r3, #0]
    aada:	e027      	b.n	ab2c <_dtoa_r+0xa18>
    aadc:	2b04      	cmp	r3, #4
    aade:	d100      	bne.n	aae2 <_dtoa_r+0x9ce>
    aae0:	e769      	b.n	a9b6 <_dtoa_r+0x8a2>
    aae2:	9a0b      	ldr	r2, [sp, #44]	; 0x2c
    aae4:	331c      	adds	r3, #28
    aae6:	18d2      	adds	r2, r2, r3
    aae8:	920b      	str	r2, [sp, #44]	; 0x2c
    aaea:	9a0c      	ldr	r2, [sp, #48]	; 0x30
    aaec:	18e4      	adds	r4, r4, r3
    aaee:	18d3      	adds	r3, r2, r3
    aaf0:	e760      	b.n	a9b4 <_dtoa_r+0x8a0>
    aaf2:	0003      	movs	r3, r0
    aaf4:	e7f5      	b.n	aae2 <_dtoa_r+0x9ce>
    aaf6:	2f00      	cmp	r7, #0
    aaf8:	dc3c      	bgt.n	ab74 <_dtoa_r+0xa60>
    aafa:	9b22      	ldr	r3, [sp, #136]	; 0x88
    aafc:	2b02      	cmp	r3, #2
    aafe:	dd39      	ble.n	ab74 <_dtoa_r+0xa60>
    ab00:	970d      	str	r7, [sp, #52]	; 0x34
    ab02:	9b0d      	ldr	r3, [sp, #52]	; 0x34
    ab04:	2b00      	cmp	r3, #0
    ab06:	d10c      	bne.n	ab22 <_dtoa_r+0xa0e>
    ab08:	9908      	ldr	r1, [sp, #32]
    ab0a:	2205      	movs	r2, #5
    ab0c:	9804      	ldr	r0, [sp, #16]
    ab0e:	f000 f953 	bl	adb8 <__multadd>
    ab12:	9008      	str	r0, [sp, #32]
    ab14:	0001      	movs	r1, r0
    ab16:	9805      	ldr	r0, [sp, #20]
    ab18:	f000 fb0f 	bl	b13a <__mcmp>
    ab1c:	2800      	cmp	r0, #0
    ab1e:	dd00      	ble.n	ab22 <_dtoa_r+0xa0e>
    ab20:	e55a      	b.n	a5d8 <_dtoa_r+0x4c4>
    ab22:	9b23      	ldr	r3, [sp, #140]	; 0x8c
    ab24:	9d0a      	ldr	r5, [sp, #40]	; 0x28
    ab26:	43db      	mvns	r3, r3
    ab28:	9303      	str	r3, [sp, #12]
    ab2a:	2700      	movs	r7, #0
    ab2c:	9908      	ldr	r1, [sp, #32]
    ab2e:	9804      	ldr	r0, [sp, #16]
    ab30:	f000 f929 	bl	ad86 <_Bfree>
    ab34:	2e00      	cmp	r6, #0
    ab36:	d100      	bne.n	ab3a <_dtoa_r+0xa26>
    ab38:	e63f      	b.n	a7ba <_dtoa_r+0x6a6>
    ab3a:	2f00      	cmp	r7, #0
    ab3c:	d005      	beq.n	ab4a <_dtoa_r+0xa36>
    ab3e:	42b7      	cmp	r7, r6
    ab40:	d003      	beq.n	ab4a <_dtoa_r+0xa36>
    ab42:	0039      	movs	r1, r7
    ab44:	9804      	ldr	r0, [sp, #16]
    ab46:	f000 f91e 	bl	ad86 <_Bfree>
    ab4a:	0031      	movs	r1, r6
    ab4c:	9804      	ldr	r0, [sp, #16]
    ab4e:	f000 f91a 	bl	ad86 <_Bfree>
    ab52:	e632      	b.n	a7ba <_dtoa_r+0x6a6>
    ab54:	9508      	str	r5, [sp, #32]
    ab56:	002e      	movs	r6, r5
    ab58:	e7e3      	b.n	ab22 <_dtoa_r+0xa0e>
    ab5a:	2300      	movs	r3, #0
    ab5c:	9308      	str	r3, [sp, #32]
    ab5e:	001e      	movs	r6, r3
    ab60:	e7df      	b.n	ab22 <_dtoa_r+0xa0e>
    ab62:	46c0      	nop			; (mov r8, r8)
    ab64:	40240000 	.word	0x40240000
    ab68:	00000433 	.word	0x00000433
    ab6c:	9603      	str	r6, [sp, #12]
    ab6e:	9508      	str	r5, [sp, #32]
    ab70:	002e      	movs	r6, r5
    ab72:	e531      	b.n	a5d8 <_dtoa_r+0x4c4>
    ab74:	9b0e      	ldr	r3, [sp, #56]	; 0x38
    ab76:	970d      	str	r7, [sp, #52]	; 0x34
    ab78:	2b00      	cmp	r3, #0
    ab7a:	d000      	beq.n	ab7e <_dtoa_r+0xa6a>
    ab7c:	e753      	b.n	aa26 <_dtoa_r+0x912>
    ab7e:	9d0a      	ldr	r5, [sp, #40]	; 0x28
    ab80:	9908      	ldr	r1, [sp, #32]
    ab82:	9805      	ldr	r0, [sp, #20]
    ab84:	f7ff fa42 	bl	a00c <quorem>
    ab88:	9b0a      	ldr	r3, [sp, #40]	; 0x28
    ab8a:	3030      	adds	r0, #48	; 0x30
    ab8c:	9a0d      	ldr	r2, [sp, #52]	; 0x34
    ab8e:	7028      	strb	r0, [r5, #0]
    ab90:	3501      	adds	r5, #1
    ab92:	0004      	movs	r4, r0
    ab94:	1aeb      	subs	r3, r5, r3
    ab96:	429a      	cmp	r2, r3
    ab98:	dc78      	bgt.n	ac8c <_dtoa_r+0xb78>
    ab9a:	1e15      	subs	r5, r2, #0
    ab9c:	dc00      	bgt.n	aba0 <_dtoa_r+0xa8c>
    ab9e:	2501      	movs	r5, #1
    aba0:	2700      	movs	r7, #0
    aba2:	9b0a      	ldr	r3, [sp, #40]	; 0x28
    aba4:	195d      	adds	r5, r3, r5
    aba6:	9905      	ldr	r1, [sp, #20]
    aba8:	2201      	movs	r2, #1
    abaa:	9804      	ldr	r0, [sp, #16]
    abac:	f000 fa74 	bl	b098 <__lshift>
    abb0:	9908      	ldr	r1, [sp, #32]
    abb2:	9005      	str	r0, [sp, #20]
    abb4:	f000 fac1 	bl	b13a <__mcmp>
    abb8:	2800      	cmp	r0, #0
    abba:	dc2f      	bgt.n	ac1c <_dtoa_r+0xb08>
    abbc:	d101      	bne.n	abc2 <_dtoa_r+0xaae>
    abbe:	07e3      	lsls	r3, r4, #31
    abc0:	d42c      	bmi.n	ac1c <_dtoa_r+0xb08>
    abc2:	1e6b      	subs	r3, r5, #1
    abc4:	781a      	ldrb	r2, [r3, #0]
    abc6:	2a30      	cmp	r2, #48	; 0x30
    abc8:	d1b0      	bne.n	ab2c <_dtoa_r+0xa18>
    abca:	001d      	movs	r5, r3
    abcc:	e7f9      	b.n	abc2 <_dtoa_r+0xaae>
    abce:	9b0e      	ldr	r3, [sp, #56]	; 0x38
    abd0:	2b00      	cmp	r3, #0
    abd2:	db07      	blt.n	abe4 <_dtoa_r+0xad0>
    abd4:	001d      	movs	r5, r3
    abd6:	9b22      	ldr	r3, [sp, #136]	; 0x88
    abd8:	431d      	orrs	r5, r3
    abda:	d126      	bne.n	ac2a <_dtoa_r+0xb16>
    abdc:	2301      	movs	r3, #1
    abde:	9a06      	ldr	r2, [sp, #24]
    abe0:	4213      	tst	r3, r2
    abe2:	d122      	bne.n	ac2a <_dtoa_r+0xb16>
    abe4:	9b0c      	ldr	r3, [sp, #48]	; 0x30
    abe6:	2b00      	cmp	r3, #0
    abe8:	dc00      	bgt.n	abec <_dtoa_r+0xad8>
    abea:	e773      	b.n	aad4 <_dtoa_r+0x9c0>
    abec:	9905      	ldr	r1, [sp, #20]
    abee:	2201      	movs	r2, #1
    abf0:	9804      	ldr	r0, [sp, #16]
    abf2:	f000 fa51 	bl	b098 <__lshift>
    abf6:	9908      	ldr	r1, [sp, #32]
    abf8:	9005      	str	r0, [sp, #20]
    abfa:	f000 fa9e 	bl	b13a <__mcmp>
    abfe:	2800      	cmp	r0, #0
    ac00:	dc04      	bgt.n	ac0c <_dtoa_r+0xaf8>
    ac02:	d000      	beq.n	ac06 <_dtoa_r+0xaf2>
    ac04:	e766      	b.n	aad4 <_dtoa_r+0x9c0>
    ac06:	07e3      	lsls	r3, r4, #31
    ac08:	d400      	bmi.n	ac0c <_dtoa_r+0xaf8>
    ac0a:	e763      	b.n	aad4 <_dtoa_r+0x9c0>
    ac0c:	2c39      	cmp	r4, #57	; 0x39
    ac0e:	d000      	beq.n	ac12 <_dtoa_r+0xafe>
    ac10:	e75e      	b.n	aad0 <_dtoa_r+0x9bc>
    ac12:	9b0b      	ldr	r3, [sp, #44]	; 0x2c
    ac14:	9a0b      	ldr	r2, [sp, #44]	; 0x2c
    ac16:	1c5d      	adds	r5, r3, #1
    ac18:	2339      	movs	r3, #57	; 0x39
    ac1a:	7013      	strb	r3, [r2, #0]
    ac1c:	1e6b      	subs	r3, r5, #1
    ac1e:	781a      	ldrb	r2, [r3, #0]
    ac20:	2a39      	cmp	r2, #57	; 0x39
    ac22:	d03b      	beq.n	ac9c <_dtoa_r+0xb88>
    ac24:	3201      	adds	r2, #1
    ac26:	701a      	strb	r2, [r3, #0]
    ac28:	e780      	b.n	ab2c <_dtoa_r+0xa18>
    ac2a:	9b0b      	ldr	r3, [sp, #44]	; 0x2c
    ac2c:	3301      	adds	r3, #1
    ac2e:	930d      	str	r3, [sp, #52]	; 0x34
    ac30:	9b0c      	ldr	r3, [sp, #48]	; 0x30
    ac32:	2b00      	cmp	r3, #0
    ac34:	dd05      	ble.n	ac42 <_dtoa_r+0xb2e>
    ac36:	2c39      	cmp	r4, #57	; 0x39
    ac38:	d0eb      	beq.n	ac12 <_dtoa_r+0xafe>
    ac3a:	9d0d      	ldr	r5, [sp, #52]	; 0x34
    ac3c:	3401      	adds	r4, #1
    ac3e:	9b0b      	ldr	r3, [sp, #44]	; 0x2c
    ac40:	e74a      	b.n	aad8 <_dtoa_r+0x9c4>
    ac42:	9b0b      	ldr	r3, [sp, #44]	; 0x2c
    ac44:	9a0f      	ldr	r2, [sp, #60]	; 0x3c
    ac46:	9d0d      	ldr	r5, [sp, #52]	; 0x34
    ac48:	701c      	strb	r4, [r3, #0]
    ac4a:	4293      	cmp	r3, r2
    ac4c:	d0ab      	beq.n	aba6 <_dtoa_r+0xa92>
    ac4e:	2300      	movs	r3, #0
    ac50:	220a      	movs	r2, #10
    ac52:	9905      	ldr	r1, [sp, #20]
    ac54:	9804      	ldr	r0, [sp, #16]
    ac56:	f000 f8af 	bl	adb8 <__multadd>
    ac5a:	2300      	movs	r3, #0
    ac5c:	9005      	str	r0, [sp, #20]
    ac5e:	220a      	movs	r2, #10
    ac60:	0039      	movs	r1, r7
    ac62:	9804      	ldr	r0, [sp, #16]
    ac64:	42b7      	cmp	r7, r6
    ac66:	d106      	bne.n	ac76 <_dtoa_r+0xb62>
    ac68:	f000 f8a6 	bl	adb8 <__multadd>
    ac6c:	0007      	movs	r7, r0
    ac6e:	0006      	movs	r6, r0
    ac70:	9b0d      	ldr	r3, [sp, #52]	; 0x34
    ac72:	930b      	str	r3, [sp, #44]	; 0x2c
    ac74:	e6fc      	b.n	aa70 <_dtoa_r+0x95c>
    ac76:	f000 f89f 	bl	adb8 <__multadd>
    ac7a:	0031      	movs	r1, r6
    ac7c:	0007      	movs	r7, r0
    ac7e:	2300      	movs	r3, #0
    ac80:	220a      	movs	r2, #10
    ac82:	9804      	ldr	r0, [sp, #16]
    ac84:	f000 f898 	bl	adb8 <__multadd>
    ac88:	0006      	movs	r6, r0
    ac8a:	e7f1      	b.n	ac70 <_dtoa_r+0xb5c>
    ac8c:	2300      	movs	r3, #0
    ac8e:	220a      	movs	r2, #10
    ac90:	9905      	ldr	r1, [sp, #20]
    ac92:	9804      	ldr	r0, [sp, #16]
    ac94:	f000 f890 	bl	adb8 <__multadd>
    ac98:	9005      	str	r0, [sp, #20]
    ac9a:	e771      	b.n	ab80 <_dtoa_r+0xa6c>
    ac9c:	9a0a      	ldr	r2, [sp, #40]	; 0x28
    ac9e:	429a      	cmp	r2, r3
    aca0:	d105      	bne.n	acae <_dtoa_r+0xb9a>
    aca2:	9b03      	ldr	r3, [sp, #12]
    aca4:	3301      	adds	r3, #1
    aca6:	9303      	str	r3, [sp, #12]
    aca8:	2331      	movs	r3, #49	; 0x31
    acaa:	7013      	strb	r3, [r2, #0]
    acac:	e73e      	b.n	ab2c <_dtoa_r+0xa18>
    acae:	001d      	movs	r5, r3
    acb0:	e7b4      	b.n	ac1c <_dtoa_r+0xb08>
    acb2:	4b0a      	ldr	r3, [pc, #40]	; (acdc <_dtoa_r+0xbc8>)
    acb4:	9a26      	ldr	r2, [sp, #152]	; 0x98
    acb6:	930a      	str	r3, [sp, #40]	; 0x28
    acb8:	4b09      	ldr	r3, [pc, #36]	; (ace0 <_dtoa_r+0xbcc>)
    acba:	2a00      	cmp	r2, #0
    acbc:	d001      	beq.n	acc2 <_dtoa_r+0xbae>
    acbe:	9a26      	ldr	r2, [sp, #152]	; 0x98
    acc0:	6013      	str	r3, [r2, #0]
    acc2:	980a      	ldr	r0, [sp, #40]	; 0x28
    acc4:	b01d      	add	sp, #116	; 0x74
    acc6:	bdf0      	pop	{r4, r5, r6, r7, pc}
    acc8:	9b0d      	ldr	r3, [sp, #52]	; 0x34
    acca:	2b00      	cmp	r3, #0
    accc:	dd00      	ble.n	acd0 <_dtoa_r+0xbbc>
    acce:	e756      	b.n	ab7e <_dtoa_r+0xa6a>
    acd0:	9b22      	ldr	r3, [sp, #136]	; 0x88
    acd2:	2b02      	cmp	r3, #2
    acd4:	dc00      	bgt.n	acd8 <_dtoa_r+0xbc4>
    acd6:	e752      	b.n	ab7e <_dtoa_r+0xa6a>
    acd8:	e713      	b.n	ab02 <_dtoa_r+0x9ee>
    acda:	46c0      	nop			; (mov r8, r8)
    acdc:	0000bf97 	.word	0x0000bf97
    ace0:	0000bf9f 	.word	0x0000bf9f

0000ace4 <_localeconv_r>:
    ace4:	4b03      	ldr	r3, [pc, #12]	; (acf4 <_localeconv_r+0x10>)
    ace6:	681b      	ldr	r3, [r3, #0]
    ace8:	6a18      	ldr	r0, [r3, #32]
    acea:	2800      	cmp	r0, #0
    acec:	d100      	bne.n	acf0 <_localeconv_r+0xc>
    acee:	4802      	ldr	r0, [pc, #8]	; (acf8 <_localeconv_r+0x14>)
    acf0:	30f0      	adds	r0, #240	; 0xf0
    acf2:	4770      	bx	lr
    acf4:	2000008c 	.word	0x2000008c
    acf8:	200000f0 	.word	0x200000f0

0000acfc <memchr>:
    acfc:	b2c9      	uxtb	r1, r1
    acfe:	1882      	adds	r2, r0, r2
    ad00:	4290      	cmp	r0, r2
    ad02:	d101      	bne.n	ad08 <memchr+0xc>
    ad04:	2000      	movs	r0, #0
    ad06:	4770      	bx	lr
    ad08:	7803      	ldrb	r3, [r0, #0]
    ad0a:	428b      	cmp	r3, r1
    ad0c:	d0fb      	beq.n	ad06 <memchr+0xa>
    ad0e:	3001      	adds	r0, #1
    ad10:	e7f6      	b.n	ad00 <memchr+0x4>

0000ad12 <__malloc_lock>:
    ad12:	4770      	bx	lr

0000ad14 <__malloc_unlock>:
    ad14:	4770      	bx	lr

0000ad16 <_Balloc>:
    ad16:	b570      	push	{r4, r5, r6, lr}
    ad18:	6a46      	ldr	r6, [r0, #36]	; 0x24
    ad1a:	0004      	movs	r4, r0
    ad1c:	000d      	movs	r5, r1
    ad1e:	2e00      	cmp	r6, #0
    ad20:	d107      	bne.n	ad32 <_Balloc+0x1c>
    ad22:	2010      	movs	r0, #16
    ad24:	f7fe fb0e 	bl	9344 <malloc>
    ad28:	6260      	str	r0, [r4, #36]	; 0x24
    ad2a:	6046      	str	r6, [r0, #4]
    ad2c:	6086      	str	r6, [r0, #8]
    ad2e:	6006      	str	r6, [r0, #0]
    ad30:	60c6      	str	r6, [r0, #12]
    ad32:	6a66      	ldr	r6, [r4, #36]	; 0x24
    ad34:	68f3      	ldr	r3, [r6, #12]
    ad36:	2b00      	cmp	r3, #0
    ad38:	d013      	beq.n	ad62 <_Balloc+0x4c>
    ad3a:	6a63      	ldr	r3, [r4, #36]	; 0x24
    ad3c:	00aa      	lsls	r2, r5, #2
    ad3e:	68db      	ldr	r3, [r3, #12]
    ad40:	189b      	adds	r3, r3, r2
    ad42:	6818      	ldr	r0, [r3, #0]
    ad44:	2800      	cmp	r0, #0
    ad46:	d118      	bne.n	ad7a <_Balloc+0x64>
    ad48:	2101      	movs	r1, #1
    ad4a:	000e      	movs	r6, r1
    ad4c:	40ae      	lsls	r6, r5
    ad4e:	1d72      	adds	r2, r6, #5
    ad50:	0092      	lsls	r2, r2, #2
    ad52:	0020      	movs	r0, r4
    ad54:	f000 fac2 	bl	b2dc <_calloc_r>
    ad58:	2800      	cmp	r0, #0
    ad5a:	d00c      	beq.n	ad76 <_Balloc+0x60>
    ad5c:	6045      	str	r5, [r0, #4]
    ad5e:	6086      	str	r6, [r0, #8]
    ad60:	e00d      	b.n	ad7e <_Balloc+0x68>
    ad62:	2221      	movs	r2, #33	; 0x21
    ad64:	2104      	movs	r1, #4
    ad66:	0020      	movs	r0, r4
    ad68:	f000 fab8 	bl	b2dc <_calloc_r>
    ad6c:	6a63      	ldr	r3, [r4, #36]	; 0x24
    ad6e:	60f0      	str	r0, [r6, #12]
    ad70:	68db      	ldr	r3, [r3, #12]
    ad72:	2b00      	cmp	r3, #0
    ad74:	d1e1      	bne.n	ad3a <_Balloc+0x24>
    ad76:	2000      	movs	r0, #0
    ad78:	bd70      	pop	{r4, r5, r6, pc}
    ad7a:	6802      	ldr	r2, [r0, #0]
    ad7c:	601a      	str	r2, [r3, #0]
    ad7e:	2300      	movs	r3, #0
    ad80:	6103      	str	r3, [r0, #16]
    ad82:	60c3      	str	r3, [r0, #12]
    ad84:	e7f8      	b.n	ad78 <_Balloc+0x62>

0000ad86 <_Bfree>:
    ad86:	b570      	push	{r4, r5, r6, lr}
    ad88:	6a44      	ldr	r4, [r0, #36]	; 0x24
    ad8a:	0006      	movs	r6, r0
    ad8c:	000d      	movs	r5, r1
    ad8e:	2c00      	cmp	r4, #0
    ad90:	d107      	bne.n	ada2 <_Bfree+0x1c>
    ad92:	2010      	movs	r0, #16
    ad94:	f7fe fad6 	bl	9344 <malloc>
    ad98:	6270      	str	r0, [r6, #36]	; 0x24
    ad9a:	6044      	str	r4, [r0, #4]
    ad9c:	6084      	str	r4, [r0, #8]
    ad9e:	6004      	str	r4, [r0, #0]
    ada0:	60c4      	str	r4, [r0, #12]
    ada2:	2d00      	cmp	r5, #0
    ada4:	d007      	beq.n	adb6 <_Bfree+0x30>
    ada6:	6a73      	ldr	r3, [r6, #36]	; 0x24
    ada8:	686a      	ldr	r2, [r5, #4]
    adaa:	68db      	ldr	r3, [r3, #12]
    adac:	0092      	lsls	r2, r2, #2
    adae:	189b      	adds	r3, r3, r2
    adb0:	681a      	ldr	r2, [r3, #0]
    adb2:	602a      	str	r2, [r5, #0]
    adb4:	601d      	str	r5, [r3, #0]
    adb6:	bd70      	pop	{r4, r5, r6, pc}

0000adb8 <__multadd>:
    adb8:	b5f7      	push	{r0, r1, r2, r4, r5, r6, r7, lr}
    adba:	001e      	movs	r6, r3
    adbc:	2314      	movs	r3, #20
    adbe:	469c      	mov	ip, r3
    adc0:	0007      	movs	r7, r0
    adc2:	000c      	movs	r4, r1
    adc4:	2000      	movs	r0, #0
    adc6:	690d      	ldr	r5, [r1, #16]
    adc8:	448c      	add	ip, r1
    adca:	4663      	mov	r3, ip
    adcc:	8819      	ldrh	r1, [r3, #0]
    adce:	681b      	ldr	r3, [r3, #0]
    add0:	4351      	muls	r1, r2
    add2:	0c1b      	lsrs	r3, r3, #16
    add4:	4353      	muls	r3, r2
    add6:	1989      	adds	r1, r1, r6
    add8:	0c0e      	lsrs	r6, r1, #16
    adda:	199b      	adds	r3, r3, r6
    addc:	b289      	uxth	r1, r1
    adde:	0c1e      	lsrs	r6, r3, #16
    ade0:	041b      	lsls	r3, r3, #16
    ade2:	185b      	adds	r3, r3, r1
    ade4:	4661      	mov	r1, ip
    ade6:	3001      	adds	r0, #1
    ade8:	c108      	stmia	r1!, {r3}
    adea:	468c      	mov	ip, r1
    adec:	4285      	cmp	r5, r0
    adee:	dcec      	bgt.n	adca <__multadd+0x12>
    adf0:	2e00      	cmp	r6, #0
    adf2:	d01b      	beq.n	ae2c <__multadd+0x74>
    adf4:	68a3      	ldr	r3, [r4, #8]
    adf6:	429d      	cmp	r5, r3
    adf8:	db12      	blt.n	ae20 <__multadd+0x68>
    adfa:	6863      	ldr	r3, [r4, #4]
    adfc:	0038      	movs	r0, r7
    adfe:	1c59      	adds	r1, r3, #1
    ae00:	f7ff ff89 	bl	ad16 <_Balloc>
    ae04:	0021      	movs	r1, r4
    ae06:	6923      	ldr	r3, [r4, #16]
    ae08:	9001      	str	r0, [sp, #4]
    ae0a:	1c9a      	adds	r2, r3, #2
    ae0c:	0092      	lsls	r2, r2, #2
    ae0e:	310c      	adds	r1, #12
    ae10:	300c      	adds	r0, #12
    ae12:	f7fe facc 	bl	93ae <memcpy>
    ae16:	0021      	movs	r1, r4
    ae18:	0038      	movs	r0, r7
    ae1a:	f7ff ffb4 	bl	ad86 <_Bfree>
    ae1e:	9c01      	ldr	r4, [sp, #4]
    ae20:	1d2b      	adds	r3, r5, #4
    ae22:	009b      	lsls	r3, r3, #2
    ae24:	18e3      	adds	r3, r4, r3
    ae26:	3501      	adds	r5, #1
    ae28:	605e      	str	r6, [r3, #4]
    ae2a:	6125      	str	r5, [r4, #16]
    ae2c:	0020      	movs	r0, r4
    ae2e:	bdfe      	pop	{r1, r2, r3, r4, r5, r6, r7, pc}

0000ae30 <__hi0bits>:
    ae30:	0003      	movs	r3, r0
    ae32:	0c02      	lsrs	r2, r0, #16
    ae34:	2000      	movs	r0, #0
    ae36:	4282      	cmp	r2, r0
    ae38:	d101      	bne.n	ae3e <__hi0bits+0xe>
    ae3a:	041b      	lsls	r3, r3, #16
    ae3c:	3010      	adds	r0, #16
    ae3e:	0e1a      	lsrs	r2, r3, #24
    ae40:	d101      	bne.n	ae46 <__hi0bits+0x16>
    ae42:	3008      	adds	r0, #8
    ae44:	021b      	lsls	r3, r3, #8
    ae46:	0f1a      	lsrs	r2, r3, #28
    ae48:	d101      	bne.n	ae4e <__hi0bits+0x1e>
    ae4a:	3004      	adds	r0, #4
    ae4c:	011b      	lsls	r3, r3, #4
    ae4e:	0f9a      	lsrs	r2, r3, #30
    ae50:	d101      	bne.n	ae56 <__hi0bits+0x26>
    ae52:	3002      	adds	r0, #2
    ae54:	009b      	lsls	r3, r3, #2
    ae56:	2b00      	cmp	r3, #0
    ae58:	db03      	blt.n	ae62 <__hi0bits+0x32>
    ae5a:	3001      	adds	r0, #1
    ae5c:	005b      	lsls	r3, r3, #1
    ae5e:	d400      	bmi.n	ae62 <__hi0bits+0x32>
    ae60:	2020      	movs	r0, #32
    ae62:	4770      	bx	lr

0000ae64 <__lo0bits>:
    ae64:	2207      	movs	r2, #7
    ae66:	6803      	ldr	r3, [r0, #0]
    ae68:	b510      	push	{r4, lr}
    ae6a:	0001      	movs	r1, r0
    ae6c:	401a      	ands	r2, r3
    ae6e:	d00d      	beq.n	ae8c <__lo0bits+0x28>
    ae70:	2401      	movs	r4, #1
    ae72:	2000      	movs	r0, #0
    ae74:	4223      	tst	r3, r4
    ae76:	d105      	bne.n	ae84 <__lo0bits+0x20>
    ae78:	3002      	adds	r0, #2
    ae7a:	4203      	tst	r3, r0
    ae7c:	d003      	beq.n	ae86 <__lo0bits+0x22>
    ae7e:	40e3      	lsrs	r3, r4
    ae80:	0020      	movs	r0, r4
    ae82:	600b      	str	r3, [r1, #0]
    ae84:	bd10      	pop	{r4, pc}
    ae86:	089b      	lsrs	r3, r3, #2
    ae88:	600b      	str	r3, [r1, #0]
    ae8a:	e7fb      	b.n	ae84 <__lo0bits+0x20>
    ae8c:	b29c      	uxth	r4, r3
    ae8e:	0010      	movs	r0, r2
    ae90:	2c00      	cmp	r4, #0
    ae92:	d101      	bne.n	ae98 <__lo0bits+0x34>
    ae94:	2010      	movs	r0, #16
    ae96:	0c1b      	lsrs	r3, r3, #16
    ae98:	b2da      	uxtb	r2, r3
    ae9a:	2a00      	cmp	r2, #0
    ae9c:	d101      	bne.n	aea2 <__lo0bits+0x3e>
    ae9e:	3008      	adds	r0, #8
    aea0:	0a1b      	lsrs	r3, r3, #8
    aea2:	071a      	lsls	r2, r3, #28
    aea4:	d101      	bne.n	aeaa <__lo0bits+0x46>
    aea6:	3004      	adds	r0, #4
    aea8:	091b      	lsrs	r3, r3, #4
    aeaa:	079a      	lsls	r2, r3, #30
    aeac:	d101      	bne.n	aeb2 <__lo0bits+0x4e>
    aeae:	3002      	adds	r0, #2
    aeb0:	089b      	lsrs	r3, r3, #2
    aeb2:	07da      	lsls	r2, r3, #31
    aeb4:	d4e8      	bmi.n	ae88 <__lo0bits+0x24>
    aeb6:	085b      	lsrs	r3, r3, #1
    aeb8:	d001      	beq.n	aebe <__lo0bits+0x5a>
    aeba:	3001      	adds	r0, #1
    aebc:	e7e4      	b.n	ae88 <__lo0bits+0x24>
    aebe:	2020      	movs	r0, #32
    aec0:	e7e0      	b.n	ae84 <__lo0bits+0x20>

0000aec2 <__i2b>:
    aec2:	b510      	push	{r4, lr}
    aec4:	000c      	movs	r4, r1
    aec6:	2101      	movs	r1, #1
    aec8:	f7ff ff25 	bl	ad16 <_Balloc>
    aecc:	2301      	movs	r3, #1
    aece:	6144      	str	r4, [r0, #20]
    aed0:	6103      	str	r3, [r0, #16]
    aed2:	bd10      	pop	{r4, pc}

0000aed4 <__multiply>:
    aed4:	b5f0      	push	{r4, r5, r6, r7, lr}
    aed6:	690b      	ldr	r3, [r1, #16]
    aed8:	0015      	movs	r5, r2
    aeda:	6912      	ldr	r2, [r2, #16]
    aedc:	b089      	sub	sp, #36	; 0x24
    aede:	000c      	movs	r4, r1
    aee0:	4293      	cmp	r3, r2
    aee2:	da01      	bge.n	aee8 <__multiply+0x14>
    aee4:	002c      	movs	r4, r5
    aee6:	000d      	movs	r5, r1
    aee8:	6927      	ldr	r7, [r4, #16]
    aeea:	692e      	ldr	r6, [r5, #16]
    aeec:	68a2      	ldr	r2, [r4, #8]
    aeee:	19bb      	adds	r3, r7, r6
    aef0:	6861      	ldr	r1, [r4, #4]
    aef2:	9301      	str	r3, [sp, #4]
    aef4:	4293      	cmp	r3, r2
    aef6:	dd00      	ble.n	aefa <__multiply+0x26>
    aef8:	3101      	adds	r1, #1
    aefa:	f7ff ff0c 	bl	ad16 <_Balloc>
    aefe:	0003      	movs	r3, r0
    af00:	3314      	adds	r3, #20
    af02:	9300      	str	r3, [sp, #0]
    af04:	9a00      	ldr	r2, [sp, #0]
    af06:	19bb      	adds	r3, r7, r6
    af08:	4694      	mov	ip, r2
    af0a:	009b      	lsls	r3, r3, #2
    af0c:	449c      	add	ip, r3
    af0e:	0013      	movs	r3, r2
    af10:	2200      	movs	r2, #0
    af12:	9004      	str	r0, [sp, #16]
    af14:	4563      	cmp	r3, ip
    af16:	d31c      	bcc.n	af52 <__multiply+0x7e>
    af18:	002a      	movs	r2, r5
    af1a:	3414      	adds	r4, #20
    af1c:	00bf      	lsls	r7, r7, #2
    af1e:	19e3      	adds	r3, r4, r7
    af20:	3214      	adds	r2, #20
    af22:	00b6      	lsls	r6, r6, #2
    af24:	9305      	str	r3, [sp, #20]
    af26:	1993      	adds	r3, r2, r6
    af28:	9402      	str	r4, [sp, #8]
    af2a:	9306      	str	r3, [sp, #24]
    af2c:	9b06      	ldr	r3, [sp, #24]
    af2e:	429a      	cmp	r2, r3
    af30:	d311      	bcc.n	af56 <__multiply+0x82>
    af32:	9b01      	ldr	r3, [sp, #4]
    af34:	2b00      	cmp	r3, #0
    af36:	dd06      	ble.n	af46 <__multiply+0x72>
    af38:	2304      	movs	r3, #4
    af3a:	425b      	negs	r3, r3
    af3c:	449c      	add	ip, r3
    af3e:	4663      	mov	r3, ip
    af40:	681b      	ldr	r3, [r3, #0]
    af42:	2b00      	cmp	r3, #0
    af44:	d051      	beq.n	afea <__multiply+0x116>
    af46:	9b04      	ldr	r3, [sp, #16]
    af48:	9a01      	ldr	r2, [sp, #4]
    af4a:	0018      	movs	r0, r3
    af4c:	611a      	str	r2, [r3, #16]
    af4e:	b009      	add	sp, #36	; 0x24
    af50:	bdf0      	pop	{r4, r5, r6, r7, pc}
    af52:	c304      	stmia	r3!, {r2}
    af54:	e7de      	b.n	af14 <__multiply+0x40>
    af56:	8814      	ldrh	r4, [r2, #0]
    af58:	2c00      	cmp	r4, #0
    af5a:	d01e      	beq.n	af9a <__multiply+0xc6>
    af5c:	2600      	movs	r6, #0
    af5e:	9d00      	ldr	r5, [sp, #0]
    af60:	9f02      	ldr	r7, [sp, #8]
    af62:	cf01      	ldmia	r7!, {r0}
    af64:	9507      	str	r5, [sp, #28]
    af66:	cd08      	ldmia	r5!, {r3}
    af68:	9303      	str	r3, [sp, #12]
    af6a:	b283      	uxth	r3, r0
    af6c:	4363      	muls	r3, r4
    af6e:	0019      	movs	r1, r3
    af70:	466b      	mov	r3, sp
    af72:	0c00      	lsrs	r0, r0, #16
    af74:	899b      	ldrh	r3, [r3, #12]
    af76:	4360      	muls	r0, r4
    af78:	18cb      	adds	r3, r1, r3
    af7a:	9903      	ldr	r1, [sp, #12]
    af7c:	199b      	adds	r3, r3, r6
    af7e:	0c09      	lsrs	r1, r1, #16
    af80:	1841      	adds	r1, r0, r1
    af82:	0c18      	lsrs	r0, r3, #16
    af84:	1809      	adds	r1, r1, r0
    af86:	0c0e      	lsrs	r6, r1, #16
    af88:	b29b      	uxth	r3, r3
    af8a:	0409      	lsls	r1, r1, #16
    af8c:	430b      	orrs	r3, r1
    af8e:	9907      	ldr	r1, [sp, #28]
    af90:	600b      	str	r3, [r1, #0]
    af92:	9b05      	ldr	r3, [sp, #20]
    af94:	42bb      	cmp	r3, r7
    af96:	d8e4      	bhi.n	af62 <__multiply+0x8e>
    af98:	602e      	str	r6, [r5, #0]
    af9a:	6813      	ldr	r3, [r2, #0]
    af9c:	0c1b      	lsrs	r3, r3, #16
    af9e:	9303      	str	r3, [sp, #12]
    afa0:	d01e      	beq.n	afe0 <__multiply+0x10c>
    afa2:	2600      	movs	r6, #0
    afa4:	9b00      	ldr	r3, [sp, #0]
    afa6:	9c02      	ldr	r4, [sp, #8]
    afa8:	681b      	ldr	r3, [r3, #0]
    afaa:	9800      	ldr	r0, [sp, #0]
    afac:	0007      	movs	r7, r0
    afae:	8821      	ldrh	r1, [r4, #0]
    afb0:	9d03      	ldr	r5, [sp, #12]
    afb2:	b29b      	uxth	r3, r3
    afb4:	4369      	muls	r1, r5
    afb6:	c820      	ldmia	r0!, {r5}
    afb8:	0c2d      	lsrs	r5, r5, #16
    afba:	1949      	adds	r1, r1, r5
    afbc:	198e      	adds	r6, r1, r6
    afbe:	0431      	lsls	r1, r6, #16
    afc0:	430b      	orrs	r3, r1
    afc2:	603b      	str	r3, [r7, #0]
    afc4:	cc08      	ldmia	r4!, {r3}
    afc6:	9903      	ldr	r1, [sp, #12]
    afc8:	0c1b      	lsrs	r3, r3, #16
    afca:	434b      	muls	r3, r1
    afcc:	6879      	ldr	r1, [r7, #4]
    afce:	0c36      	lsrs	r6, r6, #16
    afd0:	b289      	uxth	r1, r1
    afd2:	185b      	adds	r3, r3, r1
    afd4:	9905      	ldr	r1, [sp, #20]
    afd6:	199b      	adds	r3, r3, r6
    afd8:	0c1e      	lsrs	r6, r3, #16
    afda:	42a1      	cmp	r1, r4
    afdc:	d8e6      	bhi.n	afac <__multiply+0xd8>
    afde:	6003      	str	r3, [r0, #0]
    afe0:	9b00      	ldr	r3, [sp, #0]
    afe2:	3204      	adds	r2, #4
    afe4:	3304      	adds	r3, #4
    afe6:	9300      	str	r3, [sp, #0]
    afe8:	e7a0      	b.n	af2c <__multiply+0x58>
    afea:	9b01      	ldr	r3, [sp, #4]
    afec:	3b01      	subs	r3, #1
    afee:	9301      	str	r3, [sp, #4]
    aff0:	e79f      	b.n	af32 <__multiply+0x5e>
	...

0000aff4 <__pow5mult>:
    aff4:	2303      	movs	r3, #3
    aff6:	b5f7      	push	{r0, r1, r2, r4, r5, r6, r7, lr}
    aff8:	4013      	ands	r3, r2
    affa:	0005      	movs	r5, r0
    affc:	000e      	movs	r6, r1
    affe:	0014      	movs	r4, r2
    b000:	2b00      	cmp	r3, #0
    b002:	d008      	beq.n	b016 <__pow5mult+0x22>
    b004:	4922      	ldr	r1, [pc, #136]	; (b090 <__pow5mult+0x9c>)
    b006:	3b01      	subs	r3, #1
    b008:	009a      	lsls	r2, r3, #2
    b00a:	5852      	ldr	r2, [r2, r1]
    b00c:	2300      	movs	r3, #0
    b00e:	0031      	movs	r1, r6
    b010:	f7ff fed2 	bl	adb8 <__multadd>
    b014:	0006      	movs	r6, r0
    b016:	10a3      	asrs	r3, r4, #2
    b018:	9301      	str	r3, [sp, #4]
    b01a:	d036      	beq.n	b08a <__pow5mult+0x96>
    b01c:	6a6c      	ldr	r4, [r5, #36]	; 0x24
    b01e:	2c00      	cmp	r4, #0
    b020:	d107      	bne.n	b032 <__pow5mult+0x3e>
    b022:	2010      	movs	r0, #16
    b024:	f7fe f98e 	bl	9344 <malloc>
    b028:	6268      	str	r0, [r5, #36]	; 0x24
    b02a:	6044      	str	r4, [r0, #4]
    b02c:	6084      	str	r4, [r0, #8]
    b02e:	6004      	str	r4, [r0, #0]
    b030:	60c4      	str	r4, [r0, #12]
    b032:	6a6f      	ldr	r7, [r5, #36]	; 0x24
    b034:	68bc      	ldr	r4, [r7, #8]
    b036:	2c00      	cmp	r4, #0
    b038:	d107      	bne.n	b04a <__pow5mult+0x56>
    b03a:	4916      	ldr	r1, [pc, #88]	; (b094 <__pow5mult+0xa0>)
    b03c:	0028      	movs	r0, r5
    b03e:	f7ff ff40 	bl	aec2 <__i2b>
    b042:	2300      	movs	r3, #0
    b044:	0004      	movs	r4, r0
    b046:	60b8      	str	r0, [r7, #8]
    b048:	6003      	str	r3, [r0, #0]
    b04a:	2201      	movs	r2, #1
    b04c:	9b01      	ldr	r3, [sp, #4]
    b04e:	4213      	tst	r3, r2
    b050:	d00a      	beq.n	b068 <__pow5mult+0x74>
    b052:	0031      	movs	r1, r6
    b054:	0022      	movs	r2, r4
    b056:	0028      	movs	r0, r5
    b058:	f7ff ff3c 	bl	aed4 <__multiply>
    b05c:	0007      	movs	r7, r0
    b05e:	0031      	movs	r1, r6
    b060:	0028      	movs	r0, r5
    b062:	f7ff fe90 	bl	ad86 <_Bfree>
    b066:	003e      	movs	r6, r7
    b068:	9b01      	ldr	r3, [sp, #4]
    b06a:	105b      	asrs	r3, r3, #1
    b06c:	9301      	str	r3, [sp, #4]
    b06e:	d00c      	beq.n	b08a <__pow5mult+0x96>
    b070:	6820      	ldr	r0, [r4, #0]
    b072:	2800      	cmp	r0, #0
    b074:	d107      	bne.n	b086 <__pow5mult+0x92>
    b076:	0022      	movs	r2, r4
    b078:	0021      	movs	r1, r4
    b07a:	0028      	movs	r0, r5
    b07c:	f7ff ff2a 	bl	aed4 <__multiply>
    b080:	2300      	movs	r3, #0
    b082:	6020      	str	r0, [r4, #0]
    b084:	6003      	str	r3, [r0, #0]
    b086:	0004      	movs	r4, r0
    b088:	e7df      	b.n	b04a <__pow5mult+0x56>
    b08a:	0030      	movs	r0, r6
    b08c:	bdfe      	pop	{r1, r2, r3, r4, r5, r6, r7, pc}
    b08e:	46c0      	nop			; (mov r8, r8)
    b090:	0000c098 	.word	0x0000c098
    b094:	00000271 	.word	0x00000271

0000b098 <__lshift>:
    b098:	b5f0      	push	{r4, r5, r6, r7, lr}
    b09a:	000d      	movs	r5, r1
    b09c:	0017      	movs	r7, r2
    b09e:	692b      	ldr	r3, [r5, #16]
    b0a0:	1154      	asrs	r4, r2, #5
    b0a2:	b085      	sub	sp, #20
    b0a4:	18e3      	adds	r3, r4, r3
    b0a6:	9302      	str	r3, [sp, #8]
    b0a8:	3301      	adds	r3, #1
    b0aa:	9301      	str	r3, [sp, #4]
    b0ac:	6849      	ldr	r1, [r1, #4]
    b0ae:	68ab      	ldr	r3, [r5, #8]
    b0b0:	9003      	str	r0, [sp, #12]
    b0b2:	9a01      	ldr	r2, [sp, #4]
    b0b4:	4293      	cmp	r3, r2
    b0b6:	db34      	blt.n	b122 <__lshift+0x8a>
    b0b8:	9803      	ldr	r0, [sp, #12]
    b0ba:	f7ff fe2c 	bl	ad16 <_Balloc>
    b0be:	2300      	movs	r3, #0
    b0c0:	0002      	movs	r2, r0
    b0c2:	0006      	movs	r6, r0
    b0c4:	0019      	movs	r1, r3
    b0c6:	3214      	adds	r2, #20
    b0c8:	42a3      	cmp	r3, r4
    b0ca:	db2d      	blt.n	b128 <__lshift+0x90>
    b0cc:	43e3      	mvns	r3, r4
    b0ce:	17db      	asrs	r3, r3, #31
    b0d0:	401c      	ands	r4, r3
    b0d2:	002b      	movs	r3, r5
    b0d4:	211f      	movs	r1, #31
    b0d6:	00a4      	lsls	r4, r4, #2
    b0d8:	1914      	adds	r4, r2, r4
    b0da:	692a      	ldr	r2, [r5, #16]
    b0dc:	3314      	adds	r3, #20
    b0de:	0092      	lsls	r2, r2, #2
    b0e0:	189a      	adds	r2, r3, r2
    b0e2:	400f      	ands	r7, r1
    b0e4:	d024      	beq.n	b130 <__lshift+0x98>
    b0e6:	3101      	adds	r1, #1
    b0e8:	1bc9      	subs	r1, r1, r7
    b0ea:	468c      	mov	ip, r1
    b0ec:	2100      	movs	r1, #0
    b0ee:	6818      	ldr	r0, [r3, #0]
    b0f0:	40b8      	lsls	r0, r7
    b0f2:	4301      	orrs	r1, r0
    b0f4:	4660      	mov	r0, ip
    b0f6:	6021      	str	r1, [r4, #0]
    b0f8:	cb02      	ldmia	r3!, {r1}
    b0fa:	3404      	adds	r4, #4
    b0fc:	40c1      	lsrs	r1, r0
    b0fe:	429a      	cmp	r2, r3
    b100:	d8f5      	bhi.n	b0ee <__lshift+0x56>
    b102:	6021      	str	r1, [r4, #0]
    b104:	2900      	cmp	r1, #0
    b106:	d002      	beq.n	b10e <__lshift+0x76>
    b108:	9b02      	ldr	r3, [sp, #8]
    b10a:	3302      	adds	r3, #2
    b10c:	9301      	str	r3, [sp, #4]
    b10e:	9b01      	ldr	r3, [sp, #4]
    b110:	9803      	ldr	r0, [sp, #12]
    b112:	3b01      	subs	r3, #1
    b114:	6133      	str	r3, [r6, #16]
    b116:	0029      	movs	r1, r5
    b118:	f7ff fe35 	bl	ad86 <_Bfree>
    b11c:	0030      	movs	r0, r6
    b11e:	b005      	add	sp, #20
    b120:	bdf0      	pop	{r4, r5, r6, r7, pc}
    b122:	3101      	adds	r1, #1
    b124:	005b      	lsls	r3, r3, #1
    b126:	e7c4      	b.n	b0b2 <__lshift+0x1a>
    b128:	0098      	lsls	r0, r3, #2
    b12a:	5011      	str	r1, [r2, r0]
    b12c:	3301      	adds	r3, #1
    b12e:	e7cb      	b.n	b0c8 <__lshift+0x30>
    b130:	cb02      	ldmia	r3!, {r1}
    b132:	c402      	stmia	r4!, {r1}
    b134:	429a      	cmp	r2, r3
    b136:	d8fb      	bhi.n	b130 <__lshift+0x98>
    b138:	e7e9      	b.n	b10e <__lshift+0x76>

0000b13a <__mcmp>:
    b13a:	690a      	ldr	r2, [r1, #16]
    b13c:	6903      	ldr	r3, [r0, #16]
    b13e:	b530      	push	{r4, r5, lr}
    b140:	1a9b      	subs	r3, r3, r2
    b142:	d10e      	bne.n	b162 <__mcmp+0x28>
    b144:	0092      	lsls	r2, r2, #2
    b146:	3014      	adds	r0, #20
    b148:	3114      	adds	r1, #20
    b14a:	1884      	adds	r4, r0, r2
    b14c:	1889      	adds	r1, r1, r2
    b14e:	3c04      	subs	r4, #4
    b150:	3904      	subs	r1, #4
    b152:	6822      	ldr	r2, [r4, #0]
    b154:	680d      	ldr	r5, [r1, #0]
    b156:	42aa      	cmp	r2, r5
    b158:	d005      	beq.n	b166 <__mcmp+0x2c>
    b15a:	42aa      	cmp	r2, r5
    b15c:	4192      	sbcs	r2, r2
    b15e:	2301      	movs	r3, #1
    b160:	4313      	orrs	r3, r2
    b162:	0018      	movs	r0, r3
    b164:	bd30      	pop	{r4, r5, pc}
    b166:	42a0      	cmp	r0, r4
    b168:	d3f1      	bcc.n	b14e <__mcmp+0x14>
    b16a:	e7fa      	b.n	b162 <__mcmp+0x28>

0000b16c <__mdiff>:
    b16c:	b5f0      	push	{r4, r5, r6, r7, lr}
    b16e:	000d      	movs	r5, r1
    b170:	b085      	sub	sp, #20
    b172:	0007      	movs	r7, r0
    b174:	0011      	movs	r1, r2
    b176:	0028      	movs	r0, r5
    b178:	0014      	movs	r4, r2
    b17a:	f7ff ffde 	bl	b13a <__mcmp>
    b17e:	1e06      	subs	r6, r0, #0
    b180:	d108      	bne.n	b194 <__mdiff+0x28>
    b182:	0001      	movs	r1, r0
    b184:	0038      	movs	r0, r7
    b186:	f7ff fdc6 	bl	ad16 <_Balloc>
    b18a:	2301      	movs	r3, #1
    b18c:	6146      	str	r6, [r0, #20]
    b18e:	6103      	str	r3, [r0, #16]
    b190:	b005      	add	sp, #20
    b192:	bdf0      	pop	{r4, r5, r6, r7, pc}
    b194:	2301      	movs	r3, #1
    b196:	9301      	str	r3, [sp, #4]
    b198:	2800      	cmp	r0, #0
    b19a:	db04      	blt.n	b1a6 <__mdiff+0x3a>
    b19c:	0023      	movs	r3, r4
    b19e:	002c      	movs	r4, r5
    b1a0:	001d      	movs	r5, r3
    b1a2:	2300      	movs	r3, #0
    b1a4:	9301      	str	r3, [sp, #4]
    b1a6:	6861      	ldr	r1, [r4, #4]
    b1a8:	0038      	movs	r0, r7
    b1aa:	f7ff fdb4 	bl	ad16 <_Balloc>
    b1ae:	002f      	movs	r7, r5
    b1b0:	2200      	movs	r2, #0
    b1b2:	9b01      	ldr	r3, [sp, #4]
    b1b4:	6926      	ldr	r6, [r4, #16]
    b1b6:	60c3      	str	r3, [r0, #12]
    b1b8:	3414      	adds	r4, #20
    b1ba:	00b3      	lsls	r3, r6, #2
    b1bc:	18e3      	adds	r3, r4, r3
    b1be:	9302      	str	r3, [sp, #8]
    b1c0:	692b      	ldr	r3, [r5, #16]
    b1c2:	3714      	adds	r7, #20
    b1c4:	009b      	lsls	r3, r3, #2
    b1c6:	18fb      	adds	r3, r7, r3
    b1c8:	9303      	str	r3, [sp, #12]
    b1ca:	0003      	movs	r3, r0
    b1cc:	4694      	mov	ip, r2
    b1ce:	3314      	adds	r3, #20
    b1d0:	cc20      	ldmia	r4!, {r5}
    b1d2:	cf04      	ldmia	r7!, {r2}
    b1d4:	9201      	str	r2, [sp, #4]
    b1d6:	b2aa      	uxth	r2, r5
    b1d8:	4494      	add	ip, r2
    b1da:	466a      	mov	r2, sp
    b1dc:	4661      	mov	r1, ip
    b1de:	8892      	ldrh	r2, [r2, #4]
    b1e0:	0c2d      	lsrs	r5, r5, #16
    b1e2:	1a8a      	subs	r2, r1, r2
    b1e4:	9901      	ldr	r1, [sp, #4]
    b1e6:	0c09      	lsrs	r1, r1, #16
    b1e8:	1a69      	subs	r1, r5, r1
    b1ea:	1415      	asrs	r5, r2, #16
    b1ec:	1949      	adds	r1, r1, r5
    b1ee:	140d      	asrs	r5, r1, #16
    b1f0:	b292      	uxth	r2, r2
    b1f2:	0409      	lsls	r1, r1, #16
    b1f4:	430a      	orrs	r2, r1
    b1f6:	601a      	str	r2, [r3, #0]
    b1f8:	9a03      	ldr	r2, [sp, #12]
    b1fa:	46ac      	mov	ip, r5
    b1fc:	3304      	adds	r3, #4
    b1fe:	42ba      	cmp	r2, r7
    b200:	d8e6      	bhi.n	b1d0 <__mdiff+0x64>
    b202:	9902      	ldr	r1, [sp, #8]
    b204:	001a      	movs	r2, r3
    b206:	428c      	cmp	r4, r1
    b208:	d305      	bcc.n	b216 <__mdiff+0xaa>
    b20a:	3a04      	subs	r2, #4
    b20c:	6813      	ldr	r3, [r2, #0]
    b20e:	2b00      	cmp	r3, #0
    b210:	d00e      	beq.n	b230 <__mdiff+0xc4>
    b212:	6106      	str	r6, [r0, #16]
    b214:	e7bc      	b.n	b190 <__mdiff+0x24>
    b216:	cc04      	ldmia	r4!, {r2}
    b218:	b291      	uxth	r1, r2
    b21a:	4461      	add	r1, ip
    b21c:	140d      	asrs	r5, r1, #16
    b21e:	0c12      	lsrs	r2, r2, #16
    b220:	1952      	adds	r2, r2, r5
    b222:	1415      	asrs	r5, r2, #16
    b224:	b289      	uxth	r1, r1
    b226:	0412      	lsls	r2, r2, #16
    b228:	430a      	orrs	r2, r1
    b22a:	46ac      	mov	ip, r5
    b22c:	c304      	stmia	r3!, {r2}
    b22e:	e7e8      	b.n	b202 <__mdiff+0x96>
    b230:	3e01      	subs	r6, #1
    b232:	e7ea      	b.n	b20a <__mdiff+0x9e>

0000b234 <__d2b>:
    b234:	b5f7      	push	{r0, r1, r2, r4, r5, r6, r7, lr}
    b236:	001d      	movs	r5, r3
    b238:	2101      	movs	r1, #1
    b23a:	9f08      	ldr	r7, [sp, #32]
    b23c:	0014      	movs	r4, r2
    b23e:	f7ff fd6a 	bl	ad16 <_Balloc>
    b242:	032b      	lsls	r3, r5, #12
    b244:	006d      	lsls	r5, r5, #1
    b246:	0006      	movs	r6, r0
    b248:	0b1b      	lsrs	r3, r3, #12
    b24a:	0d6d      	lsrs	r5, r5, #21
    b24c:	d124      	bne.n	b298 <__d2b+0x64>
    b24e:	9301      	str	r3, [sp, #4]
    b250:	2c00      	cmp	r4, #0
    b252:	d027      	beq.n	b2a4 <__d2b+0x70>
    b254:	4668      	mov	r0, sp
    b256:	9400      	str	r4, [sp, #0]
    b258:	f7ff fe04 	bl	ae64 <__lo0bits>
    b25c:	9c00      	ldr	r4, [sp, #0]
    b25e:	2800      	cmp	r0, #0
    b260:	d01e      	beq.n	b2a0 <__d2b+0x6c>
    b262:	9b01      	ldr	r3, [sp, #4]
    b264:	2120      	movs	r1, #32
    b266:	001a      	movs	r2, r3
    b268:	1a09      	subs	r1, r1, r0
    b26a:	408a      	lsls	r2, r1
    b26c:	40c3      	lsrs	r3, r0
    b26e:	4322      	orrs	r2, r4
    b270:	6172      	str	r2, [r6, #20]
    b272:	9301      	str	r3, [sp, #4]
    b274:	9c01      	ldr	r4, [sp, #4]
    b276:	61b4      	str	r4, [r6, #24]
    b278:	1e63      	subs	r3, r4, #1
    b27a:	419c      	sbcs	r4, r3
    b27c:	3401      	adds	r4, #1
    b27e:	6134      	str	r4, [r6, #16]
    b280:	2d00      	cmp	r5, #0
    b282:	d018      	beq.n	b2b6 <__d2b+0x82>
    b284:	4b12      	ldr	r3, [pc, #72]	; (b2d0 <__d2b+0x9c>)
    b286:	18ed      	adds	r5, r5, r3
    b288:	2335      	movs	r3, #53	; 0x35
    b28a:	182d      	adds	r5, r5, r0
    b28c:	603d      	str	r5, [r7, #0]
    b28e:	1a18      	subs	r0, r3, r0
    b290:	9b09      	ldr	r3, [sp, #36]	; 0x24
    b292:	6018      	str	r0, [r3, #0]
    b294:	0030      	movs	r0, r6
    b296:	bdfe      	pop	{r1, r2, r3, r4, r5, r6, r7, pc}
    b298:	2280      	movs	r2, #128	; 0x80
    b29a:	0352      	lsls	r2, r2, #13
    b29c:	4313      	orrs	r3, r2
    b29e:	e7d6      	b.n	b24e <__d2b+0x1a>
    b2a0:	6174      	str	r4, [r6, #20]
    b2a2:	e7e7      	b.n	b274 <__d2b+0x40>
    b2a4:	a801      	add	r0, sp, #4
    b2a6:	f7ff fddd 	bl	ae64 <__lo0bits>
    b2aa:	2401      	movs	r4, #1
    b2ac:	9b01      	ldr	r3, [sp, #4]
    b2ae:	6134      	str	r4, [r6, #16]
    b2b0:	6173      	str	r3, [r6, #20]
    b2b2:	3020      	adds	r0, #32
    b2b4:	e7e4      	b.n	b280 <__d2b+0x4c>
    b2b6:	4b07      	ldr	r3, [pc, #28]	; (b2d4 <__d2b+0xa0>)
    b2b8:	18c0      	adds	r0, r0, r3
    b2ba:	4b07      	ldr	r3, [pc, #28]	; (b2d8 <__d2b+0xa4>)
    b2bc:	6038      	str	r0, [r7, #0]
    b2be:	18e3      	adds	r3, r4, r3
    b2c0:	009b      	lsls	r3, r3, #2
    b2c2:	18f3      	adds	r3, r6, r3
    b2c4:	6958      	ldr	r0, [r3, #20]
    b2c6:	f7ff fdb3 	bl	ae30 <__hi0bits>
    b2ca:	0164      	lsls	r4, r4, #5
    b2cc:	1a20      	subs	r0, r4, r0
    b2ce:	e7df      	b.n	b290 <__d2b+0x5c>
    b2d0:	fffffbcd 	.word	0xfffffbcd
    b2d4:	fffffbce 	.word	0xfffffbce
    b2d8:	3fffffff 	.word	0x3fffffff

0000b2dc <_calloc_r>:
    b2dc:	434a      	muls	r2, r1
    b2de:	b570      	push	{r4, r5, r6, lr}
    b2e0:	0011      	movs	r1, r2
    b2e2:	0014      	movs	r4, r2
    b2e4:	f7fe f8d0 	bl	9488 <_malloc_r>
    b2e8:	1e05      	subs	r5, r0, #0
    b2ea:	d003      	beq.n	b2f4 <_calloc_r+0x18>
    b2ec:	0022      	movs	r2, r4
    b2ee:	2100      	movs	r1, #0
    b2f0:	f7fe f878 	bl	93e4 <memset>
    b2f4:	0028      	movs	r0, r5
    b2f6:	bd70      	pop	{r4, r5, r6, pc}

0000b2f8 <_realloc_r>:
    b2f8:	b5f8      	push	{r3, r4, r5, r6, r7, lr}
    b2fa:	0007      	movs	r7, r0
    b2fc:	000d      	movs	r5, r1
    b2fe:	0016      	movs	r6, r2
    b300:	2900      	cmp	r1, #0
    b302:	d105      	bne.n	b310 <_realloc_r+0x18>
    b304:	0011      	movs	r1, r2
    b306:	f7fe f8bf 	bl	9488 <_malloc_r>
    b30a:	0004      	movs	r4, r0
    b30c:	0020      	movs	r0, r4
    b30e:	bdf8      	pop	{r3, r4, r5, r6, r7, pc}
    b310:	2a00      	cmp	r2, #0
    b312:	d103      	bne.n	b31c <_realloc_r+0x24>
    b314:	f7fe f86e 	bl	93f4 <_free_r>
    b318:	0034      	movs	r4, r6
    b31a:	e7f7      	b.n	b30c <_realloc_r+0x14>
    b31c:	f000 f978 	bl	b610 <_malloc_usable_size_r>
    b320:	002c      	movs	r4, r5
    b322:	4286      	cmp	r6, r0
    b324:	d9f2      	bls.n	b30c <_realloc_r+0x14>
    b326:	0031      	movs	r1, r6
    b328:	0038      	movs	r0, r7
    b32a:	f7fe f8ad 	bl	9488 <_malloc_r>
    b32e:	1e04      	subs	r4, r0, #0
    b330:	d0ec      	beq.n	b30c <_realloc_r+0x14>
    b332:	0029      	movs	r1, r5
    b334:	0032      	movs	r2, r6
    b336:	f7fe f83a 	bl	93ae <memcpy>
    b33a:	0029      	movs	r1, r5
    b33c:	0038      	movs	r0, r7
    b33e:	f7fe f859 	bl	93f4 <_free_r>
    b342:	e7e3      	b.n	b30c <_realloc_r+0x14>

0000b344 <__ssputs_r>:
    b344:	b5f0      	push	{r4, r5, r6, r7, lr}
    b346:	688e      	ldr	r6, [r1, #8]
    b348:	b085      	sub	sp, #20
    b34a:	0007      	movs	r7, r0
    b34c:	000c      	movs	r4, r1
    b34e:	9203      	str	r2, [sp, #12]
    b350:	9301      	str	r3, [sp, #4]
    b352:	429e      	cmp	r6, r3
    b354:	d839      	bhi.n	b3ca <__ssputs_r+0x86>
    b356:	2390      	movs	r3, #144	; 0x90
    b358:	898a      	ldrh	r2, [r1, #12]
    b35a:	00db      	lsls	r3, r3, #3
    b35c:	421a      	tst	r2, r3
    b35e:	d034      	beq.n	b3ca <__ssputs_r+0x86>
    b360:	2503      	movs	r5, #3
    b362:	6909      	ldr	r1, [r1, #16]
    b364:	6823      	ldr	r3, [r4, #0]
    b366:	1a5b      	subs	r3, r3, r1
    b368:	9302      	str	r3, [sp, #8]
    b36a:	6963      	ldr	r3, [r4, #20]
    b36c:	9802      	ldr	r0, [sp, #8]
    b36e:	435d      	muls	r5, r3
    b370:	0feb      	lsrs	r3, r5, #31
    b372:	195d      	adds	r5, r3, r5
    b374:	9b01      	ldr	r3, [sp, #4]
    b376:	106d      	asrs	r5, r5, #1
    b378:	3301      	adds	r3, #1
    b37a:	181b      	adds	r3, r3, r0
    b37c:	42ab      	cmp	r3, r5
    b37e:	d900      	bls.n	b382 <__ssputs_r+0x3e>
    b380:	001d      	movs	r5, r3
    b382:	0553      	lsls	r3, r2, #21
    b384:	d532      	bpl.n	b3ec <__ssputs_r+0xa8>
    b386:	0029      	movs	r1, r5
    b388:	0038      	movs	r0, r7
    b38a:	f7fe f87d 	bl	9488 <_malloc_r>
    b38e:	1e06      	subs	r6, r0, #0
    b390:	d109      	bne.n	b3a6 <__ssputs_r+0x62>
    b392:	230c      	movs	r3, #12
    b394:	603b      	str	r3, [r7, #0]
    b396:	2340      	movs	r3, #64	; 0x40
    b398:	2001      	movs	r0, #1
    b39a:	89a2      	ldrh	r2, [r4, #12]
    b39c:	4240      	negs	r0, r0
    b39e:	4313      	orrs	r3, r2
    b3a0:	81a3      	strh	r3, [r4, #12]
    b3a2:	b005      	add	sp, #20
    b3a4:	bdf0      	pop	{r4, r5, r6, r7, pc}
    b3a6:	9a02      	ldr	r2, [sp, #8]
    b3a8:	6921      	ldr	r1, [r4, #16]
    b3aa:	f7fe f800 	bl	93ae <memcpy>
    b3ae:	89a3      	ldrh	r3, [r4, #12]
    b3b0:	4a14      	ldr	r2, [pc, #80]	; (b404 <__ssputs_r+0xc0>)
    b3b2:	401a      	ands	r2, r3
    b3b4:	2380      	movs	r3, #128	; 0x80
    b3b6:	4313      	orrs	r3, r2
    b3b8:	81a3      	strh	r3, [r4, #12]
    b3ba:	9b02      	ldr	r3, [sp, #8]
    b3bc:	6126      	str	r6, [r4, #16]
    b3be:	18f6      	adds	r6, r6, r3
    b3c0:	6026      	str	r6, [r4, #0]
    b3c2:	6165      	str	r5, [r4, #20]
    b3c4:	9e01      	ldr	r6, [sp, #4]
    b3c6:	1aed      	subs	r5, r5, r3
    b3c8:	60a5      	str	r5, [r4, #8]
    b3ca:	9b01      	ldr	r3, [sp, #4]
    b3cc:	42b3      	cmp	r3, r6
    b3ce:	d200      	bcs.n	b3d2 <__ssputs_r+0x8e>
    b3d0:	001e      	movs	r6, r3
    b3d2:	0032      	movs	r2, r6
    b3d4:	9903      	ldr	r1, [sp, #12]
    b3d6:	6820      	ldr	r0, [r4, #0]
    b3d8:	f7fd fff2 	bl	93c0 <memmove>
    b3dc:	68a3      	ldr	r3, [r4, #8]
    b3de:	2000      	movs	r0, #0
    b3e0:	1b9b      	subs	r3, r3, r6
    b3e2:	60a3      	str	r3, [r4, #8]
    b3e4:	6823      	ldr	r3, [r4, #0]
    b3e6:	199e      	adds	r6, r3, r6
    b3e8:	6026      	str	r6, [r4, #0]
    b3ea:	e7da      	b.n	b3a2 <__ssputs_r+0x5e>
    b3ec:	002a      	movs	r2, r5
    b3ee:	0038      	movs	r0, r7
    b3f0:	f7ff ff82 	bl	b2f8 <_realloc_r>
    b3f4:	1e06      	subs	r6, r0, #0
    b3f6:	d1e0      	bne.n	b3ba <__ssputs_r+0x76>
    b3f8:	6921      	ldr	r1, [r4, #16]
    b3fa:	0038      	movs	r0, r7
    b3fc:	f7fd fffa 	bl	93f4 <_free_r>
    b400:	e7c7      	b.n	b392 <__ssputs_r+0x4e>
    b402:	46c0      	nop			; (mov r8, r8)
    b404:	fffffb7f 	.word	0xfffffb7f

0000b408 <_svfiprintf_r>:
    b408:	b5f0      	push	{r4, r5, r6, r7, lr}
    b40a:	b09f      	sub	sp, #124	; 0x7c
    b40c:	9002      	str	r0, [sp, #8]
    b40e:	9305      	str	r3, [sp, #20]
    b410:	898b      	ldrh	r3, [r1, #12]
    b412:	000f      	movs	r7, r1
    b414:	0016      	movs	r6, r2
    b416:	061b      	lsls	r3, r3, #24
    b418:	d511      	bpl.n	b43e <_svfiprintf_r+0x36>
    b41a:	690b      	ldr	r3, [r1, #16]
    b41c:	2b00      	cmp	r3, #0
    b41e:	d10e      	bne.n	b43e <_svfiprintf_r+0x36>
    b420:	2140      	movs	r1, #64	; 0x40
    b422:	f7fe f831 	bl	9488 <_malloc_r>
    b426:	6038      	str	r0, [r7, #0]
    b428:	6138      	str	r0, [r7, #16]
    b42a:	2800      	cmp	r0, #0
    b42c:	d105      	bne.n	b43a <_svfiprintf_r+0x32>
    b42e:	230c      	movs	r3, #12
    b430:	9a02      	ldr	r2, [sp, #8]
    b432:	3801      	subs	r0, #1
    b434:	6013      	str	r3, [r2, #0]
    b436:	b01f      	add	sp, #124	; 0x7c
    b438:	bdf0      	pop	{r4, r5, r6, r7, pc}
    b43a:	2340      	movs	r3, #64	; 0x40
    b43c:	617b      	str	r3, [r7, #20]
    b43e:	2300      	movs	r3, #0
    b440:	ad06      	add	r5, sp, #24
    b442:	616b      	str	r3, [r5, #20]
    b444:	3320      	adds	r3, #32
    b446:	766b      	strb	r3, [r5, #25]
    b448:	3310      	adds	r3, #16
    b44a:	76ab      	strb	r3, [r5, #26]
    b44c:	0034      	movs	r4, r6
    b44e:	7823      	ldrb	r3, [r4, #0]
    b450:	2b00      	cmp	r3, #0
    b452:	d147      	bne.n	b4e4 <_svfiprintf_r+0xdc>
    b454:	1ba3      	subs	r3, r4, r6
    b456:	9304      	str	r3, [sp, #16]
    b458:	d00d      	beq.n	b476 <_svfiprintf_r+0x6e>
    b45a:	1ba3      	subs	r3, r4, r6
    b45c:	0032      	movs	r2, r6
    b45e:	0039      	movs	r1, r7
    b460:	9802      	ldr	r0, [sp, #8]
    b462:	f7ff ff6f 	bl	b344 <__ssputs_r>
    b466:	1c43      	adds	r3, r0, #1
    b468:	d100      	bne.n	b46c <_svfiprintf_r+0x64>
    b46a:	e0b5      	b.n	b5d8 <_svfiprintf_r+0x1d0>
    b46c:	696a      	ldr	r2, [r5, #20]
    b46e:	9b04      	ldr	r3, [sp, #16]
    b470:	4694      	mov	ip, r2
    b472:	4463      	add	r3, ip
    b474:	616b      	str	r3, [r5, #20]
    b476:	7823      	ldrb	r3, [r4, #0]
    b478:	2b00      	cmp	r3, #0
    b47a:	d100      	bne.n	b47e <_svfiprintf_r+0x76>
    b47c:	e0ac      	b.n	b5d8 <_svfiprintf_r+0x1d0>
    b47e:	2201      	movs	r2, #1
    b480:	2300      	movs	r3, #0
    b482:	4252      	negs	r2, r2
    b484:	606a      	str	r2, [r5, #4]
    b486:	a902      	add	r1, sp, #8
    b488:	3254      	adds	r2, #84	; 0x54
    b48a:	1852      	adds	r2, r2, r1
    b48c:	3401      	adds	r4, #1
    b48e:	602b      	str	r3, [r5, #0]
    b490:	60eb      	str	r3, [r5, #12]
    b492:	60ab      	str	r3, [r5, #8]
    b494:	7013      	strb	r3, [r2, #0]
    b496:	65ab      	str	r3, [r5, #88]	; 0x58
    b498:	4e58      	ldr	r6, [pc, #352]	; (b5fc <_svfiprintf_r+0x1f4>)
    b49a:	2205      	movs	r2, #5
    b49c:	7821      	ldrb	r1, [r4, #0]
    b49e:	0030      	movs	r0, r6
    b4a0:	f7ff fc2c 	bl	acfc <memchr>
    b4a4:	1c62      	adds	r2, r4, #1
    b4a6:	2800      	cmp	r0, #0
    b4a8:	d120      	bne.n	b4ec <_svfiprintf_r+0xe4>
    b4aa:	6829      	ldr	r1, [r5, #0]
    b4ac:	06cb      	lsls	r3, r1, #27
    b4ae:	d504      	bpl.n	b4ba <_svfiprintf_r+0xb2>
    b4b0:	2353      	movs	r3, #83	; 0x53
    b4b2:	ae02      	add	r6, sp, #8
    b4b4:	3020      	adds	r0, #32
    b4b6:	199b      	adds	r3, r3, r6
    b4b8:	7018      	strb	r0, [r3, #0]
    b4ba:	070b      	lsls	r3, r1, #28
    b4bc:	d504      	bpl.n	b4c8 <_svfiprintf_r+0xc0>
    b4be:	2353      	movs	r3, #83	; 0x53
    b4c0:	202b      	movs	r0, #43	; 0x2b
    b4c2:	ae02      	add	r6, sp, #8
    b4c4:	199b      	adds	r3, r3, r6
    b4c6:	7018      	strb	r0, [r3, #0]
    b4c8:	7823      	ldrb	r3, [r4, #0]
    b4ca:	2b2a      	cmp	r3, #42	; 0x2a
    b4cc:	d016      	beq.n	b4fc <_svfiprintf_r+0xf4>
    b4ce:	2000      	movs	r0, #0
    b4d0:	210a      	movs	r1, #10
    b4d2:	9b09      	ldr	r3, [sp, #36]	; 0x24
    b4d4:	7822      	ldrb	r2, [r4, #0]
    b4d6:	3a30      	subs	r2, #48	; 0x30
    b4d8:	2a09      	cmp	r2, #9
    b4da:	d955      	bls.n	b588 <_svfiprintf_r+0x180>
    b4dc:	2800      	cmp	r0, #0
    b4de:	d015      	beq.n	b50c <_svfiprintf_r+0x104>
    b4e0:	9309      	str	r3, [sp, #36]	; 0x24
    b4e2:	e013      	b.n	b50c <_svfiprintf_r+0x104>
    b4e4:	2b25      	cmp	r3, #37	; 0x25
    b4e6:	d0b5      	beq.n	b454 <_svfiprintf_r+0x4c>
    b4e8:	3401      	adds	r4, #1
    b4ea:	e7b0      	b.n	b44e <_svfiprintf_r+0x46>
    b4ec:	2301      	movs	r3, #1
    b4ee:	1b80      	subs	r0, r0, r6
    b4f0:	4083      	lsls	r3, r0
    b4f2:	6829      	ldr	r1, [r5, #0]
    b4f4:	0014      	movs	r4, r2
    b4f6:	430b      	orrs	r3, r1
    b4f8:	602b      	str	r3, [r5, #0]
    b4fa:	e7cd      	b.n	b498 <_svfiprintf_r+0x90>
    b4fc:	9b05      	ldr	r3, [sp, #20]
    b4fe:	1d18      	adds	r0, r3, #4
    b500:	681b      	ldr	r3, [r3, #0]
    b502:	9005      	str	r0, [sp, #20]
    b504:	2b00      	cmp	r3, #0
    b506:	db39      	blt.n	b57c <_svfiprintf_r+0x174>
    b508:	9309      	str	r3, [sp, #36]	; 0x24
    b50a:	0014      	movs	r4, r2
    b50c:	7823      	ldrb	r3, [r4, #0]
    b50e:	2b2e      	cmp	r3, #46	; 0x2e
    b510:	d10b      	bne.n	b52a <_svfiprintf_r+0x122>
    b512:	7863      	ldrb	r3, [r4, #1]
    b514:	1c62      	adds	r2, r4, #1
    b516:	2b2a      	cmp	r3, #42	; 0x2a
    b518:	d13e      	bne.n	b598 <_svfiprintf_r+0x190>
    b51a:	9b05      	ldr	r3, [sp, #20]
    b51c:	3402      	adds	r4, #2
    b51e:	1d1a      	adds	r2, r3, #4
    b520:	681b      	ldr	r3, [r3, #0]
    b522:	9205      	str	r2, [sp, #20]
    b524:	2b00      	cmp	r3, #0
    b526:	db34      	blt.n	b592 <_svfiprintf_r+0x18a>
    b528:	9307      	str	r3, [sp, #28]
    b52a:	4e35      	ldr	r6, [pc, #212]	; (b600 <_svfiprintf_r+0x1f8>)
    b52c:	7821      	ldrb	r1, [r4, #0]
    b52e:	2203      	movs	r2, #3
    b530:	0030      	movs	r0, r6
    b532:	f7ff fbe3 	bl	acfc <memchr>
    b536:	2800      	cmp	r0, #0
    b538:	d006      	beq.n	b548 <_svfiprintf_r+0x140>
    b53a:	2340      	movs	r3, #64	; 0x40
    b53c:	1b80      	subs	r0, r0, r6
    b53e:	4083      	lsls	r3, r0
    b540:	682a      	ldr	r2, [r5, #0]
    b542:	3401      	adds	r4, #1
    b544:	4313      	orrs	r3, r2
    b546:	602b      	str	r3, [r5, #0]
    b548:	7821      	ldrb	r1, [r4, #0]
    b54a:	2206      	movs	r2, #6
    b54c:	482d      	ldr	r0, [pc, #180]	; (b604 <_svfiprintf_r+0x1fc>)
    b54e:	1c66      	adds	r6, r4, #1
    b550:	7629      	strb	r1, [r5, #24]
    b552:	f7ff fbd3 	bl	acfc <memchr>
    b556:	2800      	cmp	r0, #0
    b558:	d046      	beq.n	b5e8 <_svfiprintf_r+0x1e0>
    b55a:	4b2b      	ldr	r3, [pc, #172]	; (b608 <_svfiprintf_r+0x200>)
    b55c:	2b00      	cmp	r3, #0
    b55e:	d12f      	bne.n	b5c0 <_svfiprintf_r+0x1b8>
    b560:	6829      	ldr	r1, [r5, #0]
    b562:	9b05      	ldr	r3, [sp, #20]
    b564:	2207      	movs	r2, #7
    b566:	05c9      	lsls	r1, r1, #23
    b568:	d528      	bpl.n	b5bc <_svfiprintf_r+0x1b4>
    b56a:	189b      	adds	r3, r3, r2
    b56c:	4393      	bics	r3, r2
    b56e:	3308      	adds	r3, #8
    b570:	9305      	str	r3, [sp, #20]
    b572:	696b      	ldr	r3, [r5, #20]
    b574:	9a03      	ldr	r2, [sp, #12]
    b576:	189b      	adds	r3, r3, r2
    b578:	616b      	str	r3, [r5, #20]
    b57a:	e767      	b.n	b44c <_svfiprintf_r+0x44>
    b57c:	425b      	negs	r3, r3
    b57e:	60eb      	str	r3, [r5, #12]
    b580:	2302      	movs	r3, #2
    b582:	430b      	orrs	r3, r1
    b584:	602b      	str	r3, [r5, #0]
    b586:	e7c0      	b.n	b50a <_svfiprintf_r+0x102>
    b588:	434b      	muls	r3, r1
    b58a:	3401      	adds	r4, #1
    b58c:	189b      	adds	r3, r3, r2
    b58e:	2001      	movs	r0, #1
    b590:	e7a0      	b.n	b4d4 <_svfiprintf_r+0xcc>
    b592:	2301      	movs	r3, #1
    b594:	425b      	negs	r3, r3
    b596:	e7c7      	b.n	b528 <_svfiprintf_r+0x120>
    b598:	2300      	movs	r3, #0
    b59a:	0014      	movs	r4, r2
    b59c:	200a      	movs	r0, #10
    b59e:	001a      	movs	r2, r3
    b5a0:	606b      	str	r3, [r5, #4]
    b5a2:	7821      	ldrb	r1, [r4, #0]
    b5a4:	3930      	subs	r1, #48	; 0x30
    b5a6:	2909      	cmp	r1, #9
    b5a8:	d903      	bls.n	b5b2 <_svfiprintf_r+0x1aa>
    b5aa:	2b00      	cmp	r3, #0
    b5ac:	d0bd      	beq.n	b52a <_svfiprintf_r+0x122>
    b5ae:	9207      	str	r2, [sp, #28]
    b5b0:	e7bb      	b.n	b52a <_svfiprintf_r+0x122>
    b5b2:	4342      	muls	r2, r0
    b5b4:	3401      	adds	r4, #1
    b5b6:	1852      	adds	r2, r2, r1
    b5b8:	2301      	movs	r3, #1
    b5ba:	e7f2      	b.n	b5a2 <_svfiprintf_r+0x19a>
    b5bc:	3307      	adds	r3, #7
    b5be:	e7d5      	b.n	b56c <_svfiprintf_r+0x164>
    b5c0:	ab05      	add	r3, sp, #20
    b5c2:	9300      	str	r3, [sp, #0]
    b5c4:	003a      	movs	r2, r7
    b5c6:	4b11      	ldr	r3, [pc, #68]	; (b60c <_svfiprintf_r+0x204>)
    b5c8:	0029      	movs	r1, r5
    b5ca:	9802      	ldr	r0, [sp, #8]
    b5cc:	f7fe f856 	bl	967c <_printf_float>
    b5d0:	9003      	str	r0, [sp, #12]
    b5d2:	9b03      	ldr	r3, [sp, #12]
    b5d4:	3301      	adds	r3, #1
    b5d6:	d1cc      	bne.n	b572 <_svfiprintf_r+0x16a>
    b5d8:	89bb      	ldrh	r3, [r7, #12]
    b5da:	980b      	ldr	r0, [sp, #44]	; 0x2c
    b5dc:	065b      	lsls	r3, r3, #25
    b5de:	d400      	bmi.n	b5e2 <_svfiprintf_r+0x1da>
    b5e0:	e729      	b.n	b436 <_svfiprintf_r+0x2e>
    b5e2:	2001      	movs	r0, #1
    b5e4:	4240      	negs	r0, r0
    b5e6:	e726      	b.n	b436 <_svfiprintf_r+0x2e>
    b5e8:	ab05      	add	r3, sp, #20
    b5ea:	9300      	str	r3, [sp, #0]
    b5ec:	003a      	movs	r2, r7
    b5ee:	4b07      	ldr	r3, [pc, #28]	; (b60c <_svfiprintf_r+0x204>)
    b5f0:	0029      	movs	r1, r5
    b5f2:	9802      	ldr	r0, [sp, #8]
    b5f4:	f7fe fafc 	bl	9bf0 <_printf_i>
    b5f8:	e7ea      	b.n	b5d0 <_svfiprintf_r+0x1c8>
    b5fa:	46c0      	nop			; (mov r8, r8)
    b5fc:	0000c0a4 	.word	0x0000c0a4
    b600:	0000c0aa 	.word	0x0000c0aa
    b604:	0000c0ae 	.word	0x0000c0ae
    b608:	0000967d 	.word	0x0000967d
    b60c:	0000b345 	.word	0x0000b345

0000b610 <_malloc_usable_size_r>:
    b610:	1f0b      	subs	r3, r1, #4
    b612:	681b      	ldr	r3, [r3, #0]
    b614:	1f18      	subs	r0, r3, #4
    b616:	2b00      	cmp	r3, #0
    b618:	da01      	bge.n	b61e <_malloc_usable_size_r+0xe>
    b61a:	580b      	ldr	r3, [r1, r0]
    b61c:	18c0      	adds	r0, r0, r3
    b61e:	4770      	bx	lr

0000b620 <__aeabi_i2d>:
    b620:	b570      	push	{r4, r5, r6, lr}
    b622:	2800      	cmp	r0, #0
    b624:	d030      	beq.n	b688 <__aeabi_i2d+0x68>
    b626:	17c3      	asrs	r3, r0, #31
    b628:	18c4      	adds	r4, r0, r3
    b62a:	405c      	eors	r4, r3
    b62c:	0fc5      	lsrs	r5, r0, #31
    b62e:	0020      	movs	r0, r4
    b630:	f7fd fe34 	bl	929c <__clzsi2>
    b634:	4b17      	ldr	r3, [pc, #92]	; (b694 <__aeabi_i2d+0x74>)
    b636:	4a18      	ldr	r2, [pc, #96]	; (b698 <__aeabi_i2d+0x78>)
    b638:	1a1b      	subs	r3, r3, r0
    b63a:	1ad2      	subs	r2, r2, r3
    b63c:	2a1f      	cmp	r2, #31
    b63e:	dd18      	ble.n	b672 <__aeabi_i2d+0x52>
    b640:	4a16      	ldr	r2, [pc, #88]	; (b69c <__aeabi_i2d+0x7c>)
    b642:	1ad2      	subs	r2, r2, r3
    b644:	4094      	lsls	r4, r2
    b646:	2200      	movs	r2, #0
    b648:	0324      	lsls	r4, r4, #12
    b64a:	055b      	lsls	r3, r3, #21
    b64c:	0b24      	lsrs	r4, r4, #12
    b64e:	0d5b      	lsrs	r3, r3, #21
    b650:	2100      	movs	r1, #0
    b652:	0010      	movs	r0, r2
    b654:	0324      	lsls	r4, r4, #12
    b656:	0d0a      	lsrs	r2, r1, #20
    b658:	0b24      	lsrs	r4, r4, #12
    b65a:	0512      	lsls	r2, r2, #20
    b65c:	4322      	orrs	r2, r4
    b65e:	4c10      	ldr	r4, [pc, #64]	; (b6a0 <__aeabi_i2d+0x80>)
    b660:	051b      	lsls	r3, r3, #20
    b662:	4022      	ands	r2, r4
    b664:	4313      	orrs	r3, r2
    b666:	005b      	lsls	r3, r3, #1
    b668:	07ed      	lsls	r5, r5, #31
    b66a:	085b      	lsrs	r3, r3, #1
    b66c:	432b      	orrs	r3, r5
    b66e:	0019      	movs	r1, r3
    b670:	bd70      	pop	{r4, r5, r6, pc}
    b672:	0021      	movs	r1, r4
    b674:	4091      	lsls	r1, r2
    b676:	000a      	movs	r2, r1
    b678:	210b      	movs	r1, #11
    b67a:	1a08      	subs	r0, r1, r0
    b67c:	40c4      	lsrs	r4, r0
    b67e:	055b      	lsls	r3, r3, #21
    b680:	0324      	lsls	r4, r4, #12
    b682:	0b24      	lsrs	r4, r4, #12
    b684:	0d5b      	lsrs	r3, r3, #21
    b686:	e7e3      	b.n	b650 <__aeabi_i2d+0x30>
    b688:	2500      	movs	r5, #0
    b68a:	2300      	movs	r3, #0
    b68c:	2400      	movs	r4, #0
    b68e:	2200      	movs	r2, #0
    b690:	e7de      	b.n	b650 <__aeabi_i2d+0x30>
    b692:	46c0      	nop			; (mov r8, r8)
    b694:	0000041e 	.word	0x0000041e
    b698:	00000433 	.word	0x00000433
    b69c:	00000413 	.word	0x00000413
    b6a0:	800fffff 	.word	0x800fffff

0000b6a4 <_sbrk>:
    b6a4:	4a04      	ldr	r2, [pc, #16]	; (b6b8 <_sbrk+0x14>)
    b6a6:	6813      	ldr	r3, [r2, #0]
    b6a8:	2b00      	cmp	r3, #0
    b6aa:	d003      	beq.n	b6b4 <_sbrk+0x10>
    b6ac:	1818      	adds	r0, r3, r0
    b6ae:	6010      	str	r0, [r2, #0]
    b6b0:	0018      	movs	r0, r3
    b6b2:	4770      	bx	lr
    b6b4:	4b01      	ldr	r3, [pc, #4]	; (b6bc <_sbrk+0x18>)
    b6b6:	e7f9      	b.n	b6ac <_sbrk+0x8>
    b6b8:	200010c0 	.word	0x200010c0
    b6bc:	200010c8 	.word	0x200010c8

0000b6c0 <_init>:
    b6c0:	b5f8      	push	{r3, r4, r5, r6, r7, lr}
    b6c2:	46c0      	nop			; (mov r8, r8)
    b6c4:	bcf8      	pop	{r3, r4, r5, r6, r7}
    b6c6:	bc08      	pop	{r3}
    b6c8:	469e      	mov	lr, r3
    b6ca:	4770      	bx	lr

0000b6cc <_fini>:
    b6cc:	b5f8      	push	{r3, r4, r5, r6, r7, lr}
    b6ce:	46c0      	nop			; (mov r8, r8)
    b6d0:	bcf8      	pop	{r3, r4, r5, r6, r7}
    b6d2:	bc08      	pop	{r3}
    b6d4:	469e      	mov	lr, r3
    b6d6:	4770      	bx	lr

0000b6d8 <_ZTV12BLEAttribute>:
	...
    b6e0:	2115 0000 211b 0000 2117 0000               .!...!...!..

0000b6ec <_ZTV17BLECharacteristic>:
	...
    b6f4:	2179 0000 21a5 0000 3025 7832 253a 3230     y!...!..%02x:%02
    b704:	3a78 3025 7832 253a 3230 3a78 3025 7832     x:%02x:%02x:%02x
    b714:	253a 3230 0078 0000                         :%02x...

0000b71c <_ZTV9BLEDevice>:
	...
    b724:	222b 0000 222d 0000 2239 0000 2249 0000     +"..-"..9"..I"..
    b734:	231d 0000 2259 0000 227d 0000 22b1 0000     .#..Y"..}"..."..
    b744:	22cd 0000 22fd 0000 2349 0000               ."..."..I#..

0000b750 <_ZTV10BLEService>:
	...
    b758:	23ad 0000 23d9 0000                         .#...#..

0000b760 <_ZTV23BLEStringCharacteristic>:
	...
    b768:	2459 0000 246d 0000                         Y$..m$..

0000b770 <_ZTV22BLETypedCharacteristicIhE>:
	...
    b778:	24a9 0000 24bd 0000                         .$...$..

0000b780 <_ZTV21BLEByteCharacteristic>:
	...
    b788:	24d1 0000 24e5 0000                         .$...$..

0000b790 <_ZTV22BLETypedCharacteristicItE>:
	...
    b798:	24f9 0000 250d 0000                         .$...%..

0000b7a0 <_ZTV21BLEWordCharacteristic>:
	...
    b7a8:	2521 0000 2535 0000 3932 3230 0000 0000     !%..5%..2902....

0000b7b8 <_ZTV22BLELocalCharacteristic>:
	...
    b7c0:	2839 0000 289d 0000 264d 0000               9(...(..M&..

0000b7cc <_ZTV18BLELocalDescriptor>:
	...
    b7d4:	29c5 0000 29dd 0000 29bd 0000               .)...)...)..

0000b7e0 <_ZTV14BLELocalDevice>:
	...
    b7e8:	2a41 0000 2a59 0000 2239 0000 2249 0000     A*..Y*..9"..I"..
    b7f8:	2a6d 0000 2a85 0000 2a95 0000 2c61 0000     m*...*...*..a,..
    b808:	2a29 0000 2a2d 0000 2a37 0000               )*..-*..7*..

0000b814 <_ZTV15BLELocalService>:
	...
    b81c:	2d55 0000 2db1 0000 2c91 0000               U-...-...,..

0000b828 <_ZTV8ATTClass>:
	...
    b830:	2dc5 0000 2de1 0000                         .-...-..

0000b838 <_ZTV8GAPClass>:
	...
    b840:	3e11 0000 3e13 0000 7241 7564 6e69 006f     .>...>..Arduino.
    b850:	3831 3030 3200 3061 0030 6132 3130 3100     1800.2a00.2a01.1
    b860:	3038 0031 6132 3530 0000 0000               801.2a05....

0000b86c <_ZTV9GATTClass>:
	...
    b874:	42b1 0000 42f9 0000 4348 2049 4341 444c     .B...B..HCI ACLD
    b884:	5441 2041 5854 2d20 203e 4800 4943 4320     ATA TX -> .HCI C
    b894:	4d4f 414d 444e 5420 2058 3e2d 0020 4348     OMMAND TX -> .HC
    b8a4:	2049 4341 444c 5441 2041 5852 3c20 202d     I ACLDATA RX <- 
    b8b4:	4800 4943 4520 4556 544e 5220 2058 2d3c     .HCI EVENT RX <-
    b8c4:	0020 0000                                    ...

0000b8c8 <_ZTV8HCIClass>:
	...
    b8d0:	430b 0000 430d 0000                         .C...C..

0000b8d8 <HCITransport>:
    b8d8:	05b0 2000                                   ... 

0000b8dc <_ZTV21HCIUartTransportClass>:
	...
    b8e4:	49df 0000 49f1 0000 4a47 0000 49fd 0000     .I...I..GJ...I..
    b8f4:	4a09 0000 4a15 0000 4a21 0000 49dd 0000     .J...J..!J...I..
    b904:	4a3b 0000                                   ;J..

0000b908 <_ZTV19L2CAPSignalingClass>:
	...
    b910:	4aa1 0000 4aa3 0000 6f63 6e6e 6365 6574     .J...J..connecte
    b920:	2064 6f74 6320 6e65 7274 6c61 203a 6400     d to central: .d
    b930:	7369 6f63 6e6e 6365 6574 2064 7266 6d6f     isconnected from
    b940:	6320 6e65 7274 6c61 203a 7300 6174 7472      central: .start
    b950:	6e69 2067 4c42 2045 6166 6c69 6465 0021     ing BLE failed!.
    b960:	2d4b 6f52 6c6c 7265 7700 6961 6974 676e     K-Roller.waiting
    b970:	6620 726f 4220 454c 6320 6e6f 656e 7463      for BLE connect
    b980:	6f69 006e 3831 3631 3200 3541 0042 4132     ion.1816.2A5B.2A
    b990:	4335 3200 3541 0044 3831 4130 3200 3241     5C.2A5D.180A.2A2
    b9a0:	0039 4132 3432 3200 3241 0035 6552 6461     9.2A24.2A25.Read
    b9b0:	6544 6973 6e67 6554 6863 5200 5444 312d     DesignTech.RDT-1
    b9c0:	5300 2d4e 3030 3030 3130 0d00 000a 0000     .SN-000001......

0000b9d0 <_ZTV7Serial_>:
	...
    b9d8:	57bd 0000 57e9 0000 57b9 0000 57dd 0000     .W...W...W...W..
    b9e8:	57d1 0000 5821 0000 5805 0000               .W..!X...X..

0000b9f4 <_ZTV26DoubleBufferedEPOutHandler>:
	...
    b9fc:	5caf 0000 5b91 0000 5aed 0000 5955 0000     .\...[...Z..UY..
    ba0c:	5969 0000                                   iY..

0000ba10 <_ZL14STRING_PRODUCT>:
    ba10:	7241 7564 6e69 206f 4b4d 2052 6957 6946     Arduino MKR WiFi
    ba20:	3120 3130 0030                               1010.

0000ba26 <_ZL15STRING_LANGUAGE>:
    ba26:	0304 0409                                   ....

0000ba2a <_ZL19STRING_MANUFACTURER>:
    ba2a:	7241 7564 6e69 206f 4c4c 0043               Arduino LLC.

0000ba36 <_ZL21USB_DeviceDescriptorB>:
    ba36:	0112 0200 02ef 4001 2341 8054 0100 0201     .......@A#T.....
    ba46:	0103                                        ..

0000ba48 <g_APinDescription>:
    ba48:	0000 0000 0016 0000 0008 0000 001c 0000     ................
    ba58:	00ff 0400 0400 0006 0000 0000 0017 0000     ................
    ba68:	0008 0000 001c 0000 00ff 0401 0401 0007     ................
    ba78:	0000 0000 000a 0000 0008 0000 001c 0000     ................
    ba88:	0012 0100 0100 00ff 0000 0000 000b 0000     ................
    ba98:	0008 0000 001c 0000 0013 0101 0101 00ff     ................
    baa8:	0001 0000 000a 0000 0008 0000 001c 0000     ................
    bab8:	00ff 0500 0500 000a 0001 0000 000b 0000     ................
    bac8:	0008 0000 001c 0000 00ff 0501 0501 000b     ................
    bad8:	0000 0000 0014 0000 0008 0000 002c 0000     ............,...
    bae8:	00ff 0002 0002 0004 0000 0000 0015 0000     ................
    baf8:	0008 0000 002c 0000 00ff 0003 0003 0005     ....,...........
    bb08:	0000 0000 0010 0000 0002 0000 001c 0000     ................
    bb18:	00ff 0200 0200 0000 0000 0000 0011 0000     ................
    bb28:	0002 0000 0004 0000 00ff ffff ffff 0001     ................
    bb38:	0000 0000 0013 0000 0002 0000 001c 0000     ................
    bb48:	00ff 0301 0301 00ff 0000 0000 0008 0000     ................
    bb58:	0003 0000 0004 0000 0010 ffff ffff 0010     ................
    bb68:	0000 0000 0009 0000 0003 0000 0004 0000     ................
    bb78:	0011 ffff ffff 00ff 0001 0000 0017 0000     ................
    bb88:	0003 0000 0004 0000 00ff ffff ffff 00ff     ................
    bb98:	0001 0000 0016 0000 0003 0000 0004 0000     ................
    bba8:	00ff ffff ffff 00ff 0000 0000 0002 0000     ................
    bbb8:	0001 0000 0006 0000 0000 ffff ffff 00ff     ................
    bbc8:	0001 0000 0002 0000 0001 0000 0004 0000     ................
    bbd8:	000a ffff ffff 0002 0001 0000 0003 0000     ................
    bbe8:	0001 0000 0004 0000 000b ffff ffff 0003     ................
    bbf8:	0000 0000 0004 0000 0001 0000 001c 0000     ................
    bc08:	0004 0000 0000 00ff 0000 0000 0005 0000     ................
    bc18:	0001 0000 001c 0000 0005 0001 0001 00ff     ................
    bc28:	0000 0000 0006 0000 0001 0000 0004 0000     ................
    bc38:	0006 ffff ffff 00ff 0000 0000 0007 0000     ................
    bc48:	0001 0000 0004 0000 0007 ffff ffff 00ff     ................
    bc58:	0000 0000 0018 0000 0006 0000 0000 0000     ................
    bc68:	00ff ffff ffff 00ff 0000 0000 0019 0000     ................
    bc78:	0006 0000 0000 0000 00ff ffff ffff 00ff     ................
    bc88:	0000 0000 0012 0000 0008 0000 0004 0000     ................
    bc98:	00ff ffff ffff 00ff 0000 0000 0003 0000     ................
    bca8:	0008 0000 0004 0000 00ff ffff ffff 00ff     ................
    bcb8:	0000 0000 000c 0000 0003 0000 0000 0000     ................
    bcc8:	00ff ffff ffff 00ff 0000 0000 000d 0000     ................
    bcd8:	0003 0000 0000 0000 00ff ffff ffff 00ff     ................
    bce8:	0000 0000 000e 0000 0008 0000 0000 0000     ................
    bcf8:	00ff ffff ffff 00ff 0000 0000 000f 0000     ................
    bd08:	0003 0000 0000 0000 00ff ffff ffff 00ff     ................
    bd18:	0000 0000 001b 0000 0008 0000 0000 0000     ................
    bd28:	00ff ffff ffff 000f 0001 0000 0008 0000     ................
    bd38:	0008 0000 0006 0000 0002 ffff ffff 00ff     ................
    bd48:	0001 0000 0009 0000 0001 0000 0018 0000     ................
    bd58:	0003 0401 0401 0009 0000 0000 0000 0000     ................
    bd68:	0008 0000 0000 0000 00ff ffff ffff 00ff     ................
    bd78:	0000 0000 0001 0000 0008 0000 0000 0000     ................
    bd88:	00ff ffff ffff 00ff 0000 0000 001c 0000     ................
    bd98:	0008 0000 0004 0000 00ff ffff ffff 00ff     ................

0000bda8 <_ZTV4Uart>:
	...
    bdb0:	7299 0000 54a5 0000 71bf 0000 717b 0000     .r...T...q..{q..
    bdc0:	7195 0000 734d 0000 6ed5 0000 6ec5 0000     .q..Ms...n...n..
    bdd0:	6f59 0000 6eef 0000 6ec1 0000 7fe8 0000     Yo...n...n......
    bde0:	7fca 0000 7f84 0000 7ea2 0000 7f84 0000     .........~......
    bdf0:	7fbc 0000 7f84 0000 7ea2 0000 7fca 0000     .........~......
    be00:	7fca 0000 7fbc 0000 7ea2 0000 7e9a 0000     .........~...~..
    be10:	7e9a 0000 7e9a 0000 8200 0000 8848 0000     .~...~......H...
    be20:	8708 0000 8708 0000 8704 0000 8820 0000     ............ ...
    be30:	8820 0000 8812 0000 8704 0000 8820 0000      ........... ...
    be40:	8812 0000 8820 0000 8704 0000 8828 0000     .... .......(...
    be50:	8828 0000 8828 0000 8a2c 0000 4f50 4953     (...(...,...POSI
    be60:	0058 002e 4e49 0046 6e69 0066 414e 004e     X...INF.inf.NAN.
    be70:	616e 006e 3130 3332 3534 3736 3938 4241     nan.0123456789AB
    be80:	4443 4645 3000 3231 3433 3635 3837 6139     CDEF.0123456789a
    be90:	6362 6564 0066                              bcdef.

0000be96 <_ctype_>:
    be96:	2000 2020 2020 2020 2020 2828 2828 2028     .         ((((( 
    bea6:	2020 2020 2020 2020 2020 2020 2020 2020                     
    beb6:	8820 1010 1010 1010 1010 1010 1010 1010      ...............
    bec6:	0410 0404 0404 0404 0404 1004 1010 1010     ................
    bed6:	1010 4141 4141 4141 0101 0101 0101 0101     ..AAAAAA........
    bee6:	0101 0101 0101 0101 0101 0101 1010 1010     ................
    bef6:	1010 4242 4242 4242 0202 0202 0202 0202     ..BBBBBB........
    bf06:	0202 0202 0202 0202 0202 0202 1010 1010     ................
    bf16:	0020 0000 0000 0000 0000 0000 0000 0000      ...............
	...
    bf96:	4900 666e 6e69 7469 0079 614e 004e 0000     .Infinity.NaN...
	...

0000bfa8 <__mprec_bigtens>:
    bfa8:	8000 37e0 c379 4341 6e17 b505 b8b5 4693     ...7y.AC.n.....F
    bfb8:	f9f5 e93f 4f03 4d38 1d32 f930 7748 5a82     ..?..O8M2.0.Hw.Z
    bfc8:	bf3c 7f73 4fdd 7515                         <.s..O.u

0000bfd0 <__mprec_tens>:
    bfd0:	0000 0000 0000 3ff0 0000 0000 0000 4024     .......?......$@
    bfe0:	0000 0000 0000 4059 0000 0000 4000 408f     ......Y@.....@.@
    bff0:	0000 0000 8800 40c3 0000 0000 6a00 40f8     .......@.....j.@
    c000:	0000 0000 8480 412e 0000 0000 12d0 4163     .......A......cA
    c010:	0000 0000 d784 4197 0000 0000 cd65 41cd     .......A....e..A
    c020:	0000 2000 a05f 4202 0000 e800 4876 4237     ... _..B....vH7B
    c030:	0000 a200 1a94 426d 0000 e540 309c 42a2     ......mB..@..0.B
    c040:	0000 1e90 bcc4 42d6 0000 2634 6bf5 430c     .......B..4&.k.C
    c050:	8000 37e0 c379 4341 a000 85d8 3457 4376     ...7y.AC....W4vC
    c060:	c800 674e c16d 43ab 3d00 6091 58e4 43e1     ..Ngm..C.=.`.X.C
    c070:	8c40 78b5 af1d 4415 ef50 d6e2 1ae4 444b     @..x...DP.....KD
    c080:	d592 064d f0cf 4480 4af6 c7e1 2d02 44b5     ..M....D.J...-.D
    c090:	9db4 79d9 7843 44ea                         ...yCx.D

0000c098 <p05.6047>:
    c098:	0005 0000 0019 0000 007d 0000 2d23 2b30     ........}...#-0+
    c0a8:	0020 6c68 004c 6665 4567 4746 0000 0000      .hlL.efgEFG....

0000c0b8 <__EH_FRAME_BEGIN__>:
    c0b8:	0000 0000                                   ....
